
2-neopix.elf:     file format elf32-littlearm


Disassembly of section .text:

00008000 <__code_start__>:
    8000:	e3a00013 	mov	r0, #19, 0
    8004:	e3800080 	orr	r0, r0, #128, 0	; 0x80
    8008:	e129f000 	msr	CPSR_fc, r0
    800c:	e3a01000 	mov	r1, #0, 0
    8010:	ee071f95 	mcr	15, 0, r1, cr7, cr5, {4}
    8014:	e3a0d302 	mov	sp, #134217728	; 0x8000000
    8018:	e3a0b000 	mov	fp, #0, 0
    801c:	eb00050e 	bl	945c <_cstart>
    8020:	eb000528 	bl	94c8 <rpi_reboot>

00008024 <PUT32>:
    8024:	e5801000 	str	r1, [r0]
    8028:	e12fff1e 	bx	lr

0000802c <GET32>:
    802c:	e5900000 	ldr	r0, [r0]
    8030:	e12fff1e 	bx	lr

00008034 <BRANCHTO>:
    8034:	e12fff10 	bx	r0

00008038 <place_cursor>:
    8038:	e92d4070 	push	{r4, r5, r6, lr}
    803c:	e3a05000 	mov	r5, #0, 0
    8040:	e1a04000 	mov	r4, r0
    8044:	e1a06001 	mov	r6, r1
    8048:	e24dd008 	sub	sp, sp, #8, 0
    804c:	e1a03005 	mov	r3, r5
    8050:	e3a020ff 	mov	r2, #255, 0	; 0xff
    8054:	e2411002 	sub	r1, r1, #2, 0
    8058:	e58d5000 	str	r5, [sp]
    805c:	eb0001c7 	bl	8780 <neopix_write>
    8060:	e1a00004 	mov	r0, r4
    8064:	e1a02005 	mov	r2, r5
    8068:	e2461001 	sub	r1, r6, #1, 0
    806c:	e3a030ff 	mov	r3, #255, 0	; 0xff
    8070:	e58d5000 	str	r5, [sp]
    8074:	eb0001c1 	bl	8780 <neopix_write>
    8078:	e3a0c0ff 	mov	ip, #255, 0	; 0xff
    807c:	e1a00004 	mov	r0, r4
    8080:	e1a01006 	mov	r1, r6
    8084:	e1a03005 	mov	r3, r5
    8088:	e1a02005 	mov	r2, r5
    808c:	e58dc000 	str	ip, [sp]
    8090:	eb0001ba 	bl	8780 <neopix_write>
    8094:	e1a00004 	mov	r0, r4
    8098:	e28dd008 	add	sp, sp, #8, 0
    809c:	e8bd4070 	pop	{r4, r5, r6, lr}
    80a0:	ea000033 	b	8174 <neopix_flush>

000080a4 <notmain>:
    80a4:	e92d47f0 	push	{r4, r5, r6, r7, r8, r9, sl, lr}
    80a8:	e24dd008 	sub	sp, sp, #8, 0
    80ac:	eb0004d7 	bl	9410 <enable_cache>
    80b0:	e3a00015 	mov	r0, #21, 0
    80b4:	eb0001d3 	bl	8808 <gpio_set_output>
    80b8:	e3a01038 	mov	r1, #56, 0	; 0x38
    80bc:	e3a00015 	mov	r0, #21, 0
    80c0:	eb0000b8 	bl	83a8 <neopix_init>
    80c4:	e3a09000 	mov	r9, #0, 0
    80c8:	e1a05000 	mov	r5, r0
    80cc:	e1a06009 	mov	r6, r9
    80d0:	e3a080ff 	mov	r8, #255, 0	; 0xff
    80d4:	e59fa090 	ldr	sl, [pc, #144]	; 816c <notmain+0xc8>
    80d8:	e1a01009 	mov	r1, r9
    80dc:	e1a0000a 	mov	r0, sl
    80e0:	eb0002c8 	bl	8c08 <printk>
    80e4:	e3a04000 	mov	r4, #0, 0
    80e8:	e269700a 	rsb	r7, r9, #10, 0
    80ec:	e2441002 	sub	r1, r4, #2, 0
    80f0:	e3a03000 	mov	r3, #0, 0
    80f4:	e3a020ff 	mov	r2, #255, 0	; 0xff
    80f8:	e1a00005 	mov	r0, r5
    80fc:	e58d6000 	str	r6, [sp]
    8100:	eb00019e 	bl	8780 <neopix_write>
    8104:	e2441001 	sub	r1, r4, #1, 0
    8108:	e3a030ff 	mov	r3, #255, 0	; 0xff
    810c:	e3a02000 	mov	r2, #0, 0
    8110:	e1a00005 	mov	r0, r5
    8114:	e58d6000 	str	r6, [sp]
    8118:	eb000198 	bl	8780 <neopix_write>
    811c:	e3a03000 	mov	r3, #0, 0
    8120:	e1a01004 	mov	r1, r4
    8124:	e1a02003 	mov	r2, r3
    8128:	e1a00005 	mov	r0, r5
    812c:	e58d8000 	str	r8, [sp]
    8130:	eb000192 	bl	8780 <neopix_write>
    8134:	e1a00005 	mov	r0, r5
    8138:	eb00000d 	bl	8174 <neopix_flush>
    813c:	e2844001 	add	r4, r4, #1, 0
    8140:	e1a00007 	mov	r0, r7
    8144:	eb000509 	bl	9570 <delay_ms>
    8148:	e3540038 	cmp	r4, #56, 0	; 0x38
    814c:	1affffe6 	bne	80ec <notmain+0x48>
    8150:	e2899001 	add	r9, r9, #1, 0
    8154:	e359000a 	cmp	r9, #10, 0
    8158:	1affffde 	bne	80d8 <notmain+0x34>
    815c:	e59f000c 	ldr	r0, [pc, #12]	; 8170 <notmain+0xcc>
    8160:	e28dd008 	add	sp, sp, #8, 0
    8164:	e8bd47f0 	pop	{r4, r5, r6, r7, r8, r9, sl, lr}
    8168:	ea0002a6 	b	8c08 <printk>
    816c:	00009858 	andeq	r9, r0, r8, asr r8
    8170:	00009864 	andeq	r9, r0, r4, ror #16

00008174 <neopix_flush>:
    8174:	e5902004 	ldr	r2, [r0, #4]
    8178:	e3520000 	cmp	r2, #0, 0
    817c:	0a000079 	beq	8368 <neopix_flush+0x1f4>
    8180:	e92d43f0 	push	{r4, r5, r6, r7, r8, r9, lr}
    8184:	e3a0e001 	mov	lr, #1, 0
    8188:	e1a0c000 	mov	ip, r0
    818c:	e5d03000 	ldrb	r3, [r0]
    8190:	e0822e12 	add	r2, r2, r2, lsl lr
    8194:	e59f1204 	ldr	r1, [pc, #516]	; 83a0 <neopix_flush+0x22c>
    8198:	e0826000 	add	r6, r2, r0
    819c:	e1a0331e 	lsl	r3, lr, r3
    81a0:	e3a0e007 	mov	lr, #7, 0
    81a4:	e5dc7008 	ldrb	r7, [ip, #8]
    81a8:	e5dc500a 	ldrb	r5, [ip, #10]
    81ac:	e5dc8009 	ldrb	r8, [ip, #9]
    81b0:	e1a04e58 	asr	r4, r8, lr
    81b4:	e3140001 	tst	r4, #1, 0
    81b8:	e581301c 	str	r3, [r1, #28]
    81bc:	0a00005b 	beq	8330 <neopix_flush+0x1bc>
    81c0:	ee1f9f3c 	mrc	15, 0, r9, cr15, cr12, {1}
    81c4:	ee1f4f3c 	mrc	15, 0, r4, cr15, cr12, {1}
    81c8:	e0444009 	sub	r4, r4, r9
    81cc:	e3540e1e 	cmp	r4, #480	; 0x1e0
    81d0:	3afffffb 	bcc	81c4 <neopix_flush+0x50>
    81d4:	e5813028 	str	r3, [r1, #40]	; 0x28
    81d8:	ee1f9f3c 	mrc	15, 0, r9, cr15, cr12, {1}
    81dc:	ee1f4f3c 	mrc	15, 0, r4, cr15, cr12, {1}
    81e0:	e0444009 	sub	r4, r4, r9
    81e4:	e354005e 	cmp	r4, #94, 0	; 0x5e
    81e8:	9afffffb 	bls	81dc <neopix_flush+0x68>
    81ec:	e25ee001 	subs	lr, lr, #1, 0
    81f0:	2affffee 	bcs	81b0 <neopix_flush+0x3c>
    81f4:	e3a0e007 	mov	lr, #7, 0
    81f8:	e1a04e57 	asr	r4, r7, lr
    81fc:	e3140001 	tst	r4, #1, 0
    8200:	e581301c 	str	r3, [r1, #28]
    8204:	0a00003b 	beq	82f8 <neopix_flush+0x184>
    8208:	ee1f8f3c 	mrc	15, 0, r8, cr15, cr12, {1}
    820c:	ee1f4f3c 	mrc	15, 0, r4, cr15, cr12, {1}
    8210:	e0444008 	sub	r4, r4, r8
    8214:	e3540e1e 	cmp	r4, #480	; 0x1e0
    8218:	3afffffb 	bcc	820c <neopix_flush+0x98>
    821c:	e5813028 	str	r3, [r1, #40]	; 0x28
    8220:	ee1f8f3c 	mrc	15, 0, r8, cr15, cr12, {1}
    8224:	ee1f4f3c 	mrc	15, 0, r4, cr15, cr12, {1}
    8228:	e0444008 	sub	r4, r4, r8
    822c:	e354005e 	cmp	r4, #94, 0	; 0x5e
    8230:	9afffffb 	bls	8224 <neopix_flush+0xb0>
    8234:	e25ee001 	subs	lr, lr, #1, 0
    8238:	2affffee 	bcs	81f8 <neopix_flush+0x84>
    823c:	e3a0e007 	mov	lr, #7, 0
    8240:	e1a04e55 	asr	r4, r5, lr
    8244:	e3140001 	tst	r4, #1, 0
    8248:	e581301c 	str	r3, [r1, #28]
    824c:	0a00001b 	beq	82c0 <neopix_flush+0x14c>
    8250:	ee1f7f3c 	mrc	15, 0, r7, cr15, cr12, {1}
    8254:	ee1f4f3c 	mrc	15, 0, r4, cr15, cr12, {1}
    8258:	e0444007 	sub	r4, r4, r7
    825c:	e3540e1e 	cmp	r4, #480	; 0x1e0
    8260:	3afffffb 	bcc	8254 <neopix_flush+0xe0>
    8264:	e5813028 	str	r3, [r1, #40]	; 0x28
    8268:	ee1f7f3c 	mrc	15, 0, r7, cr15, cr12, {1}
    826c:	ee1f4f3c 	mrc	15, 0, r4, cr15, cr12, {1}
    8270:	e0444007 	sub	r4, r4, r7
    8274:	e354005e 	cmp	r4, #94, 0	; 0x5e
    8278:	9afffffb 	bls	826c <neopix_flush+0xf8>
    827c:	e25ee001 	subs	lr, lr, #1, 0
    8280:	2affffee 	bcs	8240 <neopix_flush+0xcc>
    8284:	e28cc003 	add	ip, ip, #3, 0
    8288:	e156000c 	cmp	r6, ip
    828c:	1affffc3 	bne	81a0 <neopix_flush+0x2c>
    8290:	e59f1108 	ldr	r1, [pc, #264]	; 83a0 <neopix_flush+0x22c>
    8294:	e5813028 	str	r3, [r1, #40]	; 0x28
    8298:	ee1fcf3c 	mrc	15, 0, ip, cr15, cr12, {1}
    829c:	e59f1100 	ldr	r1, [pc, #256]	; 83a4 <neopix_flush+0x230>
    82a0:	ee1f3f3c 	mrc	15, 0, r3, cr15, cr12, {1}
    82a4:	e043300c 	sub	r3, r3, ip
    82a8:	e1530001 	cmp	r3, r1
    82ac:	9afffffb 	bls	82a0 <neopix_flush+0x12c>
    82b0:	e8bd43f0 	pop	{r4, r5, r6, r7, r8, r9, lr}
    82b4:	e3a01000 	mov	r1, #0, 0
    82b8:	e2800008 	add	r0, r0, #8, 0
    82bc:	ea00024b 	b	8bf0 <memset>
    82c0:	ee1f7f3c 	mrc	15, 0, r7, cr15, cr12, {1}
    82c4:	ee1f4f3c 	mrc	15, 0, r4, cr15, cr12, {1}
    82c8:	e0444007 	sub	r4, r4, r7
    82cc:	e354005e 	cmp	r4, #94, 0	; 0x5e
    82d0:	9afffffb 	bls	82c4 <neopix_flush+0x150>
    82d4:	e5813028 	str	r3, [r1, #40]	; 0x28
    82d8:	ee1f7f3c 	mrc	15, 0, r7, cr15, cr12, {1}
    82dc:	ee1f4f3c 	mrc	15, 0, r4, cr15, cr12, {1}
    82e0:	e0444007 	sub	r4, r4, r7
    82e4:	e3540e1e 	cmp	r4, #480	; 0x1e0
    82e8:	3afffffb 	bcc	82dc <neopix_flush+0x168>
    82ec:	e25ee001 	subs	lr, lr, #1, 0
    82f0:	2affffd2 	bcs	8240 <neopix_flush+0xcc>
    82f4:	eaffffe2 	b	8284 <neopix_flush+0x110>
    82f8:	ee1f8f3c 	mrc	15, 0, r8, cr15, cr12, {1}
    82fc:	ee1f4f3c 	mrc	15, 0, r4, cr15, cr12, {1}
    8300:	e0444008 	sub	r4, r4, r8
    8304:	e354005e 	cmp	r4, #94, 0	; 0x5e
    8308:	9afffffb 	bls	82fc <neopix_flush+0x188>
    830c:	e5813028 	str	r3, [r1, #40]	; 0x28
    8310:	ee1f8f3c 	mrc	15, 0, r8, cr15, cr12, {1}
    8314:	ee1f4f3c 	mrc	15, 0, r4, cr15, cr12, {1}
    8318:	e0444008 	sub	r4, r4, r8
    831c:	e3540e1e 	cmp	r4, #480	; 0x1e0
    8320:	3afffffb 	bcc	8314 <neopix_flush+0x1a0>
    8324:	e25ee001 	subs	lr, lr, #1, 0
    8328:	2affffb2 	bcs	81f8 <neopix_flush+0x84>
    832c:	eaffffc2 	b	823c <neopix_flush+0xc8>
    8330:	ee1f9f3c 	mrc	15, 0, r9, cr15, cr12, {1}
    8334:	ee1f4f3c 	mrc	15, 0, r4, cr15, cr12, {1}
    8338:	e0444009 	sub	r4, r4, r9
    833c:	e354005e 	cmp	r4, #94, 0	; 0x5e
    8340:	9afffffb 	bls	8334 <neopix_flush+0x1c0>
    8344:	e5813028 	str	r3, [r1, #40]	; 0x28
    8348:	ee1f9f3c 	mrc	15, 0, r9, cr15, cr12, {1}
    834c:	ee1f4f3c 	mrc	15, 0, r4, cr15, cr12, {1}
    8350:	e0444009 	sub	r4, r4, r9
    8354:	e3540e1e 	cmp	r4, #480	; 0x1e0
    8358:	3afffffb 	bcc	834c <neopix_flush+0x1d8>
    835c:	e25ee001 	subs	lr, lr, #1, 0
    8360:	2affff92 	bcs	81b0 <neopix_flush+0x3c>
    8364:	eaffffa2 	b	81f4 <neopix_flush+0x80>
    8368:	e3a01001 	mov	r1, #1, 0
    836c:	e5d03000 	ldrb	r3, [r0]
    8370:	e1a03311 	lsl	r3, r1, r3
    8374:	e59f1024 	ldr	r1, [pc, #36]	; 83a0 <neopix_flush+0x22c>
    8378:	e5813028 	str	r3, [r1, #40]	; 0x28
    837c:	ee1fcf3c 	mrc	15, 0, ip, cr15, cr12, {1}
    8380:	e59f101c 	ldr	r1, [pc, #28]	; 83a4 <neopix_flush+0x230>
    8384:	ee1f3f3c 	mrc	15, 0, r3, cr15, cr12, {1}
    8388:	e043300c 	sub	r3, r3, ip
    838c:	e1530001 	cmp	r3, r1
    8390:	9afffffb 	bls	8384 <neopix_flush+0x210>
    8394:	e3a01000 	mov	r1, #0, 0
    8398:	e2800008 	add	r0, r0, #8, 0
    839c:	ea000213 	b	8bf0 <memset>
    83a0:	20200000 	eorcs	r0, r0, r0
    83a4:	00008867 	andeq	r8, r0, r7, ror #16

000083a8 <neopix_init>:
    83a8:	e92d41f0 	push	{r4, r5, r6, r7, r8, lr}
    83ac:	e1a05001 	mov	r5, r1
    83b0:	e0857085 	add	r7, r5, r5, lsl #1
    83b4:	e2877008 	add	r7, r7, #8, 0
    83b8:	e1a06000 	mov	r6, r0
    83bc:	eb0001ef 	bl	8b80 <kmalloc_init>
    83c0:	e1a00007 	mov	r0, r7
    83c4:	eb00013d 	bl	88c0 <kmalloc>
    83c8:	e1a04000 	mov	r4, r0
    83cc:	e1a02007 	mov	r2, r7
    83d0:	e3a01000 	mov	r1, #0, 0
    83d4:	eb000205 	bl	8bf0 <memset>
    83d8:	e1a00006 	mov	r0, r6
    83dc:	e5845004 	str	r5, [r4, #4]
    83e0:	e5c46000 	strb	r6, [r4]
    83e4:	eb000107 	bl	8808 <gpio_set_output>
    83e8:	e1a00004 	mov	r0, r4
    83ec:	e8bd81f0 	pop	{r4, r5, r6, r7, r8, pc}

000083f0 <neopix_sendpixel>:
    83f0:	e92d4030 	push	{r4, r5, lr}
    83f4:	e3a04001 	mov	r4, #1, 0
    83f8:	e3a0e007 	mov	lr, #7, 0
    83fc:	e5d00000 	ldrb	r0, [r0]
    8400:	e59fc194 	ldr	ip, [pc, #404]	; 859c <neopix_sendpixel+0x1ac>
    8404:	e1a00014 	lsl	r0, r4, r0
    8408:	e1a04e52 	asr	r4, r2, lr
    840c:	e3140001 	tst	r4, #1, 0
    8410:	e58c001c 	str	r0, [ip, #28]
    8414:	0a000052 	beq	8564 <neopix_sendpixel+0x174>
    8418:	ee1f5f3c 	mrc	15, 0, r5, cr15, cr12, {1}
    841c:	ee1f4f3c 	mrc	15, 0, r4, cr15, cr12, {1}
    8420:	e0444005 	sub	r4, r4, r5
    8424:	e3540e1e 	cmp	r4, #480	; 0x1e0
    8428:	3afffffb 	bcc	841c <neopix_sendpixel+0x2c>
    842c:	e58c0028 	str	r0, [ip, #40]	; 0x28
    8430:	ee1f5f3c 	mrc	15, 0, r5, cr15, cr12, {1}
    8434:	ee1f4f3c 	mrc	15, 0, r4, cr15, cr12, {1}
    8438:	e0444005 	sub	r4, r4, r5
    843c:	e354005e 	cmp	r4, #94, 0	; 0x5e
    8440:	9afffffb 	bls	8434 <neopix_sendpixel+0x44>
    8444:	e25ee001 	subs	lr, lr, #1, 0
    8448:	2affffee 	bcs	8408 <neopix_sendpixel+0x18>
    844c:	e3a0c007 	mov	ip, #7, 0
    8450:	e59f2144 	ldr	r2, [pc, #324]	; 859c <neopix_sendpixel+0x1ac>
    8454:	e1a0ec51 	asr	lr, r1, ip
    8458:	e31e0001 	tst	lr, #1, 0
    845c:	e582001c 	str	r0, [r2, #28]
    8460:	0a000031 	beq	852c <neopix_sendpixel+0x13c>
    8464:	ee1f4f3c 	mrc	15, 0, r4, cr15, cr12, {1}
    8468:	ee1fef3c 	mrc	15, 0, lr, cr15, cr12, {1}
    846c:	e04ee004 	sub	lr, lr, r4
    8470:	e35e0e1e 	cmp	lr, #480	; 0x1e0
    8474:	3afffffb 	bcc	8468 <neopix_sendpixel+0x78>
    8478:	e5820028 	str	r0, [r2, #40]	; 0x28
    847c:	ee1f4f3c 	mrc	15, 0, r4, cr15, cr12, {1}
    8480:	ee1fef3c 	mrc	15, 0, lr, cr15, cr12, {1}
    8484:	e04ee004 	sub	lr, lr, r4
    8488:	e35e005e 	cmp	lr, #94, 0	; 0x5e
    848c:	9afffffb 	bls	8480 <neopix_sendpixel+0x90>
    8490:	e25cc001 	subs	ip, ip, #1, 0
    8494:	2affffee 	bcs	8454 <neopix_sendpixel+0x64>
    8498:	e3a01007 	mov	r1, #7, 0
    849c:	e59f20f8 	ldr	r2, [pc, #248]	; 859c <neopix_sendpixel+0x1ac>
    84a0:	e1a0c153 	asr	ip, r3, r1
    84a4:	e31c0001 	tst	ip, #1, 0
    84a8:	e582001c 	str	r0, [r2, #28]
    84ac:	0a000010 	beq	84f4 <neopix_sendpixel+0x104>
    84b0:	ee1fef3c 	mrc	15, 0, lr, cr15, cr12, {1}
    84b4:	ee1fcf3c 	mrc	15, 0, ip, cr15, cr12, {1}
    84b8:	e04cc00e 	sub	ip, ip, lr
    84bc:	e35c0e1e 	cmp	ip, #480	; 0x1e0
    84c0:	3afffffb 	bcc	84b4 <neopix_sendpixel+0xc4>
    84c4:	e5820028 	str	r0, [r2, #40]	; 0x28
    84c8:	ee1fef3c 	mrc	15, 0, lr, cr15, cr12, {1}
    84cc:	ee1fcf3c 	mrc	15, 0, ip, cr15, cr12, {1}
    84d0:	e04cc00e 	sub	ip, ip, lr
    84d4:	e35c005e 	cmp	ip, #94, 0	; 0x5e
    84d8:	9afffffb 	bls	84cc <neopix_sendpixel+0xdc>
    84dc:	e2511001 	subs	r1, r1, #1, 0
    84e0:	38bd8030 	popcc	{r4, r5, pc}
    84e4:	e1a0c153 	asr	ip, r3, r1
    84e8:	e31c0001 	tst	ip, #1, 0
    84ec:	e582001c 	str	r0, [r2, #28]
    84f0:	1affffee 	bne	84b0 <neopix_sendpixel+0xc0>
    84f4:	ee1fef3c 	mrc	15, 0, lr, cr15, cr12, {1}
    84f8:	ee1fcf3c 	mrc	15, 0, ip, cr15, cr12, {1}
    84fc:	e04cc00e 	sub	ip, ip, lr
    8500:	e35c005e 	cmp	ip, #94, 0	; 0x5e
    8504:	9afffffb 	bls	84f8 <neopix_sendpixel+0x108>
    8508:	e5820028 	str	r0, [r2, #40]	; 0x28
    850c:	ee1fef3c 	mrc	15, 0, lr, cr15, cr12, {1}
    8510:	ee1fcf3c 	mrc	15, 0, ip, cr15, cr12, {1}
    8514:	e04cc00e 	sub	ip, ip, lr
    8518:	e35c0e1e 	cmp	ip, #480	; 0x1e0
    851c:	3afffffb 	bcc	8510 <neopix_sendpixel+0x120>
    8520:	e2511001 	subs	r1, r1, #1, 0
    8524:	38bd8030 	popcc	{r4, r5, pc}
    8528:	eaffffed 	b	84e4 <neopix_sendpixel+0xf4>
    852c:	ee1f4f3c 	mrc	15, 0, r4, cr15, cr12, {1}
    8530:	ee1fef3c 	mrc	15, 0, lr, cr15, cr12, {1}
    8534:	e04ee004 	sub	lr, lr, r4
    8538:	e35e005e 	cmp	lr, #94, 0	; 0x5e
    853c:	9afffffb 	bls	8530 <neopix_sendpixel+0x140>
    8540:	e5820028 	str	r0, [r2, #40]	; 0x28
    8544:	ee1f4f3c 	mrc	15, 0, r4, cr15, cr12, {1}
    8548:	ee1fef3c 	mrc	15, 0, lr, cr15, cr12, {1}
    854c:	e04ee004 	sub	lr, lr, r4
    8550:	e35e0e1e 	cmp	lr, #480	; 0x1e0
    8554:	3afffffb 	bcc	8548 <neopix_sendpixel+0x158>
    8558:	e25cc001 	subs	ip, ip, #1, 0
    855c:	2affffbc 	bcs	8454 <neopix_sendpixel+0x64>
    8560:	eaffffcc 	b	8498 <neopix_sendpixel+0xa8>
    8564:	ee1f5f3c 	mrc	15, 0, r5, cr15, cr12, {1}
    8568:	ee1f4f3c 	mrc	15, 0, r4, cr15, cr12, {1}
    856c:	e0444005 	sub	r4, r4, r5
    8570:	e354005e 	cmp	r4, #94, 0	; 0x5e
    8574:	9afffffb 	bls	8568 <neopix_sendpixel+0x178>
    8578:	e58c0028 	str	r0, [ip, #40]	; 0x28
    857c:	ee1f5f3c 	mrc	15, 0, r5, cr15, cr12, {1}
    8580:	ee1f4f3c 	mrc	15, 0, r4, cr15, cr12, {1}
    8584:	e0444005 	sub	r4, r4, r5
    8588:	e3540e1e 	cmp	r4, #480	; 0x1e0
    858c:	3afffffb 	bcc	8580 <neopix_sendpixel+0x190>
    8590:	e25ee001 	subs	lr, lr, #1, 0
    8594:	2affff9b 	bcs	8408 <neopix_sendpixel+0x18>
    8598:	eaffffab 	b	844c <neopix_sendpixel+0x5c>
    859c:	20200000 	eorcs	r0, r0, r0

000085a0 <neopix_fast_clear>:
    85a0:	e3510000 	cmp	r1, #0, 0
    85a4:	0a000037 	beq	8688 <neopix_fast_clear+0xe8>
    85a8:	e3a0c001 	mov	ip, #1, 0
    85ac:	e92d4030 	push	{r4, r5, lr}
    85b0:	e3a0e000 	mov	lr, #0, 0
    85b4:	e5d03000 	ldrb	r3, [r0]
    85b8:	e59f20cc 	ldr	r2, [pc, #204]	; 868c <neopix_fast_clear+0xec>
    85bc:	e1a0331c 	lsl	r3, ip, r3
    85c0:	e3a04008 	mov	r4, #8, 0
    85c4:	e582301c 	str	r3, [r2, #28]
    85c8:	ee1f5f3c 	mrc	15, 0, r5, cr15, cr12, {1}
    85cc:	ee1fcf3c 	mrc	15, 0, ip, cr15, cr12, {1}
    85d0:	e04cc005 	sub	ip, ip, r5
    85d4:	e35c005e 	cmp	ip, #94, 0	; 0x5e
    85d8:	9afffffb 	bls	85cc <neopix_fast_clear+0x2c>
    85dc:	e5823028 	str	r3, [r2, #40]	; 0x28
    85e0:	ee1f5f3c 	mrc	15, 0, r5, cr15, cr12, {1}
    85e4:	ee1fcf3c 	mrc	15, 0, ip, cr15, cr12, {1}
    85e8:	e04cc005 	sub	ip, ip, r5
    85ec:	e35c0e1e 	cmp	ip, #480	; 0x1e0
    85f0:	3afffffb 	bcc	85e4 <neopix_fast_clear+0x44>
    85f4:	e2544001 	subs	r4, r4, #1, 0
    85f8:	1afffff1 	bne	85c4 <neopix_fast_clear+0x24>
    85fc:	e3a04008 	mov	r4, #8, 0
    8600:	e582301c 	str	r3, [r2, #28]
    8604:	ee1f5f3c 	mrc	15, 0, r5, cr15, cr12, {1}
    8608:	ee1fcf3c 	mrc	15, 0, ip, cr15, cr12, {1}
    860c:	e04cc005 	sub	ip, ip, r5
    8610:	e35c005e 	cmp	ip, #94, 0	; 0x5e
    8614:	9afffffb 	bls	8608 <neopix_fast_clear+0x68>
    8618:	e5823028 	str	r3, [r2, #40]	; 0x28
    861c:	ee1f5f3c 	mrc	15, 0, r5, cr15, cr12, {1}
    8620:	ee1fcf3c 	mrc	15, 0, ip, cr15, cr12, {1}
    8624:	e04cc005 	sub	ip, ip, r5
    8628:	e35c0e1e 	cmp	ip, #480	; 0x1e0
    862c:	3afffffb 	bcc	8620 <neopix_fast_clear+0x80>
    8630:	e2544001 	subs	r4, r4, #1, 0
    8634:	1afffff1 	bne	8600 <neopix_fast_clear+0x60>
    8638:	e3a04008 	mov	r4, #8, 0
    863c:	e582301c 	str	r3, [r2, #28]
    8640:	ee1f5f3c 	mrc	15, 0, r5, cr15, cr12, {1}
    8644:	ee1fcf3c 	mrc	15, 0, ip, cr15, cr12, {1}
    8648:	e04cc005 	sub	ip, ip, r5
    864c:	e35c005e 	cmp	ip, #94, 0	; 0x5e
    8650:	9afffffb 	bls	8644 <neopix_fast_clear+0xa4>
    8654:	e5823028 	str	r3, [r2, #40]	; 0x28
    8658:	ee1f5f3c 	mrc	15, 0, r5, cr15, cr12, {1}
    865c:	ee1fcf3c 	mrc	15, 0, ip, cr15, cr12, {1}
    8660:	e04cc005 	sub	ip, ip, r5
    8664:	e35c0e1e 	cmp	ip, #480	; 0x1e0
    8668:	3afffffb 	bcc	865c <neopix_fast_clear+0xbc>
    866c:	e2544001 	subs	r4, r4, #1, 0
    8670:	1afffff1 	bne	863c <neopix_fast_clear+0x9c>
    8674:	e28ee001 	add	lr, lr, #1, 0
    8678:	e15e0001 	cmp	lr, r1
    867c:	1affffcf 	bne	85c0 <neopix_fast_clear+0x20>
    8680:	e8bd4030 	pop	{r4, r5, lr}
    8684:	eafffeba 	b	8174 <neopix_flush>
    8688:	eafffeb9 	b	8174 <neopix_flush>
    868c:	20200000 	eorcs	r0, r0, r0

00008690 <neopix_clear>:
    8690:	e92d4030 	push	{r4, r5, lr}
    8694:	e5904004 	ldr	r4, [r0, #4]
    8698:	e3540000 	cmp	r4, #0, 0
    869c:	0a000034 	beq	8774 <neopix_clear+0xe4>
    86a0:	e3a01001 	mov	r1, #1, 0
    86a4:	e3a0e000 	mov	lr, #0, 0
    86a8:	e5d03000 	ldrb	r3, [r0]
    86ac:	e59f20c8 	ldr	r2, [pc, #200]	; 877c <neopix_clear+0xec>
    86b0:	e1a03311 	lsl	r3, r1, r3
    86b4:	e3a01008 	mov	r1, #8, 0
    86b8:	e582301c 	str	r3, [r2, #28]
    86bc:	ee1f5f3c 	mrc	15, 0, r5, cr15, cr12, {1}
    86c0:	ee1fcf3c 	mrc	15, 0, ip, cr15, cr12, {1}
    86c4:	e04cc005 	sub	ip, ip, r5
    86c8:	e35c005e 	cmp	ip, #94, 0	; 0x5e
    86cc:	9afffffb 	bls	86c0 <neopix_clear+0x30>
    86d0:	e5823028 	str	r3, [r2, #40]	; 0x28
    86d4:	ee1f5f3c 	mrc	15, 0, r5, cr15, cr12, {1}
    86d8:	ee1fcf3c 	mrc	15, 0, ip, cr15, cr12, {1}
    86dc:	e04cc005 	sub	ip, ip, r5
    86e0:	e35c0e1e 	cmp	ip, #480	; 0x1e0
    86e4:	3afffffb 	bcc	86d8 <neopix_clear+0x48>
    86e8:	e2511001 	subs	r1, r1, #1, 0
    86ec:	1afffff1 	bne	86b8 <neopix_clear+0x28>
    86f0:	e3a01008 	mov	r1, #8, 0
    86f4:	e582301c 	str	r3, [r2, #28]
    86f8:	ee1f5f3c 	mrc	15, 0, r5, cr15, cr12, {1}
    86fc:	ee1fcf3c 	mrc	15, 0, ip, cr15, cr12, {1}
    8700:	e04cc005 	sub	ip, ip, r5
    8704:	e35c005e 	cmp	ip, #94, 0	; 0x5e
    8708:	9afffffb 	bls	86fc <neopix_clear+0x6c>
    870c:	e5823028 	str	r3, [r2, #40]	; 0x28
    8710:	ee1f5f3c 	mrc	15, 0, r5, cr15, cr12, {1}
    8714:	ee1fcf3c 	mrc	15, 0, ip, cr15, cr12, {1}
    8718:	e04cc005 	sub	ip, ip, r5
    871c:	e35c0e1e 	cmp	ip, #480	; 0x1e0
    8720:	3afffffb 	bcc	8714 <neopix_clear+0x84>
    8724:	e2511001 	subs	r1, r1, #1, 0
    8728:	1afffff1 	bne	86f4 <neopix_clear+0x64>
    872c:	e3a01008 	mov	r1, #8, 0
    8730:	e582301c 	str	r3, [r2, #28]
    8734:	ee1f5f3c 	mrc	15, 0, r5, cr15, cr12, {1}
    8738:	ee1fcf3c 	mrc	15, 0, ip, cr15, cr12, {1}
    873c:	e04cc005 	sub	ip, ip, r5
    8740:	e35c005e 	cmp	ip, #94, 0	; 0x5e
    8744:	9afffffb 	bls	8738 <neopix_clear+0xa8>
    8748:	e5823028 	str	r3, [r2, #40]	; 0x28
    874c:	ee1f5f3c 	mrc	15, 0, r5, cr15, cr12, {1}
    8750:	ee1fcf3c 	mrc	15, 0, ip, cr15, cr12, {1}
    8754:	e04cc005 	sub	ip, ip, r5
    8758:	e35c0e1e 	cmp	ip, #480	; 0x1e0
    875c:	3afffffb 	bcc	8750 <neopix_clear+0xc0>
    8760:	e2511001 	subs	r1, r1, #1, 0
    8764:	1afffff1 	bne	8730 <neopix_clear+0xa0>
    8768:	e28ee001 	add	lr, lr, #1, 0
    876c:	e15e0004 	cmp	lr, r4
    8770:	1affffcf 	bne	86b4 <neopix_clear+0x24>
    8774:	e8bd4030 	pop	{r4, r5, lr}
    8778:	eafffe7d 	b	8174 <neopix_flush>
    877c:	20200000 	eorcs	r0, r0, r0

00008780 <neopix_write>:
    8780:	e590c004 	ldr	ip, [r0, #4]
    8784:	e15c0001 	cmp	ip, r1
    8788:	80811081 	addhi	r1, r1, r1, lsl #1
    878c:	e5ddc000 	ldrb	ip, [sp]
    8790:	80800001 	addhi	r0, r0, r1
    8794:	85c02008 	strbhi	r2, [r0, #8]
    8798:	85c03009 	strbhi	r3, [r0, #9]
    879c:	85c0c00a 	strbhi	ip, [r0, #10]
    87a0:	e12fff1e 	bx	lr

000087a4 <gpio_set_function>:
    87a4:	e350001f 	cmp	r0, #31, 0
    87a8:	812fff1e 	bxhi	lr
    87ac:	e92d4070 	push	{r4, r5, r6, lr}
    87b0:	e1a05001 	mov	r5, r1
    87b4:	e3d13007 	bics	r3, r1, #7, 0
    87b8:	18bd8070 	popne	{r4, r5, r6, pc}
    87bc:	e59f3040 	ldr	r3, [pc, #64]	; 8804 <gpio_set_function+0x60>
    87c0:	e0832093 	umull	r2, r3, r3, r0
    87c4:	e1a031a3 	lsr	r3, r3, #3
    87c8:	e1a02003 	mov	r2, r3
    87cc:	e0833103 	add	r3, r3, r3, lsl #2
    87d0:	e0403083 	sub	r3, r0, r3, lsl #1
    87d4:	e0834083 	add	r4, r3, r3, lsl #1
    87d8:	e2820302 	add	r0, r2, #134217728	; 0x8000000
    87dc:	e2800702 	add	r0, r0, #524288	; 0x80000
    87e0:	e1a06100 	lsl	r6, r0, #2
    87e4:	e1a00006 	mov	r0, r6
    87e8:	ebfffe0f 	bl	802c <GET32>
    87ec:	e3a01007 	mov	r1, #7, 0
    87f0:	e1c01411 	bic	r1, r0, r1, lsl r4
    87f4:	e1811415 	orr	r1, r1, r5, lsl r4
    87f8:	e1a00006 	mov	r0, r6
    87fc:	ebfffe08 	bl	8024 <PUT32>
    8800:	e8bd8070 	pop	{r4, r5, r6, pc}
    8804:	cccccccd 	stclgt	12, cr12, [ip], {205}	; 0xcd

00008808 <gpio_set_output>:
    8808:	e92d4010 	push	{r4, lr}
    880c:	e3a01001 	mov	r1, #1, 0
    8810:	ebffffe3 	bl	87a4 <gpio_set_function>
    8814:	e8bd8010 	pop	{r4, pc}

00008818 <gpio_set_on>:
    8818:	e350001f 	cmp	r0, #31, 0
    881c:	812fff1e 	bxhi	lr
    8820:	e92d4010 	push	{r4, lr}
    8824:	e3a01001 	mov	r1, #1, 0
    8828:	e1a01011 	lsl	r1, r1, r0
    882c:	e59f0004 	ldr	r0, [pc, #4]	; 8838 <gpio_set_on+0x20>
    8830:	ebfffdfb 	bl	8024 <PUT32>
    8834:	e8bd8010 	pop	{r4, pc}
    8838:	2020001c 	eorcs	r0, r0, ip, lsl r0

0000883c <gpio_set_off>:
    883c:	e350001f 	cmp	r0, #31, 0
    8840:	812fff1e 	bxhi	lr
    8844:	e92d4010 	push	{r4, lr}
    8848:	e3a01001 	mov	r1, #1, 0
    884c:	e1a01011 	lsl	r1, r1, r0
    8850:	e59f0004 	ldr	r0, [pc, #4]	; 885c <gpio_set_off+0x20>
    8854:	ebfffdf2 	bl	8024 <PUT32>
    8858:	e8bd8010 	pop	{r4, pc}
    885c:	20200028 	eorcs	r0, r0, r8, lsr #32

00008860 <gpio_set_input>:
    8860:	e92d4010 	push	{r4, lr}
    8864:	e3a01000 	mov	r1, #0, 0
    8868:	ebffffcd 	bl	87a4 <gpio_set_function>
    886c:	e8bd8010 	pop	{r4, pc}

00008870 <gpio_write>:
    8870:	e92d4010 	push	{r4, lr}
    8874:	e3510000 	cmp	r1, #0, 0
    8878:	0a000001 	beq	8884 <gpio_write+0x14>
    887c:	ebffffe5 	bl	8818 <gpio_set_on>
    8880:	e8bd8010 	pop	{r4, pc}
    8884:	ebffffec 	bl	883c <gpio_set_off>
    8888:	e8bd8010 	pop	{r4, pc}

0000888c <gpio_read>:
    888c:	e350001f 	cmp	r0, #31, 0
    8890:	8a000007 	bhi	88b4 <gpio_read+0x28>
    8894:	e92d4010 	push	{r4, lr}
    8898:	e200401f 	and	r4, r0, #31, 0
    889c:	e59f3018 	ldr	r3, [pc, #24]	; 88bc <gpio_read+0x30>
    88a0:	e08302a0 	add	r0, r3, r0, lsr #5
    88a4:	ebfffde0 	bl	802c <GET32>
    88a8:	e1a00430 	lsr	r0, r0, r4
    88ac:	e2000001 	and	r0, r0, #1, 0
    88b0:	e8bd8010 	pop	{r4, pc}
    88b4:	e3e00000 	mvn	r0, #0, 0
    88b8:	e12fff1e 	bx	lr
    88bc:	20200034 	eorcs	r0, r0, r4, lsr r0

000088c0 <kmalloc>:
    88c0:	e52de004 	push	{lr}		; (str lr, [sp, #-4]!)
    88c4:	e24dd00c 	sub	sp, sp, #12, 0
    88c8:	e3500000 	cmp	r0, #0, 0
    88cc:	0a000011 	beq	8918 <kmalloc+0x58>
    88d0:	e59f30cc 	ldr	r3, [pc, #204]	; 89a4 <kmalloc+0xe4>
    88d4:	e5933000 	ldr	r3, [r3]
    88d8:	e3530000 	cmp	r3, #0, 0
    88dc:	0a000015 	beq	8938 <kmalloc+0x78>
    88e0:	e2800003 	add	r0, r0, #3, 0
    88e4:	e3c03003 	bic	r3, r0, #3, 0
    88e8:	e59f20b4 	ldr	r2, [pc, #180]	; 89a4 <kmalloc+0xe4>
    88ec:	e5920004 	ldr	r0, [r2, #4]
    88f0:	e3100003 	tst	r0, #3, 0
    88f4:	1a000018 	bne	895c <kmalloc+0x9c>
    88f8:	e0803003 	add	r3, r0, r3
    88fc:	e59f20a0 	ldr	r2, [pc, #160]	; 89a4 <kmalloc+0xe4>
    8900:	e5823004 	str	r3, [r2, #4]
    8904:	e5922008 	ldr	r2, [r2, #8]
    8908:	e1530002 	cmp	r3, r2
    890c:	8a00001b 	bhi	8980 <kmalloc+0xc0>
    8910:	e28dd00c 	add	sp, sp, #12, 0
    8914:	e49df004 	pop	{pc}		; (ldr pc, [sp], #4)
    8918:	e59f3088 	ldr	r3, [pc, #136]	; 89a8 <kmalloc+0xe8>
    891c:	e58d3000 	str	r3, [sp]
    8920:	e3a03036 	mov	r3, #54, 0	; 0x36
    8924:	e59f2080 	ldr	r2, [pc, #128]	; 89ac <kmalloc+0xec>
    8928:	e59f1080 	ldr	r1, [pc, #128]	; 89b0 <kmalloc+0xf0>
    892c:	e59f0080 	ldr	r0, [pc, #128]	; 89b4 <kmalloc+0xf4>
    8930:	eb0000b4 	bl	8c08 <printk>
    8934:	eb0002bd 	bl	9430 <clean_reboot>
    8938:	eb0000cd 	bl	8c74 <rpi_reset_putc>
    893c:	e59f3074 	ldr	r3, [pc, #116]	; 89b8 <kmalloc+0xf8>
    8940:	e58d3000 	str	r3, [sp]
    8944:	e3a03037 	mov	r3, #55, 0	; 0x37
    8948:	e59f205c 	ldr	r2, [pc, #92]	; 89ac <kmalloc+0xec>
    894c:	e59f105c 	ldr	r1, [pc, #92]	; 89b0 <kmalloc+0xf0>
    8950:	e59f0064 	ldr	r0, [pc, #100]	; 89bc <kmalloc+0xfc>
    8954:	eb0000ab 	bl	8c08 <printk>
    8958:	eb0002b4 	bl	9430 <clean_reboot>
    895c:	eb0000c4 	bl	8c74 <rpi_reset_putc>
    8960:	e59f3058 	ldr	r3, [pc, #88]	; 89c0 <kmalloc+0x100>
    8964:	e58d3000 	str	r3, [sp]
    8968:	e3a03039 	mov	r3, #57, 0	; 0x39
    896c:	e59f2038 	ldr	r2, [pc, #56]	; 89ac <kmalloc+0xec>
    8970:	e59f1038 	ldr	r1, [pc, #56]	; 89b0 <kmalloc+0xf0>
    8974:	e59f0048 	ldr	r0, [pc, #72]	; 89c4 <kmalloc+0x104>
    8978:	eb0000a2 	bl	8c08 <printk>
    897c:	eb0002ab 	bl	9430 <clean_reboot>
    8980:	eb0000bb 	bl	8c74 <rpi_reset_putc>
    8984:	e59f303c 	ldr	r3, [pc, #60]	; 89c8 <kmalloc+0x108>
    8988:	e58d3000 	str	r3, [sp]
    898c:	e3a0303c 	mov	r3, #60, 0	; 0x3c
    8990:	e59f2014 	ldr	r2, [pc, #20]	; 89ac <kmalloc+0xec>
    8994:	e59f1014 	ldr	r1, [pc, #20]	; 89b0 <kmalloc+0xf0>
    8998:	e59f002c 	ldr	r0, [pc, #44]	; 89cc <kmalloc+0x10c>
    899c:	eb000099 	bl	8c08 <printk>
    89a0:	eb0002a2 	bl	9430 <clean_reboot>
    89a4:	00009bdc 	ldrdeq	r9, [r0], -ip
    89a8:	00009890 	muleq	r0, r0, r8
    89ac:	00009a28 	andeq	r9, r0, r8, lsr #20
    89b0:	0000986c 	andeq	r9, r0, ip, ror #16
    89b4:	0000987c 	andeq	r9, r0, ip, ror r8
    89b8:	000098d4 	ldrdeq	r9, [r0], -r4
    89bc:	00009898 	muleq	r0, r8, r8
    89c0:	00009924 	andeq	r9, r0, r4, lsr #18
    89c4:	000098dc 	ldrdeq	r9, [r0], -ip
    89c8:	00009980 	andeq	r9, r0, r0, lsl #19
    89cc:	0000993c 	andeq	r9, r0, ip, lsr r9

000089d0 <kmalloc_aligned>:
    89d0:	e52de004 	push	{lr}		; (str lr, [sp, #-4]!)
    89d4:	e24dd00c 	sub	sp, sp, #12, 0
    89d8:	e3500000 	cmp	r0, #0, 0
    89dc:	0a000018 	beq	8a44 <kmalloc_aligned+0x74>
    89e0:	e59f30f4 	ldr	r3, [pc, #244]	; 8adc <kmalloc_aligned+0x10c>
    89e4:	e5933000 	ldr	r3, [r3]
    89e8:	e3530000 	cmp	r3, #0, 0
    89ec:	0a00001c 	beq	8a64 <kmalloc_aligned+0x94>
    89f0:	e2613000 	rsb	r3, r1, #0, 0
    89f4:	e1d13003 	bics	r3, r1, r3
    89f8:	1a000022 	bne	8a88 <kmalloc_aligned+0xb8>
    89fc:	e3510004 	cmp	r1, #4, 0
    8a00:	9a000029 	bls	8aac <kmalloc_aligned+0xdc>
    8a04:	e59f30d0 	ldr	r3, [pc, #208]	; 8adc <kmalloc_aligned+0x10c>
    8a08:	e5933004 	ldr	r3, [r3, #4]
    8a0c:	e2412001 	sub	r2, r1, #1, 0
    8a10:	e1130002 	tst	r3, r2
    8a14:	0a000026 	beq	8ab4 <kmalloc_aligned+0xe4>
    8a18:	e2612000 	rsb	r2, r1, #0, 0
    8a1c:	e1d1c002 	bics	ip, r1, r2
    8a20:	1a000025 	bne	8abc <kmalloc_aligned+0xec>
    8a24:	e0831001 	add	r1, r3, r1
    8a28:	e2411001 	sub	r1, r1, #1, 0
    8a2c:	e0011002 	and	r1, r1, r2
    8a30:	e59f30a4 	ldr	r3, [pc, #164]	; 8adc <kmalloc_aligned+0x10c>
    8a34:	e5831004 	str	r1, [r3, #4]
    8a38:	ebffffa0 	bl	88c0 <kmalloc>
    8a3c:	e28dd00c 	add	sp, sp, #12, 0
    8a40:	e49df004 	pop	{pc}		; (ldr pc, [sp], #4)
    8a44:	e59f3094 	ldr	r3, [pc, #148]	; 8ae0 <kmalloc_aligned+0x110>
    8a48:	e58d3000 	str	r3, [sp]
    8a4c:	e3a03046 	mov	r3, #70, 0	; 0x46
    8a50:	e59f208c 	ldr	r2, [pc, #140]	; 8ae4 <kmalloc_aligned+0x114>
    8a54:	e59f108c 	ldr	r1, [pc, #140]	; 8ae8 <kmalloc_aligned+0x118>
    8a58:	e59f008c 	ldr	r0, [pc, #140]	; 8aec <kmalloc_aligned+0x11c>
    8a5c:	eb000069 	bl	8c08 <printk>
    8a60:	eb000272 	bl	9430 <clean_reboot>
    8a64:	eb000082 	bl	8c74 <rpi_reset_putc>
    8a68:	e59f3080 	ldr	r3, [pc, #128]	; 8af0 <kmalloc_aligned+0x120>
    8a6c:	e58d3000 	str	r3, [sp]
    8a70:	e3a03047 	mov	r3, #71, 0	; 0x47
    8a74:	e59f2068 	ldr	r2, [pc, #104]	; 8ae4 <kmalloc_aligned+0x114>
    8a78:	e59f1068 	ldr	r1, [pc, #104]	; 8ae8 <kmalloc_aligned+0x118>
    8a7c:	e59f0070 	ldr	r0, [pc, #112]	; 8af4 <kmalloc_aligned+0x124>
    8a80:	eb000060 	bl	8c08 <printk>
    8a84:	eb000269 	bl	9430 <clean_reboot>
    8a88:	eb000079 	bl	8c74 <rpi_reset_putc>
    8a8c:	e59f3064 	ldr	r3, [pc, #100]	; 8af8 <kmalloc_aligned+0x128>
    8a90:	e58d3000 	str	r3, [sp]
    8a94:	e3a03048 	mov	r3, #72, 0	; 0x48
    8a98:	e59f2044 	ldr	r2, [pc, #68]	; 8ae4 <kmalloc_aligned+0x114>
    8a9c:	e59f1044 	ldr	r1, [pc, #68]	; 8ae8 <kmalloc_aligned+0x118>
    8aa0:	e59f0054 	ldr	r0, [pc, #84]	; 8afc <kmalloc_aligned+0x12c>
    8aa4:	eb000057 	bl	8c08 <printk>
    8aa8:	eb000260 	bl	9430 <clean_reboot>
    8aac:	ebffff83 	bl	88c0 <kmalloc>
    8ab0:	eaffffe1 	b	8a3c <kmalloc_aligned+0x6c>
    8ab4:	ebffff81 	bl	88c0 <kmalloc>
    8ab8:	eaffffdf 	b	8a3c <kmalloc_aligned+0x6c>
    8abc:	e59f303c 	ldr	r3, [pc, #60]	; 8b00 <kmalloc_aligned+0x130>
    8ac0:	e58d3000 	str	r3, [sp]
    8ac4:	e3a03024 	mov	r3, #36, 0	; 0x24
    8ac8:	e59f2034 	ldr	r2, [pc, #52]	; 8b04 <kmalloc_aligned+0x134>
    8acc:	e59f1014 	ldr	r1, [pc, #20]	; 8ae8 <kmalloc_aligned+0x118>
    8ad0:	e59f0014 	ldr	r0, [pc, #20]	; 8aec <kmalloc_aligned+0x11c>
    8ad4:	eb00004b 	bl	8c08 <printk>
    8ad8:	eb000254 	bl	9430 <clean_reboot>
    8adc:	00009bdc 	ldrdeq	r9, [r0], -ip
    8ae0:	00009890 	muleq	r0, r0, r8
    8ae4:	00009a30 	andeq	r9, r0, r0, lsr sl
    8ae8:	0000986c 	andeq	r9, r0, ip, ror #16
    8aec:	0000987c 	andeq	r9, r0, ip, ror r8
    8af0:	000098d4 	ldrdeq	r9, [r0], -r4
    8af4:	00009898 	muleq	r0, r8, r8
    8af8:	000099cc 	andeq	r9, r0, ip, asr #19
    8afc:	00009998 	muleq	r0, r8, r9
    8b00:	000099e0 	andeq	r9, r0, r0, ror #19
    8b04:	00009a40 	andeq	r9, r0, r0, asr #20

00008b08 <kmalloc_init_set_start>:
    8b08:	e59f305c 	ldr	r3, [pc, #92]	; 8b6c <kmalloc_init_set_start+0x64>
    8b0c:	e5933000 	ldr	r3, [r3]
    8b10:	e3530000 	cmp	r3, #0, 0
    8b14:	1a000009 	bne	8b40 <kmalloc_init_set_start+0x38>
    8b18:	e59f304c 	ldr	r3, [pc, #76]	; 8b6c <kmalloc_init_set_start+0x64>
    8b1c:	e3a02001 	mov	r2, #1, 0
    8b20:	e5832000 	str	r2, [r3]
    8b24:	e2802003 	add	r2, r0, #3, 0
    8b28:	e3c22003 	bic	r2, r2, #3, 0
    8b2c:	e583200c 	str	r2, [r3, #12]
    8b30:	e5832004 	str	r2, [r3, #4]
    8b34:	e0800001 	add	r0, r0, r1
    8b38:	e5830008 	str	r0, [r3, #8]
    8b3c:	e12fff1e 	bx	lr
    8b40:	e52de004 	push	{lr}		; (str lr, [sp, #-4]!)
    8b44:	e24dd00c 	sub	sp, sp, #12, 0
    8b48:	eb000049 	bl	8c74 <rpi_reset_putc>
    8b4c:	e59f301c 	ldr	r3, [pc, #28]	; 8b70 <kmalloc_init_set_start+0x68>
    8b50:	e58d3000 	str	r3, [sp]
    8b54:	e3a03057 	mov	r3, #87, 0	; 0x57
    8b58:	e59f2014 	ldr	r2, [pc, #20]	; 8b74 <kmalloc_init_set_start+0x6c>
    8b5c:	e59f1014 	ldr	r1, [pc, #20]	; 8b78 <kmalloc_init_set_start+0x70>
    8b60:	e59f0014 	ldr	r0, [pc, #20]	; 8b7c <kmalloc_init_set_start+0x74>
    8b64:	eb000027 	bl	8c08 <printk>
    8b68:	eb000230 	bl	9430 <clean_reboot>
    8b6c:	00009bdc 	ldrdeq	r9, [r0], -ip
    8b70:	00009a20 	andeq	r9, r0, r0, lsr #20
    8b74:	00009a48 	andeq	r9, r0, r8, asr #20
    8b78:	0000986c 	andeq	r9, r0, ip, ror #16
    8b7c:	000099ec 	andeq	r9, r0, ip, ror #19

00008b80 <kmalloc_init>:
    8b80:	e59f301c 	ldr	r3, [pc, #28]	; 8ba4 <kmalloc_init+0x24>
    8b84:	e5933000 	ldr	r3, [r3]
    8b88:	e3530000 	cmp	r3, #0, 0
    8b8c:	112fff1e 	bxne	lr
    8b90:	e92d4010 	push	{r4, lr}
    8b94:	e3a01201 	mov	r1, #268435456	; 0x10000000
    8b98:	e59f0008 	ldr	r0, [pc, #8]	; 8ba8 <kmalloc_init+0x28>
    8b9c:	ebffffd9 	bl	8b08 <kmalloc_init_set_start>
    8ba0:	e8bd8010 	pop	{r4, pc}
    8ba4:	00009bdc 	ldrdeq	r9, [r0], -ip
    8ba8:	00009ff0 	strdeq	r9, [r0], -r0

00008bac <kfree_all>:
    8bac:	e59f3008 	ldr	r3, [pc, #8]	; 8bbc <kfree_all+0x10>
    8bb0:	e593200c 	ldr	r2, [r3, #12]
    8bb4:	e5832004 	str	r2, [r3, #4]
    8bb8:	e12fff1e 	bx	lr
    8bbc:	00009bdc 	ldrdeq	r9, [r0], -ip

00008bc0 <kmalloc_heap_start>:
    8bc0:	e59f3004 	ldr	r3, [pc, #4]	; 8bcc <kmalloc_heap_start+0xc>
    8bc4:	e593000c 	ldr	r0, [r3, #12]
    8bc8:	e12fff1e 	bx	lr
    8bcc:	00009bdc 	ldrdeq	r9, [r0], -ip

00008bd0 <kmalloc_heap_end>:
    8bd0:	e59f3004 	ldr	r3, [pc, #4]	; 8bdc <kmalloc_heap_end+0xc>
    8bd4:	e5930008 	ldr	r0, [r3, #8]
    8bd8:	e12fff1e 	bx	lr
    8bdc:	00009bdc 	ldrdeq	r9, [r0], -ip

00008be0 <kmalloc_heap_ptr>:
    8be0:	e59f3004 	ldr	r3, [pc, #4]	; 8bec <kmalloc_heap_ptr+0xc>
    8be4:	e5930004 	ldr	r0, [r3, #4]
    8be8:	e12fff1e 	bx	lr
    8bec:	00009bdc 	ldrdeq	r9, [r0], -ip

00008bf0 <memset>:
    8bf0:	e0802002 	add	r2, r0, r2
    8bf4:	e1a03000 	mov	r3, r0
    8bf8:	e1530002 	cmp	r3, r2
    8bfc:	212fff1e 	bxcs	lr
    8c00:	e4c31001 	strb	r1, [r3], #1
    8c04:	eafffffb 	b	8bf8 <memset+0x8>

00008c08 <printk>:
    8c08:	e92d000f 	push	{r0, r1, r2, r3}
    8c0c:	e92d4030 	push	{r4, r5, lr}
    8c10:	e24dd00c 	sub	sp, sp, #12, 0
    8c14:	e28d301c 	add	r3, sp, #28, 0
    8c18:	e58d3004 	str	r3, [sp, #4]
    8c1c:	e59f5034 	ldr	r5, [pc, #52]	; 8c58 <printk+0x50>
    8c20:	e59d2018 	ldr	r2, [sp, #24]
    8c24:	e3a01b01 	mov	r1, #1024	; 0x400
    8c28:	e1a00005 	mov	r0, r5
    8c2c:	eb0000c9 	bl	8f58 <va_printk>
    8c30:	e1a04000 	mov	r4, r0
    8c34:	e59f3020 	ldr	r3, [pc, #32]	; 8c5c <printk+0x54>
    8c38:	e5933000 	ldr	r3, [r3]
    8c3c:	e1a00005 	mov	r0, r5
    8c40:	e12fff33 	blx	r3
    8c44:	e1a00004 	mov	r0, r4
    8c48:	e28dd00c 	add	sp, sp, #12, 0
    8c4c:	e8bd4030 	pop	{r4, r5, lr}
    8c50:	e28dd010 	add	sp, sp, #16, 0
    8c54:	e12fff1e 	bx	lr
    8c58:	00009bec 	andeq	r9, r0, ip, ror #23
    8c5c:	00009bd8 	ldrdeq	r9, [r0], -r8

00008c60 <internal_putchar>:
    8c60:	e92d4010 	push	{r4, lr}
    8c64:	e1a04000 	mov	r4, r0
    8c68:	eb0002a2 	bl	96f8 <uart_putc>
    8c6c:	e1a00004 	mov	r0, r4
    8c70:	e8bd8010 	pop	{r4, pc}

00008c74 <rpi_reset_putc>:
    8c74:	e59f3008 	ldr	r3, [pc, #8]	; 8c84 <rpi_reset_putc+0x10>
    8c78:	e59f2008 	ldr	r2, [pc, #8]	; 8c88 <rpi_reset_putc+0x14>
    8c7c:	e5832000 	str	r2, [r3]
    8c80:	e12fff1e 	bx	lr
    8c84:	00009bd4 	ldrdeq	r9, [r0], -r4
    8c88:	00008c60 	andeq	r8, r0, r0, ror #24

00008c8c <rpi_set_putc>:
    8c8c:	e59f3004 	ldr	r3, [pc, #4]	; 8c98 <rpi_set_putc+0xc>
    8c90:	e5830000 	str	r0, [r3]
    8c94:	e12fff1e 	bx	lr
    8c98:	00009bd4 	ldrdeq	r9, [r0], -r4

00008c9c <internal_putk>:
    8c9c:	e92d4010 	push	{r4, lr}
    8ca0:	e1a04000 	mov	r4, r0
    8ca4:	e5d40000 	ldrb	r0, [r4]
    8ca8:	e3500000 	cmp	r0, #0, 0
    8cac:	0a000004 	beq	8cc4 <internal_putk+0x28>
    8cb0:	e59f3014 	ldr	r3, [pc, #20]	; 8ccc <internal_putk+0x30>
    8cb4:	e5933000 	ldr	r3, [r3]
    8cb8:	e12fff33 	blx	r3
    8cbc:	e2844001 	add	r4, r4, #1, 0
    8cc0:	eafffff7 	b	8ca4 <internal_putk+0x8>
    8cc4:	e3a00001 	mov	r0, #1, 0
    8cc8:	e8bd8010 	pop	{r4, pc}
    8ccc:	00009bd4 	ldrdeq	r9, [r0], -r4

00008cd0 <isdigit>:
    8cd0:	e2400030 	sub	r0, r0, #48, 0	; 0x30
    8cd4:	e3500009 	cmp	r0, #9, 0
    8cd8:	83a00000 	movhi	r0, #0, 0
    8cdc:	93a00001 	movls	r0, #1, 0
    8ce0:	e12fff1e 	bx	lr

00008ce4 <pad>:
    8ce4:	e0401001 	sub	r1, r0, r1
    8ce8:	e1510002 	cmp	r1, r2
    8cec:	b3a03020 	movlt	r3, #32, 0
    8cf0:	b4c03001 	strblt	r3, [r0], #1
    8cf4:	b2811001 	addlt	r1, r1, #1, 0
    8cf8:	bafffffa 	blt	8ce8 <pad+0x4>
    8cfc:	e3a03000 	mov	r3, #0, 0
    8d00:	e5c03000 	strb	r3, [r0]
    8d04:	e12fff1e 	bx	lr

00008d08 <reverse>:
    8d08:	e042c003 	sub	ip, r2, r3
    8d0c:	e28cc001 	add	ip, ip, #1, 0
    8d10:	e15c0001 	cmp	ip, r1
    8d14:	c04cc001 	subgt	ip, ip, r1
    8d18:	c083300c 	addgt	r3, r3, ip
    8d1c:	e2421001 	sub	r1, r2, #1, 0
    8d20:	e1a02000 	mov	r2, r0
    8d24:	e1510003 	cmp	r1, r3
    8d28:	2451c001 	ldrbcs	ip, [r1], #-1
    8d2c:	24c2c001 	strbcs	ip, [r2], #1
    8d30:	2afffffb 	bcs	8d24 <reverse+0x1c>
    8d34:	e3a03000 	mov	r3, #0, 0
    8d38:	e5c23000 	strb	r3, [r2]
    8d3c:	e12fff1e 	bx	lr

00008d40 <emit>:
    8d40:	e92d40f0 	push	{r4, r5, r6, r7, lr}
    8d44:	e24dd04c 	sub	sp, sp, #76, 0	; 0x4c
    8d48:	e1a05001 	mov	r5, r1
    8d4c:	e1a04002 	mov	r4, r2
    8d50:	e59d2060 	ldr	r2, [sp, #96]	; 0x60
    8d54:	e1520004 	cmp	r2, r4
    8d58:	c2442001 	subgt	r2, r4, #1, 0
    8d5c:	e1a0c003 	mov	ip, r3
    8d60:	e2400002 	sub	r0, r0, #2, 0
    8d64:	e350000e 	cmp	r0, #14, 0
    8d68:	979ff100 	ldrls	pc, [pc, r0, lsl #2]
    8d6c:	ea000050 	b	8eb4 <emit+0x174>
    8d70:	00008e8c 	andeq	r8, r0, ip, lsl #29
    8d74:	00008eb4 			; <UNDEFINED> instruction: 0x00008eb4
    8d78:	00008eb4 			; <UNDEFINED> instruction: 0x00008eb4
    8d7c:	00008eb4 			; <UNDEFINED> instruction: 0x00008eb4
    8d80:	00008eb4 			; <UNDEFINED> instruction: 0x00008eb4
    8d84:	00008eb4 			; <UNDEFINED> instruction: 0x00008eb4
    8d88:	00008e80 	andeq	r8, r0, r0, lsl #29
    8d8c:	00008eb4 			; <UNDEFINED> instruction: 0x00008eb4
    8d90:	00008dac 	andeq	r8, r0, ip, lsr #27
    8d94:	00008eb4 			; <UNDEFINED> instruction: 0x00008eb4
    8d98:	00008eb4 			; <UNDEFINED> instruction: 0x00008eb4
    8d9c:	00008eb4 			; <UNDEFINED> instruction: 0x00008eb4
    8da0:	00008eb4 			; <UNDEFINED> instruction: 0x00008eb4
    8da4:	00008eb4 			; <UNDEFINED> instruction: 0x00008eb4
    8da8:	00008e24 	andeq	r8, r0, r4, lsr #28
    8dac:	e59d1064 	ldr	r1, [sp, #100]	; 0x64
    8db0:	e2511000 	subs	r1, r1, #0, 0
    8db4:	13a01001 	movne	r1, #1, 0
    8db8:	e0111fa3 	ands	r1, r1, r3, lsr #31
    8dbc:	0a000016 	beq	8e1c <emit+0xdc>
    8dc0:	e263c000 	rsb	ip, r3, #0, 0
    8dc4:	e3a06001 	mov	r6, #1, 0
    8dc8:	e28d0008 	add	r0, sp, #8, 0
    8dcc:	e59f3100 	ldr	r3, [pc, #256]	; 8ed4 <emit+0x194>
    8dd0:	e0831c93 	umull	r1, r3, r3, ip
    8dd4:	e1a031a3 	lsr	r3, r3, #3
    8dd8:	e1a0e003 	mov	lr, r3
    8ddc:	e0833103 	add	r3, r3, r3, lsl #2
    8de0:	e04c3083 	sub	r3, ip, r3, lsl #1
    8de4:	e1a01000 	mov	r1, r0
    8de8:	e2800001 	add	r0, r0, #1, 0
    8dec:	e59f70e4 	ldr	r7, [pc, #228]	; 8ed8 <emit+0x198>
    8df0:	e7d73003 	ldrb	r3, [r7, r3]
    8df4:	e5c13000 	strb	r3, [r1]
    8df8:	e1a0300c 	mov	r3, ip
    8dfc:	e1a0c00e 	mov	ip, lr
    8e00:	e3530009 	cmp	r3, #9, 0
    8e04:	8afffff0 	bhi	8dcc <emit+0x8c>
    8e08:	e3560000 	cmp	r6, #0, 0
    8e0c:	13a0302d 	movne	r3, #45, 0	; 0x2d
    8e10:	15c03000 	strbne	r3, [r0]
    8e14:	12810002 	addne	r0, r1, #2, 0
    8e18:	ea00000f 	b	8e5c <emit+0x11c>
    8e1c:	e3a06000 	mov	r6, #0, 0
    8e20:	eaffffe8 	b	8dc8 <emit+0x88>
    8e24:	e28d1008 	add	r1, sp, #8, 0
    8e28:	e20c000f 	and	r0, ip, #15, 0
    8e2c:	e59fe0a8 	ldr	lr, [pc, #168]	; 8edc <emit+0x19c>
    8e30:	e7de0000 	ldrb	r0, [lr, r0]
    8e34:	e5c10000 	strb	r0, [r1]
    8e38:	e2811001 	add	r1, r1, #1, 0
    8e3c:	e35c000f 	cmp	ip, #15, 0
    8e40:	e1a0c22c 	lsr	ip, ip, #4
    8e44:	8afffff7 	bhi	8e28 <emit+0xe8>
    8e48:	e1a00001 	mov	r0, r1
    8e4c:	e3a03078 	mov	r3, #120, 0	; 0x78
    8e50:	e4c03002 	strb	r3, [r0], #2
    8e54:	e3a03030 	mov	r3, #48, 0	; 0x30
    8e58:	e5c13001 	strb	r3, [r1, #1]
    8e5c:	e28d1008 	add	r1, sp, #8, 0
    8e60:	ebffff9f 	bl	8ce4 <pad>
    8e64:	e1a02000 	mov	r2, r0
    8e68:	e28d3008 	add	r3, sp, #8, 0
    8e6c:	e1a01004 	mov	r1, r4
    8e70:	e1a00005 	mov	r0, r5
    8e74:	ebffffa3 	bl	8d08 <reverse>
    8e78:	e28dd04c 	add	sp, sp, #76, 0	; 0x4c
    8e7c:	e8bd80f0 	pop	{r4, r5, r6, r7, pc}
    8e80:	e5cd3008 	strb	r3, [sp, #8]
    8e84:	e28d0009 	add	r0, sp, #9, 0
    8e88:	eafffff3 	b	8e5c <emit+0x11c>
    8e8c:	e28d0008 	add	r0, sp, #8, 0
    8e90:	e20c1001 	and	r1, ip, #1, 0
    8e94:	e59fe044 	ldr	lr, [pc, #68]	; 8ee0 <emit+0x1a0>
    8e98:	e7de1001 	ldrb	r1, [lr, r1]
    8e9c:	e5c01000 	strb	r1, [r0]
    8ea0:	e2800001 	add	r0, r0, #1, 0
    8ea4:	e35c0001 	cmp	ip, #1, 0
    8ea8:	e1a0c0ac 	lsr	ip, ip, #1
    8eac:	8afffff7 	bhi	8e90 <emit+0x150>
    8eb0:	eaffffe9 	b	8e5c <emit+0x11c>
    8eb4:	e59f3028 	ldr	r3, [pc, #40]	; 8ee4 <emit+0x1a4>
    8eb8:	e58d3000 	str	r3, [sp]
    8ebc:	e3a03079 	mov	r3, #121, 0	; 0x79
    8ec0:	e59f2020 	ldr	r2, [pc, #32]	; 8ee8 <emit+0x1a8>
    8ec4:	e59f1020 	ldr	r1, [pc, #32]	; 8eec <emit+0x1ac>
    8ec8:	e59f0020 	ldr	r0, [pc, #32]	; 8ef0 <emit+0x1b0>
    8ecc:	ebffff4d 	bl	8c08 <printk>
    8ed0:	eb000156 	bl	9430 <clean_reboot>
    8ed4:	cccccccd 	stclgt	12, cr12, [ip], {205}	; 0xcd
    8ed8:	00009a78 	andeq	r9, r0, r8, ror sl
    8edc:	00009a84 	andeq	r9, r0, r4, lsl #21
    8ee0:	00009a98 	muleq	r0, r8, sl
    8ee4:	00009a74 	andeq	r9, r0, r4, ror sl
    8ee8:	00009ba4 	andeq	r9, r0, r4, lsr #23
    8eec:	00009a60 	andeq	r9, r0, r0, ror #20
    8ef0:	0000987c 	andeq	r9, r0, ip, ror r8

00008ef4 <rpi_set_output>:
    8ef4:	e3500000 	cmp	r0, #0, 0
    8ef8:	0a000006 	beq	8f18 <rpi_set_output+0x24>
    8efc:	e59f303c 	ldr	r3, [pc, #60]	; 8f40 <rpi_set_output+0x4c>
    8f00:	e5830000 	str	r0, [r3]
    8f04:	e3510000 	cmp	r1, #0, 0
    8f08:	012fff1e 	bxeq	lr
    8f0c:	e59f3030 	ldr	r3, [pc, #48]	; 8f44 <rpi_set_output+0x50>
    8f10:	e5831000 	str	r1, [r3]
    8f14:	e12fff1e 	bx	lr
    8f18:	e52de004 	push	{lr}		; (str lr, [sp, #-4]!)
    8f1c:	e24dd00c 	sub	sp, sp, #12, 0
    8f20:	e59f3020 	ldr	r3, [pc, #32]	; 8f48 <rpi_set_output+0x54>
    8f24:	e58d3000 	str	r3, [sp]
    8f28:	e3a03020 	mov	r3, #32, 0
    8f2c:	e59f2018 	ldr	r2, [pc, #24]	; 8f4c <rpi_set_output+0x58>
    8f30:	e59f1018 	ldr	r1, [pc, #24]	; 8f50 <rpi_set_output+0x5c>
    8f34:	e59f0018 	ldr	r0, [pc, #24]	; 8f54 <rpi_set_output+0x60>
    8f38:	ebffff32 	bl	8c08 <printk>
    8f3c:	eb00013b 	bl	9430 <clean_reboot>
    8f40:	00009bd4 	ldrdeq	r9, [r0], -r4
    8f44:	00009bd8 	ldrdeq	r9, [r0], -r8
    8f48:	00009a9c 	muleq	r0, ip, sl
    8f4c:	00009bac 	andeq	r9, r0, ip, lsr #23
    8f50:	00009a60 	andeq	r9, r0, r0, ror #20
    8f54:	0000987c 	andeq	r9, r0, ip, ror r8

00008f58 <va_printk>:
    8f58:	e92d4ff0 	push	{r4, r5, r6, r7, r8, r9, sl, fp, lr}
    8f5c:	e24ddf45 	sub	sp, sp, #276	; 0x114
    8f60:	e1a09000 	mov	r9, r0
    8f64:	e58d2008 	str	r2, [sp, #8]
    8f68:	e58d300c 	str	r3, [sp, #12]
    8f6c:	e2411001 	sub	r1, r1, #1, 0
    8f70:	e0808001 	add	r8, r0, r1
    8f74:	e3a03000 	mov	r3, #0, 0
    8f78:	e5c03000 	strb	r3, [r0]
    8f7c:	e1a04000 	mov	r4, r0
    8f80:	e1a06002 	mov	r6, r2
    8f84:	ea000001 	b	8f90 <va_printk+0x38>
    8f88:	e2866001 	add	r6, r6, #1, 0
    8f8c:	e4c43001 	strb	r3, [r4], #1
    8f90:	e5d63000 	ldrb	r3, [r6]
    8f94:	e3530000 	cmp	r3, #0, 0
    8f98:	0a000108 	beq	93c0 <va_printk+0x468>
    8f9c:	e1540008 	cmp	r4, r8
    8fa0:	2a000106 	bcs	93c0 <va_printk+0x468>
    8fa4:	e3530025 	cmp	r3, #37, 0	; 0x25
    8fa8:	1afffff6 	bne	8f88 <va_printk+0x30>
    8fac:	e5d62001 	ldrb	r2, [r6, #1]
    8fb0:	e3520025 	cmp	r2, #37, 0	; 0x25
    8fb4:	04c43001 	strbeq	r3, [r4], #1
    8fb8:	02866002 	addeq	r6, r6, #2, 0
    8fbc:	0afffff3 	beq	8f90 <va_printk+0x38>
    8fc0:	e2866001 	add	r6, r6, #1, 0
    8fc4:	e3a05000 	mov	r5, #0, 0
    8fc8:	e5d67000 	ldrb	r7, [r6]
    8fcc:	e1a0a007 	mov	sl, r7
    8fd0:	e1a00007 	mov	r0, r7
    8fd4:	ebffff3d 	bl	8cd0 <isdigit>
    8fd8:	e3500000 	cmp	r0, #0, 0
    8fdc:	0a000004 	beq	8ff4 <va_printk+0x9c>
    8fe0:	e0855105 	add	r5, r5, r5, lsl #2
    8fe4:	e0875085 	add	r5, r7, r5, lsl #1
    8fe8:	e2455030 	sub	r5, r5, #48, 0	; 0x30
    8fec:	e2866001 	add	r6, r6, #1, 0
    8ff0:	eafffff4 	b	8fc8 <va_printk+0x70>
    8ff4:	e355001f 	cmp	r5, #31, 0
    8ff8:	8a00001a 	bhi	9068 <va_printk+0x110>
    8ffc:	e2477062 	sub	r7, r7, #98, 0	; 0x62
    9000:	e3570016 	cmp	r7, #22, 0
    9004:	979ff107 	ldrls	pc, [pc, r7, lsl #2]
    9008:	ea0000d4 	b	9360 <va_printk+0x408>
    900c:	000092e4 	andeq	r9, r0, r4, ror #5
    9010:	0000932c 	andeq	r9, r0, ip, lsr #6
    9014:	00009244 	andeq	r9, r0, r4, asr #4
    9018:	00009360 	andeq	r9, r0, r0, ror #6
    901c:	0000922c 	andeq	r9, r0, ip, lsr #4
    9020:	00009360 	andeq	r9, r0, r0, ror #6
    9024:	00009360 	andeq	r9, r0, r0, ror #6
    9028:	00009360 	andeq	r9, r0, r0, ror #6
    902c:	00009360 	andeq	r9, r0, r0, ror #6
    9030:	00009360 	andeq	r9, r0, r0, ror #6
    9034:	00009088 	andeq	r9, r0, r8, lsl #1
    9038:	00009360 	andeq	r9, r0, r0, ror #6
    903c:	00009360 	andeq	r9, r0, r0, ror #6
    9040:	00009360 	andeq	r9, r0, r0, ror #6
    9044:	000092b0 			; <UNDEFINED> instruction: 0x000092b0
    9048:	00009360 	andeq	r9, r0, r0, ror #6
    904c:	00009360 	andeq	r9, r0, r0, ror #6
    9050:	00009318 	andeq	r9, r0, r8, lsl r3
    9054:	00009360 	andeq	r9, r0, r0, ror #6
    9058:	0000927c 	andeq	r9, r0, ip, ror r2
    905c:	00009360 	andeq	r9, r0, r0, ror #6
    9060:	00009360 	andeq	r9, r0, r0, ror #6
    9064:	000092b0 			; <UNDEFINED> instruction: 0x000092b0
    9068:	e59f3364 	ldr	r3, [pc, #868]	; 93d4 <va_printk+0x47c>
    906c:	e58d3000 	str	r3, [sp]
    9070:	e3a03098 	mov	r3, #152, 0	; 0x98
    9074:	e59f235c 	ldr	r2, [pc, #860]	; 93d8 <va_printk+0x480>
    9078:	e59f135c 	ldr	r1, [pc, #860]	; 93dc <va_printk+0x484>
    907c:	e59f035c 	ldr	r0, [pc, #860]	; 93e0 <va_printk+0x488>
    9080:	ebfffee0 	bl	8c08 <printk>
    9084:	eb0000e9 	bl	9430 <clean_reboot>
    9088:	e3a02003 	mov	r2, #3, 0
    908c:	e59f1350 	ldr	r1, [pc, #848]	; 93e4 <va_printk+0x48c>
    9090:	e1a00006 	mov	r0, r6
    9094:	eb0001dd 	bl	9810 <strncmp>
    9098:	e3500000 	cmp	r0, #0, 0
    909c:	0a000005 	beq	90b8 <va_printk+0x160>
    90a0:	e3a02003 	mov	r2, #3, 0
    90a4:	e59f133c 	ldr	r1, [pc, #828]	; 93e8 <va_printk+0x490>
    90a8:	e1a00006 	mov	r0, r6
    90ac:	eb0001d7 	bl	9810 <strncmp>
    90b0:	e3500000 	cmp	r0, #0, 0
    90b4:	1a000033 	bne	9188 <va_printk+0x230>
    90b8:	e286b002 	add	fp, r6, #2, 0
    90bc:	e59d300c 	ldr	r3, [sp, #12]
    90c0:	e2833007 	add	r3, r3, #7, 0
    90c4:	e3c33007 	bic	r3, r3, #7, 0
    90c8:	e2832008 	add	r2, r3, #8, 0
    90cc:	e58d200c 	str	r2, [sp, #12]
    90d0:	e593a000 	ldr	sl, [r3]
    90d4:	e5937004 	ldr	r7, [r3, #4]
    90d8:	e1a01007 	mov	r1, r7
    90dc:	e59f0308 	ldr	r0, [pc, #776]	; 93ec <va_printk+0x494>
    90e0:	ebfffec8 	bl	8c08 <printk>
    90e4:	e1a0100a 	mov	r1, sl
    90e8:	e59f0300 	ldr	r0, [pc, #768]	; 93f0 <va_printk+0x498>
    90ec:	ebfffec5 	bl	8c08 <printk>
    90f0:	e3a02003 	mov	r2, #3, 0
    90f4:	e59f12e8 	ldr	r1, [pc, #744]	; 93e4 <va_printk+0x48c>
    90f8:	e1a00006 	mov	r0, r6
    90fc:	eb0001c3 	bl	9810 <strncmp>
    9100:	e3500000 	cmp	r0, #0, 0
    9104:	0a000027 	beq	91a8 <va_printk+0x250>
    9108:	e3a02003 	mov	r2, #3, 0
    910c:	e59f12d4 	ldr	r1, [pc, #724]	; 93e8 <va_printk+0x490>
    9110:	e1a00006 	mov	r0, r6
    9114:	eb0001bd 	bl	9810 <strncmp>
    9118:	e3500000 	cmp	r0, #0, 0
    911c:	1a00003b 	bne	9210 <va_printk+0x2b8>
    9120:	e3a06000 	mov	r6, #0, 0
    9124:	e58d6004 	str	r6, [sp, #4]
    9128:	e58d5000 	str	r5, [sp]
    912c:	e1a03007 	mov	r3, r7
    9130:	e3a02080 	mov	r2, #128, 0	; 0x80
    9134:	e28d1010 	add	r1, sp, #16, 0
    9138:	e3a0000a 	mov	r0, #10, 0
    913c:	ebfffeff 	bl	8d40 <emit>
    9140:	e1a07000 	mov	r7, r0
    9144:	e58d6004 	str	r6, [sp, #4]
    9148:	e58d5000 	str	r5, [sp]
    914c:	e1a0300a 	mov	r3, sl
    9150:	e3a02080 	mov	r2, #128, 0	; 0x80
    9154:	e28d1090 	add	r1, sp, #144, 0	; 0x90
    9158:	e3a0000a 	mov	r0, #10, 0
    915c:	ebfffef7 	bl	8d40 <emit>
    9160:	e59f128c 	ldr	r1, [pc, #652]	; 93f4 <va_printk+0x49c>
    9164:	e28d0010 	add	r0, sp, #16, 0
    9168:	eb000195 	bl	97c4 <strcmp>
    916c:	e1500006 	cmp	r0, r6
    9170:	1a000021 	bne	91fc <va_printk+0x2a4>
    9174:	e28d1090 	add	r1, sp, #144, 0	; 0x90
    9178:	e28d0010 	add	r0, sp, #16, 0
    917c:	eb00019b 	bl	97f0 <strcpy>
    9180:	e1a0600b 	mov	r6, fp
    9184:	ea00003a 	b	9274 <va_printk+0x31c>
    9188:	e59f3268 	ldr	r3, [pc, #616]	; 93f8 <va_printk+0x4a0>
    918c:	e58d3000 	str	r3, [sp]
    9190:	e3a0309f 	mov	r3, #159, 0	; 0x9f
    9194:	e59f223c 	ldr	r2, [pc, #572]	; 93d8 <va_printk+0x480>
    9198:	e59f123c 	ldr	r1, [pc, #572]	; 93dc <va_printk+0x484>
    919c:	e59f023c 	ldr	r0, [pc, #572]	; 93e0 <va_printk+0x488>
    91a0:	ebfffe98 	bl	8c08 <printk>
    91a4:	eb0000a1 	bl	9430 <clean_reboot>
    91a8:	e3a06000 	mov	r6, #0, 0
    91ac:	e58d6004 	str	r6, [sp, #4]
    91b0:	e58d5000 	str	r5, [sp]
    91b4:	e1a03007 	mov	r3, r7
    91b8:	e3a02080 	mov	r2, #128, 0	; 0x80
    91bc:	e28d1010 	add	r1, sp, #16, 0
    91c0:	e3a00010 	mov	r0, #16, 0
    91c4:	ebfffedd 	bl	8d40 <emit>
    91c8:	e1a07000 	mov	r7, r0
    91cc:	e58d6004 	str	r6, [sp, #4]
    91d0:	e58d5000 	str	r5, [sp]
    91d4:	e1a0300a 	mov	r3, sl
    91d8:	e3a02080 	mov	r2, #128, 0	; 0x80
    91dc:	e28d1090 	add	r1, sp, #144, 0	; 0x90
    91e0:	e3a00010 	mov	r0, #16, 0
    91e4:	ebfffed5 	bl	8d40 <emit>
    91e8:	e28d1092 	add	r1, sp, #146, 0	; 0x92
    91ec:	e28d0010 	add	r0, sp, #16, 0
    91f0:	eb000166 	bl	9790 <strcat>
    91f4:	e1a0600b 	mov	r6, fp
    91f8:	ea00001d 	b	9274 <va_printk+0x31c>
    91fc:	e28d1090 	add	r1, sp, #144, 0	; 0x90
    9200:	e28d0010 	add	r0, sp, #16, 0
    9204:	eb000161 	bl	9790 <strcat>
    9208:	e1a0600b 	mov	r6, fp
    920c:	ea000018 	b	9274 <va_printk+0x31c>
    9210:	e58d6000 	str	r6, [sp]
    9214:	e3a030b6 	mov	r3, #182, 0	; 0xb6
    9218:	e59f21b8 	ldr	r2, [pc, #440]	; 93d8 <va_printk+0x480>
    921c:	e59f11b8 	ldr	r1, [pc, #440]	; 93dc <va_printk+0x484>
    9220:	e59f01d4 	ldr	r0, [pc, #468]	; 93fc <va_printk+0x4a4>
    9224:	ebfffe77 	bl	8c08 <printk>
    9228:	eb000080 	bl	9430 <clean_reboot>
    922c:	e3a030be 	mov	r3, #190, 0	; 0xbe
    9230:	e59f21a0 	ldr	r2, [pc, #416]	; 93d8 <va_printk+0x480>
    9234:	e59f11a0 	ldr	r1, [pc, #416]	; 93dc <va_printk+0x484>
    9238:	e59f01c0 	ldr	r0, [pc, #448]	; 9400 <va_printk+0x4a8>
    923c:	ebfffe71 	bl	8c08 <printk>
    9240:	eb00007a 	bl	9430 <clean_reboot>
    9244:	e59d300c 	ldr	r3, [sp, #12]
    9248:	e2832004 	add	r2, r3, #4, 0
    924c:	e58d200c 	str	r2, [sp, #12]
    9250:	e5933000 	ldr	r3, [r3]
    9254:	e3a02001 	mov	r2, #1, 0
    9258:	e58d2004 	str	r2, [sp, #4]
    925c:	e58d5000 	str	r5, [sp]
    9260:	e3a02080 	mov	r2, #128, 0	; 0x80
    9264:	e28d1010 	add	r1, sp, #16, 0
    9268:	e3a0000a 	mov	r0, #10, 0
    926c:	ebfffeb3 	bl	8d40 <emit>
    9270:	e1a07000 	mov	r7, r0
    9274:	e2866001 	add	r6, r6, #1, 0
    9278:	ea00004a 	b	93a8 <va_printk+0x450>
    927c:	e59d300c 	ldr	r3, [sp, #12]
    9280:	e2832004 	add	r2, r3, #4, 0
    9284:	e58d200c 	str	r2, [sp, #12]
    9288:	e5933000 	ldr	r3, [r3]
    928c:	e3a02000 	mov	r2, #0, 0
    9290:	e58d2004 	str	r2, [sp, #4]
    9294:	e58d5000 	str	r5, [sp]
    9298:	e3a02080 	mov	r2, #128, 0	; 0x80
    929c:	e28d1010 	add	r1, sp, #16, 0
    92a0:	e3a0000a 	mov	r0, #10, 0
    92a4:	ebfffea5 	bl	8d40 <emit>
    92a8:	e1a07000 	mov	r7, r0
    92ac:	eafffff0 	b	9274 <va_printk+0x31c>
    92b0:	e59d300c 	ldr	r3, [sp, #12]
    92b4:	e2832004 	add	r2, r3, #4, 0
    92b8:	e58d200c 	str	r2, [sp, #12]
    92bc:	e5933000 	ldr	r3, [r3]
    92c0:	e3a02000 	mov	r2, #0, 0
    92c4:	e58d2004 	str	r2, [sp, #4]
    92c8:	e58d5000 	str	r5, [sp]
    92cc:	e3a02080 	mov	r2, #128, 0	; 0x80
    92d0:	e28d1010 	add	r1, sp, #16, 0
    92d4:	e3a00010 	mov	r0, #16, 0
    92d8:	ebfffe98 	bl	8d40 <emit>
    92dc:	e1a07000 	mov	r7, r0
    92e0:	eaffffe3 	b	9274 <va_printk+0x31c>
    92e4:	e59d300c 	ldr	r3, [sp, #12]
    92e8:	e2832004 	add	r2, r3, #4, 0
    92ec:	e58d200c 	str	r2, [sp, #12]
    92f0:	e5933000 	ldr	r3, [r3]
    92f4:	e3a02000 	mov	r2, #0, 0
    92f8:	e58d2004 	str	r2, [sp, #4]
    92fc:	e58d5000 	str	r5, [sp]
    9300:	e3a02080 	mov	r2, #128, 0	; 0x80
    9304:	e28d1010 	add	r1, sp, #16, 0
    9308:	e3a00002 	mov	r0, #2, 0
    930c:	ebfffe8b 	bl	8d40 <emit>
    9310:	e1a07000 	mov	r7, r0
    9314:	eaffffd6 	b	9274 <va_printk+0x31c>
    9318:	e59d300c 	ldr	r3, [sp, #12]
    931c:	e2832004 	add	r2, r3, #4, 0
    9320:	e58d200c 	str	r2, [sp, #12]
    9324:	e5937000 	ldr	r7, [r3]
    9328:	eaffffd1 	b	9274 <va_printk+0x31c>
    932c:	e59d300c 	ldr	r3, [sp, #12]
    9330:	e2832004 	add	r2, r3, #4, 0
    9334:	e58d200c 	str	r2, [sp, #12]
    9338:	e5933000 	ldr	r3, [r3]
    933c:	e3a02000 	mov	r2, #0, 0
    9340:	e58d2004 	str	r2, [sp, #4]
    9344:	e58d5000 	str	r5, [sp]
    9348:	e3a02080 	mov	r2, #128, 0	; 0x80
    934c:	e28d1010 	add	r1, sp, #16, 0
    9350:	e3a00008 	mov	r0, #8, 0
    9354:	ebfffe79 	bl	8d40 <emit>
    9358:	e1a07000 	mov	r7, r0
    935c:	eaffffc4 	b	9274 <va_printk+0x31c>
    9360:	e3a03000 	mov	r3, #0, 0
    9364:	e5c63001 	strb	r3, [r6, #1]
    9368:	e1a0200a 	mov	r2, sl
    936c:	e1a0100a 	mov	r1, sl
    9370:	e59f008c 	ldr	r0, [pc, #140]	; 9404 <va_printk+0x4ac>
    9374:	ebfffe23 	bl	8c08 <printk>
    9378:	e59f3088 	ldr	r3, [pc, #136]	; 9408 <va_printk+0x4b0>
    937c:	e5933000 	ldr	r3, [r3]
    9380:	e59d0008 	ldr	r0, [sp, #8]
    9384:	e12fff33 	blx	r3
    9388:	e3a030e2 	mov	r3, #226, 0	; 0xe2
    938c:	e59f2044 	ldr	r2, [pc, #68]	; 93d8 <va_printk+0x480>
    9390:	e59f1044 	ldr	r1, [pc, #68]	; 93dc <va_printk+0x484>
    9394:	e59f0070 	ldr	r0, [pc, #112]	; 940c <va_printk+0x4b4>
    9398:	ebfffe1a 	bl	8c08 <printk>
    939c:	eb000023 	bl	9430 <clean_reboot>
    93a0:	e2877001 	add	r7, r7, #1, 0
    93a4:	e4c43001 	strb	r3, [r4], #1
    93a8:	e1540008 	cmp	r4, r8
    93ac:	2afffef7 	bcs	8f90 <va_printk+0x38>
    93b0:	e5d73000 	ldrb	r3, [r7]
    93b4:	e3530000 	cmp	r3, #0, 0
    93b8:	1afffff8 	bne	93a0 <va_printk+0x448>
    93bc:	eafffef3 	b	8f90 <va_printk+0x38>
    93c0:	e3a03000 	mov	r3, #0, 0
    93c4:	e4c43001 	strb	r3, [r4], #1
    93c8:	e0440009 	sub	r0, r4, r9
    93cc:	e28ddf45 	add	sp, sp, #276	; 0x114
    93d0:	e8bd8ff0 	pop	{r4, r5, r6, r7, r8, r9, sl, fp, pc}
    93d4:	00009aa4 	andeq	r9, r0, r4, lsr #21
    93d8:	00009bbc 			; <UNDEFINED> instruction: 0x00009bbc
    93dc:	00009a60 	andeq	r9, r0, r0, ror #20
    93e0:	0000987c 	andeq	r9, r0, ip, ror r8
    93e4:	00009ab0 			; <UNDEFINED> instruction: 0x00009ab0
    93e8:	00009ab4 			; <UNDEFINED> instruction: 0x00009ab4
    93ec:	00009ab8 			; <UNDEFINED> instruction: 0x00009ab8
    93f0:	00009ac0 	andeq	r9, r0, r0, asr #21
    93f4:	00009a74 	andeq	r9, r0, r4, ror sl
    93f8:	00009ac8 	andeq	r9, r0, r8, asr #21
    93fc:	00009b04 	andeq	r9, r0, r4, lsl #22
    9400:	00009b2c 	andeq	r9, r0, ip, lsr #22
    9404:	00009b54 	andeq	r9, r0, r4, asr fp
    9408:	00009bd8 	ldrdeq	r9, [r0], -r8
    940c:	00009b84 	andeq	r9, r0, r4, lsl #23

00009410 <enable_cache>:
    9410:	ee113f10 	mrc	15, 0, r3, cr1, cr0, {0}
    9414:	e3833b06 	orr	r3, r3, #6144	; 0x1800
    9418:	ee013f10 	mcr	15, 0, r3, cr1, cr0, {0}
    941c:	e12fff1e 	bx	lr

00009420 <disable_cache>:
    9420:	ee113f10 	mrc	15, 0, r3, cr1, cr0, {0}
    9424:	e3c33b06 	bic	r3, r3, #6144	; 0x1800
    9428:	ee013f10 	mcr	15, 0, r3, cr1, cr0, {0}
    942c:	e12fff1e 	bx	lr

00009430 <clean_reboot>:
    9430:	e92d4010 	push	{r4, lr}
    9434:	e59f3018 	ldr	r3, [pc, #24]	; 9454 <clean_reboot+0x24>
    9438:	e5933000 	ldr	r3, [r3]
    943c:	e59f0014 	ldr	r0, [pc, #20]	; 9458 <clean_reboot+0x28>
    9440:	e12fff33 	blx	r3
    9444:	eb0000c3 	bl	9758 <uart_flush_tx>
    9448:	e3a0000a 	mov	r0, #10, 0
    944c:	eb000047 	bl	9570 <delay_ms>
    9450:	eb00001c 	bl	94c8 <rpi_reboot>
    9454:	00009bd8 	ldrdeq	r9, [r0], -r8
    9458:	00009bc8 	andeq	r9, r0, r8, asr #23

0000945c <_cstart>:
    945c:	e92d4010 	push	{r4, lr}
    9460:	eb00000c 	bl	9498 <custom_loader>
    9464:	e59f3024 	ldr	r3, [pc, #36]	; 9490 <_cstart+0x34>
    9468:	e59f2024 	ldr	r2, [pc, #36]	; 9494 <_cstart+0x38>
    946c:	e1530002 	cmp	r3, r2
    9470:	33a02000 	movcc	r2, #0, 0
    9474:	34832004 	strcc	r2, [r3], #4
    9478:	3afffffa 	bcc	9468 <_cstart+0xc>
    947c:	eb000057 	bl	95e0 <uart_init>
    9480:	e3a03001 	mov	r3, #1, 0
    9484:	ee0f3f1c 	mcr	15, 0, r3, cr15, cr12, {0}
    9488:	ebfffb05 	bl	80a4 <notmain>
    948c:	ebffffe7 	bl	9430 <clean_reboot>
    9490:	00009bdc 	ldrdeq	r9, [r0], -ip
    9494:	00009ff0 	strdeq	r9, [r0], -r0

00009498 <custom_loader>:
    9498:	e12fff1e 	bx	lr

0000949c <at_user_level>:
    949c:	e10f0000 	mrs	r0, CPSR
    94a0:	e200001f 	and	r0, r0, #31, 0
    94a4:	e3500010 	cmp	r0, #16, 0
    94a8:	13a00000 	movne	r0, #0, 0
    94ac:	03a00001 	moveq	r0, #1, 0
    94b0:	e12fff1e 	bx	lr

000094b4 <set_user_level>:
    94b4:	e10f3000 	mrs	r3, CPSR
    94b8:	e3c3301f 	bic	r3, r3, #31, 0
    94bc:	e3833010 	orr	r3, r3, #16, 0
    94c0:	e129f003 	msr	CPSR_fc, r3
    94c4:	e12fff1e 	bx	lr

000094c8 <rpi_reboot>:
    94c8:	e92d4010 	push	{r4, lr}
    94cc:	ebfffff2 	bl	949c <at_user_level>
    94d0:	e3500000 	cmp	r0, #0, 0
    94d4:	1a00000a 	bne	9504 <rpi_reboot+0x3c>
    94d8:	eb0000d7 	bl	983c <reboot_callout>
    94dc:	eb00009d 	bl	9758 <uart_flush_tx>
    94e0:	e3a0000a 	mov	r0, #10, 0
    94e4:	eb000021 	bl	9570 <delay_ms>
    94e8:	e59f101c 	ldr	r1, [pc, #28]	; 950c <rpi_reboot+0x44>
    94ec:	e59f001c 	ldr	r0, [pc, #28]	; 9510 <rpi_reboot+0x48>
    94f0:	ebfffacb 	bl	8024 <PUT32>
    94f4:	e59f1018 	ldr	r1, [pc, #24]	; 9514 <rpi_reboot+0x4c>
    94f8:	e59f0018 	ldr	r0, [pc, #24]	; 9518 <rpi_reboot+0x50>
    94fc:	ebfffac8 	bl	8024 <PUT32>
    9500:	eafffffe 	b	9500 <rpi_reboot+0x38>
    9504:	ebffffea 	bl	94b4 <set_user_level>
    9508:	eafffff2 	b	94d8 <rpi_reboot+0x10>
    950c:	5a000001 	bpl	9518 <rpi_reboot+0x50>
    9510:	20100024 	andscs	r0, r0, r4, lsr #32
    9514:	5a000020 	bpl	959c <delay_sec+0x14>
    9518:	2010001c 	andscs	r0, r0, ip, lsl r0

0000951c <timer_get_usec_raw>:
    951c:	e92d4010 	push	{r4, lr}
    9520:	e59f0004 	ldr	r0, [pc, #4]	; 952c <timer_get_usec_raw+0x10>
    9524:	ebfffac0 	bl	802c <GET32>
    9528:	e8bd8010 	pop	{r4, pc}
    952c:	20003004 	andcs	r3, r0, r4

00009530 <timer_get_usec>:
    9530:	e92d4010 	push	{r4, lr}
    9534:	eb0000c1 	bl	9840 <dev_barrier>
    9538:	ebfffff7 	bl	951c <timer_get_usec_raw>
    953c:	e1a04000 	mov	r4, r0
    9540:	eb0000be 	bl	9840 <dev_barrier>
    9544:	e1a00004 	mov	r0, r4
    9548:	e8bd8010 	pop	{r4, pc}

0000954c <delay_us>:
    954c:	e92d4070 	push	{r4, r5, r6, lr}
    9550:	e1a05000 	mov	r5, r0
    9554:	ebfffff5 	bl	9530 <timer_get_usec>
    9558:	e1a04000 	mov	r4, r0
    955c:	ebfffff3 	bl	9530 <timer_get_usec>
    9560:	e0400004 	sub	r0, r0, r4
    9564:	e1500005 	cmp	r0, r5
    9568:	3afffffb 	bcc	955c <delay_us+0x10>
    956c:	e8bd8070 	pop	{r4, r5, r6, pc}

00009570 <delay_ms>:
    9570:	e92d4010 	push	{r4, lr}
    9574:	e0603280 	rsb	r3, r0, r0, lsl #5
    9578:	e0800103 	add	r0, r0, r3, lsl #2
    957c:	e1a00180 	lsl	r0, r0, #3
    9580:	ebfffff1 	bl	954c <delay_us>
    9584:	e8bd8010 	pop	{r4, pc}

00009588 <delay_sec>:
    9588:	e92d4010 	push	{r4, lr}
    958c:	e0603280 	rsb	r3, r0, r0, lsl #5
    9590:	e0800103 	add	r0, r0, r3, lsl #2
    9594:	e1a00180 	lsl	r0, r0, #3
    9598:	ebfffff4 	bl	9570 <delay_ms>
    959c:	e8bd8010 	pop	{r4, pc}

000095a0 <and_in32>:
    95a0:	e92d4070 	push	{r4, r5, r6, lr}
    95a4:	e1a04000 	mov	r4, r0
    95a8:	e1a05001 	mov	r5, r1
    95ac:	ebfffa9e 	bl	802c <GET32>
    95b0:	e0001005 	and	r1, r0, r5
    95b4:	e1a00004 	mov	r0, r4
    95b8:	ebfffa99 	bl	8024 <PUT32>
    95bc:	e8bd8070 	pop	{r4, r5, r6, pc}

000095c0 <or_in32>:
    95c0:	e92d4070 	push	{r4, r5, r6, lr}
    95c4:	e1a04000 	mov	r4, r0
    95c8:	e1a05001 	mov	r5, r1
    95cc:	ebfffa96 	bl	802c <GET32>
    95d0:	e1801005 	orr	r1, r0, r5
    95d4:	e1a00004 	mov	r0, r4
    95d8:	ebfffa91 	bl	8024 <PUT32>
    95dc:	e8bd8070 	pop	{r4, r5, r6, pc}

000095e0 <uart_init>:
    95e0:	e92d4010 	push	{r4, lr}
    95e4:	e3a01002 	mov	r1, #2, 0
    95e8:	e3a0000e 	mov	r0, #14, 0
    95ec:	ebfffc6c 	bl	87a4 <gpio_set_function>
    95f0:	e3a01002 	mov	r1, #2, 0
    95f4:	e3a0000f 	mov	r0, #15, 0
    95f8:	ebfffc69 	bl	87a4 <gpio_set_function>
    95fc:	eb00008f 	bl	9840 <dev_barrier>
    9600:	e3a01001 	mov	r1, #1, 0
    9604:	e59f0064 	ldr	r0, [pc, #100]	; 9670 <uart_init+0x90>
    9608:	ebffffec 	bl	95c0 <or_in32>
    960c:	eb00008b 	bl	9840 <dev_barrier>
    9610:	e59f405c 	ldr	r4, [pc, #92]	; 9674 <uart_init+0x94>
    9614:	e3a01000 	mov	r1, #0, 0
    9618:	e1a00004 	mov	r0, r4
    961c:	ebfffa80 	bl	8024 <PUT32>
    9620:	e3a01000 	mov	r1, #0, 0
    9624:	e59f004c 	ldr	r0, [pc, #76]	; 9678 <uart_init+0x98>
    9628:	ebfffa7d 	bl	8024 <PUT32>
    962c:	e3a01003 	mov	r1, #3, 0
    9630:	e59f0044 	ldr	r0, [pc, #68]	; 967c <uart_init+0x9c>
    9634:	ebfffa7a 	bl	8024 <PUT32>
    9638:	e3a01000 	mov	r1, #0, 0
    963c:	e59f003c 	ldr	r0, [pc, #60]	; 9680 <uart_init+0xa0>
    9640:	ebfffa77 	bl	8024 <PUT32>
    9644:	e3a010c7 	mov	r1, #199, 0	; 0xc7
    9648:	e59f0034 	ldr	r0, [pc, #52]	; 9684 <uart_init+0xa4>
    964c:	ebfffa74 	bl	8024 <PUT32>
    9650:	e59f1030 	ldr	r1, [pc, #48]	; 9688 <uart_init+0xa8>
    9654:	e59f0030 	ldr	r0, [pc, #48]	; 968c <uart_init+0xac>
    9658:	ebfffa71 	bl	8024 <PUT32>
    965c:	e3a01003 	mov	r1, #3, 0
    9660:	e1a00004 	mov	r0, r4
    9664:	ebfffa6e 	bl	8024 <PUT32>
    9668:	eb000074 	bl	9840 <dev_barrier>
    966c:	e8bd8010 	pop	{r4, pc}
    9670:	20215004 	eorcs	r5, r1, r4
    9674:	20215060 	eorcs	r5, r1, r0, rrx
    9678:	20215044 	eorcs	r5, r1, r4, asr #32
    967c:	2021504c 	eorcs	r5, r1, ip, asr #32
    9680:	20215050 	eorcs	r5, r1, r0, asr r0
    9684:	20215048 	eorcs	r5, r1, r8, asr #32
    9688:	0000010e 	andeq	r0, r0, lr, lsl #2
    968c:	20215068 	eorcs	r5, r1, r8, rrx

00009690 <uart_can_getc>:
    9690:	e92d4010 	push	{r4, lr}
    9694:	e59f0008 	ldr	r0, [pc, #8]	; 96a4 <uart_can_getc+0x14>
    9698:	ebfffa63 	bl	802c <GET32>
    969c:	e2000001 	and	r0, r0, #1, 0
    96a0:	e8bd8010 	pop	{r4, pc}
    96a4:	20215064 	eorcs	r5, r1, r4, rrx

000096a8 <uart_can_putc>:
    96a8:	e92d4010 	push	{r4, lr}
    96ac:	e59f0010 	ldr	r0, [pc, #16]	; 96c4 <uart_can_putc+0x1c>
    96b0:	ebfffa5d 	bl	802c <GET32>
    96b4:	e3100002 	tst	r0, #2, 0
    96b8:	13a00001 	movne	r0, #1, 0
    96bc:	03a00000 	moveq	r0, #0, 0
    96c0:	e8bd8010 	pop	{r4, pc}
    96c4:	20215064 	eorcs	r5, r1, r4, rrx

000096c8 <uart_getc>:
    96c8:	e92d4010 	push	{r4, lr}
    96cc:	eb00005b 	bl	9840 <dev_barrier>
    96d0:	ebffffee 	bl	9690 <uart_can_getc>
    96d4:	e3500000 	cmp	r0, #0, 0
    96d8:	0afffffc 	beq	96d0 <uart_getc+0x8>
    96dc:	e59f0010 	ldr	r0, [pc, #16]	; 96f4 <uart_getc+0x2c>
    96e0:	ebfffa51 	bl	802c <GET32>
    96e4:	e6ef4070 	uxtb	r4, r0
    96e8:	eb000054 	bl	9840 <dev_barrier>
    96ec:	e1a00004 	mov	r0, r4
    96f0:	e8bd8010 	pop	{r4, pc}
    96f4:	20215040 	eorcs	r5, r1, r0, asr #32

000096f8 <uart_putc>:
    96f8:	e92d4010 	push	{r4, lr}
    96fc:	e1a04000 	mov	r4, r0
    9700:	eb00004e 	bl	9840 <dev_barrier>
    9704:	ebffffe7 	bl	96a8 <uart_can_putc>
    9708:	e3500000 	cmp	r0, #0, 0
    970c:	0afffffc 	beq	9704 <uart_putc+0xc>
    9710:	e6ef1074 	uxtb	r1, r4
    9714:	e59f0008 	ldr	r0, [pc, #8]	; 9724 <uart_putc+0x2c>
    9718:	ebfffa41 	bl	8024 <PUT32>
    971c:	eb000047 	bl	9840 <dev_barrier>
    9720:	e8bd8010 	pop	{r4, pc}
    9724:	20215040 	eorcs	r5, r1, r0, asr #32

00009728 <uart_has_data>:
    9728:	e92d4010 	push	{r4, lr}
    972c:	eb000043 	bl	9840 <dev_barrier>
    9730:	ebffffd6 	bl	9690 <uart_can_getc>
    9734:	e8bd8010 	pop	{r4, pc}

00009738 <uart_tx_is_empty>:
    9738:	e92d4010 	push	{r4, lr}
    973c:	eb00003f 	bl	9840 <dev_barrier>
    9740:	e59f000c 	ldr	r0, [pc, #12]	; 9754 <uart_tx_is_empty+0x1c>
    9744:	ebfffa38 	bl	802c <GET32>
    9748:	e1a004a0 	lsr	r0, r0, #9
    974c:	e2000001 	and	r0, r0, #1, 0
    9750:	e8bd8010 	pop	{r4, pc}
    9754:	20215064 	eorcs	r5, r1, r4, rrx

00009758 <uart_flush_tx>:
    9758:	e92d4010 	push	{r4, lr}
    975c:	ebfffff5 	bl	9738 <uart_tx_is_empty>
    9760:	e3500000 	cmp	r0, #0, 0
    9764:	0afffffc 	beq	975c <uart_flush_tx+0x4>
    9768:	e8bd8010 	pop	{r4, pc}

0000976c <uart_disable>:
    976c:	e92d4010 	push	{r4, lr}
    9770:	ebfffff8 	bl	9758 <uart_flush_tx>
    9774:	eb000031 	bl	9840 <dev_barrier>
    9778:	e3e01001 	mvn	r1, #1, 0
    977c:	e59f0008 	ldr	r0, [pc, #8]	; 978c <uart_disable+0x20>
    9780:	ebffff86 	bl	95a0 <and_in32>
    9784:	eb00002d 	bl	9840 <dev_barrier>
    9788:	e8bd8010 	pop	{r4, pc}
    978c:	20215004 	eorcs	r5, r1, r4

00009790 <strcat>:
    9790:	e1a02000 	mov	r2, r0
    9794:	e1a03002 	mov	r3, r2
    9798:	e2822001 	add	r2, r2, #1, 0
    979c:	e5d3c000 	ldrb	ip, [r3]
    97a0:	e35c0000 	cmp	ip, #0, 0
    97a4:	1afffffa 	bne	9794 <strcat+0x4>
    97a8:	e2433001 	sub	r3, r3, #1, 0
    97ac:	e5d12000 	ldrb	r2, [r1]
    97b0:	e2811001 	add	r1, r1, #1, 0
    97b4:	e5e32001 	strb	r2, [r3, #1]!
    97b8:	e3520000 	cmp	r2, #0, 0
    97bc:	1afffffa 	bne	97ac <strcat+0x1c>
    97c0:	e12fff1e 	bx	lr

000097c4 <strcmp>:
    97c4:	e5d03000 	ldrb	r3, [r0]
    97c8:	e3530000 	cmp	r3, #0, 0
    97cc:	0a000004 	beq	97e4 <strcmp+0x20>
    97d0:	e5d12000 	ldrb	r2, [r1]
    97d4:	e1530002 	cmp	r3, r2
    97d8:	02800001 	addeq	r0, r0, #1, 0
    97dc:	02811001 	addeq	r1, r1, #1, 0
    97e0:	0afffff7 	beq	97c4 <strcmp>
    97e4:	e5d10000 	ldrb	r0, [r1]
    97e8:	e0430000 	sub	r0, r3, r0
    97ec:	e12fff1e 	bx	lr

000097f0 <strcpy>:
    97f0:	e1a0c000 	mov	ip, r0
    97f4:	e5d12000 	ldrb	r2, [r1]
    97f8:	e2811001 	add	r1, r1, #1, 0
    97fc:	e5cc2000 	strb	r2, [ip]
    9800:	e28cc001 	add	ip, ip, #1, 0
    9804:	e3520000 	cmp	r2, #0, 0
    9808:	1afffff9 	bne	97f4 <strcpy+0x4>
    980c:	e12fff1e 	bx	lr

00009810 <strncmp>:
    9810:	e3520000 	cmp	r2, #0, 0
    9814:	e2422001 	sub	r2, r2, #1, 0
    9818:	0a000005 	beq	9834 <strncmp+0x24>
    981c:	e4d03001 	ldrb	r3, [r0], #1
    9820:	e4d1c001 	ldrb	ip, [r1], #1
    9824:	e153000c 	cmp	r3, ip
    9828:	0afffff8 	beq	9810 <strncmp>
    982c:	e043000c 	sub	r0, r3, ip
    9830:	e12fff1e 	bx	lr
    9834:	e3a00000 	mov	r0, #0, 0
    9838:	e12fff1e 	bx	lr

0000983c <reboot_callout>:
    983c:	e12fff1e 	bx	lr

00009840 <dev_barrier>:
    9840:	ea000002 	b	9850 <dsb>

00009844 <dmb>:
    9844:	e3a00000 	mov	r0, #0, 0
    9848:	ee070fba 	mcr	15, 0, r0, cr7, cr10, {5}
    984c:	e12fff1e 	bx	lr

00009850 <dsb>:
    9850:	ee070f9a 	mcr	15, 0, r0, cr7, cr10, {4}
    9854:	e12fff1e 	bx	lr

Disassembly of section .rodata:

00009858 <__FUNCTION__.3971-0x1d0>:
    9858:	706f6f6c 	rsbvc	r6, pc, ip, ror #30
    985c:	0a642520 	beq	1912ce4 <__bss_end__+0x1908cf4>
    9860:	00000000 	andeq	r0, r0, r0
    9864:	656e6f64 	strbvs	r6, [lr, #-3940]!	; 0xfffff09c
    9868:	00000a21 	andeq	r0, r0, r1, lsr #20
    986c:	72732f2e 	rsbsvc	r2, r3, #184	; 0xb8
    9870:	6d6b2f63 	stclvs	15, cr2, [fp, #-396]!	; 0xfffffe74
    9874:	6f6c6c61 	svcvs	0x006c6c61
    9878:	00632e63 	rsbeq	r2, r3, r3, ror #28
    987c:	494e4150 	stmdbmi	lr, {r4, r6, r8, lr}^
    9880:	73253a43 			; <UNDEFINED> instruction: 0x73253a43
    9884:	3a73253a 	bcc	1cd2d74 <__bss_end__+0x1cc8d84>
    9888:	253a6425 	ldrcs	r6, [sl, #-1061]!	; 0xfffffbdb
    988c:	00000a73 	andeq	r0, r0, r3, ror sl
    9890:	7479626e 	ldrbtvc	r6, [r9], #-622	; 0xfffffd92
    9894:	00007365 	andeq	r7, r0, r5, ror #6
    9898:	4f525245 	svcmi	0x00525245
    989c:	73253a52 			; <UNDEFINED> instruction: 0x73253a52
    98a0:	3a73253a 	bcc	1cd2d90 <__bss_end__+0x1cc8da0>
    98a4:	203a6425 	eorscs	r6, sl, r5, lsr #8
    98a8:	534c4146 	movtpl	r4, #49478	; 0xc146
    98ac:	253c2845 	ldrcs	r2, [ip, #-2117]!	; 0xfffff7bb
    98b0:	3a293e73 	bcc	a59284 <__bss_end__+0xa4f294>
    98b4:	6c616320 	stclvs	3, cr6, [r1], #-128	; 0xffffff80
    98b8:	676e696c 	strbvs	r6, [lr, -ip, ror #18]!
    98bc:	66656220 	strbtvs	r6, [r5], -r0, lsr #4
    98c0:	2065726f 	rsbcs	r7, r5, pc, ror #4
    98c4:	74696e69 	strbtvc	r6, [r9], #-3689	; 0xfffff197
    98c8:	696c6169 	stmdbvs	ip!, {r0, r3, r5, r6, r8, sp, lr}^
    98cc:	0a64657a 	beq	1922ebc <__bss_end__+0x1918ecc>
    98d0:	00000000 	andeq	r0, r0, r0
    98d4:	74696e69 	strbtvc	r6, [r9], #-3689	; 0xfffff197
    98d8:	0000705f 	andeq	r7, r0, pc, asr r0
    98dc:	4f525245 	svcmi	0x00525245
    98e0:	73253a52 			; <UNDEFINED> instruction: 0x73253a52
    98e4:	3a73253a 	bcc	1cd2dd4 <__bss_end__+0x1cc8de4>
    98e8:	203a6425 	eorscs	r6, sl, r5, lsr #8
    98ec:	534c4146 	movtpl	r4, #49478	; 0xc146
    98f0:	253c2845 	ldrcs	r2, [ip, #-2117]!	; 0xfffff7bb
    98f4:	3a293e73 	bcc	a592c8 <__bss_end__+0xa4f2d8>
    98f8:	73736120 	cmnvc	r3, #8
    98fc:	6e696d75 	mcrvs	13, 3, r6, cr9, cr5, {3}
    9900:	6f662067 	svcvs	0x00662067
    9904:	62207275 	eorvs	r7, r0, #1342177287	; 0x50000007
    9908:	20657479 	rsbcs	r7, r5, r9, ror r4
    990c:	67696c61 	strbvs	r6, [r9, -r1, ror #24]!
    9910:	2064656e 	rsbcs	r6, r4, lr, ror #10
    9914:	70616568 	rsbvc	r6, r1, r8, ror #10
    9918:	696f7020 	stmdbvs	pc!, {r5, ip, sp, lr}^	; <UNPREDICTABLE>
    991c:	7265746e 	rsbvc	r7, r5, #1845493760	; 0x6e000000
    9920:	0000000a 	andeq	r0, r0, sl
    9924:	615f7369 	cmpvs	pc, r9, ror #6
    9928:	6e67696c 	vnmulvs.f16	s13, s14, s25	; <UNPREDICTABLE>
    992c:	68286465 	stmdavs	r8!, {r0, r2, r5, r6, sl, sp, lr}
    9930:	5f706165 	svcpl	0x00706165
    9934:	2c727470 	cfldrdcs	mvd7, [r2], #-448	; 0xfffffe40
    9938:	00293420 	eoreq	r3, r9, r0, lsr #8
    993c:	4f525245 	svcmi	0x00525245
    9940:	73253a52 			; <UNDEFINED> instruction: 0x73253a52
    9944:	3a73253a 	bcc	1cd2e34 <__bss_end__+0x1cc8e44>
    9948:	203a6425 	eorscs	r6, sl, r5, lsr #8
    994c:	534c4146 	movtpl	r4, #49478	; 0xc146
    9950:	253c2845 	ldrcs	r2, [ip, #-2117]!	; 0xfffff7bb
    9954:	3a293e73 	bcc	a59328 <__bss_end__+0xa4f338>
    9958:	73736120 	cmnvc	r3, #8
    995c:	6e696d75 	mcrvs	13, 3, r6, cr9, cr5, {3}
    9960:	68742067 	ldmdavs	r4!, {r0, r1, r2, r5, r6, sp}^
    9964:	20657265 	rsbcs	r7, r5, r5, ror #4
    9968:	73207369 			; <UNDEFINED> instruction: 0x73207369
    996c:	65636170 	strbvs	r6, [r3, #-368]!	; 0xfffffe90
    9970:	206e6920 	rsbcs	r6, lr, r0, lsr #18
    9974:	20656874 	rsbcs	r6, r5, r4, ror r8
    9978:	70616568 	rsbvc	r6, r1, r8, ror #10
    997c:	0000000a 	andeq	r0, r0, sl
    9980:	70616568 	rsbvc	r6, r1, r8, ror #10
    9984:	7274705f 	rsbsvc	r7, r4, #95, 0	; 0x5f
    9988:	203d3c20 	eorscs	r3, sp, r0, lsr #24
    998c:	70616568 	rsbvc	r6, r1, r8, ror #10
    9990:	646e655f 	strbtvs	r6, [lr], #-1375	; 0xfffffaa1
    9994:	00000000 	andeq	r0, r0, r0
    9998:	4f525245 	svcmi	0x00525245
    999c:	73253a52 			; <UNDEFINED> instruction: 0x73253a52
    99a0:	3a73253a 	bcc	1cd2e90 <__bss_end__+0x1cc8ea0>
    99a4:	203a6425 	eorscs	r6, sl, r5, lsr #8
    99a8:	534c4146 	movtpl	r4, #49478	; 0xc146
    99ac:	253c2845 	ldrcs	r2, [ip, #-2117]!	; 0xfffff7bb
    99b0:	3a293e73 	bcc	a59384 <__bss_end__+0xa4f394>
    99b4:	73736120 	cmnvc	r3, #8
    99b8:	6e696d75 	mcrvs	13, 3, r6, cr9, cr5, {3}
    99bc:	6f702067 	svcvs	0x00702067
    99c0:	20726577 	rsbscs	r6, r2, r7, ror r5
    99c4:	7420666f 	strtvc	r6, [r0], #-1647	; 0xfffff991
    99c8:	000a6f77 	andeq	r6, sl, r7, ror pc
    99cc:	705f7369 	subsvc	r7, pc, r9, ror #6
    99d0:	2832776f 	ldmdacs	r2!, {r0, r1, r2, r3, r5, r6, r8, r9, sl, ip, sp, lr}
    99d4:	67696c61 	strbvs	r6, [r9, -r1, ror #24]!
    99d8:	6e656d6e 	cdpvs	13, 6, cr6, cr5, cr14, {3}
    99dc:	00002974 	andeq	r2, r0, r4, ror r9
    99e0:	705f7369 	subsvc	r7, pc, r9, ror #6
    99e4:	2832776f 	ldmdacs	r2!, {r0, r1, r2, r3, r5, r6, r8, r9, sl, ip, sp, lr}
    99e8:	0000296e 	andeq	r2, r0, lr, ror #18
    99ec:	4f525245 	svcmi	0x00525245
    99f0:	73253a52 			; <UNDEFINED> instruction: 0x73253a52
    99f4:	3a73253a 	bcc	1cd2ee4 <__bss_end__+0x1cc8ef4>
    99f8:	203a6425 	eorscs	r6, sl, r5, lsr #8
    99fc:	534c4146 	movtpl	r4, #49478	; 0xc146
    9a00:	253c2845 	ldrcs	r2, [ip, #-2117]!	; 0xfffff7bb
    9a04:	3a293e73 	bcc	a593d8 <__bss_end__+0xa4f3e8>
    9a08:	726c6120 	rsbvc	r6, ip, #8
    9a0c:	79646165 	stmdbvc	r4!, {r0, r2, r5, r6, r8, sp, lr}^
    9a10:	696e6920 	stmdbvs	lr!, {r5, r8, fp, sp, lr}^
    9a14:	6c616974 			; <UNDEFINED> instruction: 0x6c616974
    9a18:	64657a69 	strbtvs	r7, [r5], #-2665	; 0xfffff597
    9a1c:	0000000a 	andeq	r0, r0, sl
    9a20:	696e6921 	stmdbvs	lr!, {r0, r5, r8, fp, sp, lr}^
    9a24:	00705f74 	rsbseq	r5, r0, r4, ror pc

00009a28 <__FUNCTION__.3971>:
    9a28:	6c616d6b 	stclvs	13, cr6, [r1], #-428	; 0xfffffe54
    9a2c:	00636f6c 	rsbeq	r6, r3, ip, ror #30

00009a30 <__FUNCTION__.3978>:
    9a30:	6c616d6b 	stclvs	13, cr6, [r1], #-428	; 0xfffffe54
    9a34:	5f636f6c 	svcpl	0x00636f6c
    9a38:	67696c61 	strbvs	r6, [r9, -r1, ror #24]!
    9a3c:	0064656e 	rsbeq	r6, r4, lr, ror #10

00009a40 <__FUNCTION__.3967>:
    9a40:	6e756f72 	mrcvs	15, 3, r6, cr5, cr2, {3}
    9a44:	00707564 	rsbseq	r7, r0, r4, ror #10

00009a48 <__FUNCTION__.3983>:
    9a48:	6c616d6b 	stclvs	13, cr6, [r1], #-428	; 0xfffffe54
    9a4c:	5f636f6c 	svcpl	0x00636f6c
    9a50:	74696e69 	strbtvc	r6, [r9], #-3689	; 0xfffff197
    9a54:	7465735f 	strbtvc	r7, [r5], #-863	; 0xfffffca1
    9a58:	6174735f 	cmnvs	r4, pc, asr r3
    9a5c:	00007472 	andeq	r7, r0, r2, ror r4
    9a60:	696c2f2e 	stmdbvs	ip!, {r1, r2, r3, r5, r8, r9, sl, fp, sp}^
    9a64:	762f6362 	strtvc	r6, [pc], -r2, ror #6
    9a68:	72702d61 	rsbsvc	r2, r0, #6208	; 0x1840
    9a6c:	6b746e69 	blvs	1d25418 <__bss_end__+0x1d1b428>
    9a70:	0000632e 	andeq	r6, r0, lr, lsr #6
    9a74:	00000030 	andeq	r0, r0, r0, lsr r0
    9a78:	33323130 	teqcc	r2, #12
    9a7c:	37363534 			; <UNDEFINED> instruction: 0x37363534
    9a80:	00003938 	andeq	r3, r0, r8, lsr r9
    9a84:	33323130 	teqcc	r2, #12
    9a88:	37363534 			; <UNDEFINED> instruction: 0x37363534
    9a8c:	62613938 	rsbvs	r3, r1, #56, 18	; 0xe0000
    9a90:	66656463 	strbtvs	r6, [r5], -r3, ror #8
    9a94:	00000000 	andeq	r0, r0, r0
    9a98:	00003130 	andeq	r3, r0, r0, lsr r1
    9a9c:	63747570 	cmnvs	r4, #112, 10	; 0x1c000000
    9aa0:	0070665f 	rsbseq	r6, r0, pc, asr r6
    9aa4:	74646977 	strbtvc	r6, [r4], #-2423	; 0xfffff689
    9aa8:	203c2068 	eorscs	r2, ip, r8, rrx
    9aac:	00003233 	andeq	r3, r0, r3, lsr r2
    9ab0:	00786c6c 	rsbseq	r6, r8, ip, ror #24
    9ab4:	00646c6c 	rsbeq	r6, r4, ip, ror #24
    9ab8:	253d3078 	ldrcs	r3, [sp, #-120]!	; 0xffffff88
    9abc:	00000a78 	andeq	r0, r0, r8, ror sl
    9ac0:	253d3178 	ldrcs	r3, [sp, #-376]!	; 0xfffffe88
    9ac4:	00000a78 	andeq	r0, r0, r8, ror sl
    9ac8:	6e727473 	mrcvs	4, 3, r7, cr2, cr3, {3}
    9acc:	28706d63 	ldmdacs	r0!, {r0, r1, r5, r6, r8, sl, fp, sp, lr}^
    9ad0:	202c7974 	eorcs	r7, ip, r4, ror r9
    9ad4:	786c6c22 	stmdavc	ip!, {r1, r5, sl, fp, sp, lr}^
    9ad8:	33202c22 			; <UNDEFINED> instruction: 0x33202c22
    9adc:	3d3d2029 	ldccc	0, cr2, [sp, #-164]!	; 0xffffff5c
    9ae0:	7c203020 	stcvc	0, cr3, [r0], #-128	; 0xffffff80
    9ae4:	7473207c 	ldrbtvc	r2, [r3], #-124	; 0xffffff84
    9ae8:	6d636e72 	stclvs	14, cr6, [r3, #-456]!	; 0xfffffe38
    9aec:	79742870 	ldmdbvc	r4!, {r4, r5, r6, fp, sp}^
    9af0:	6c22202c 	stcvs	0, cr2, [r2], #-176	; 0xffffff50
    9af4:	2c22646c 	cfstrscs	mvf6, [r2], #-432	; 0xfffffe50
    9af8:	20293320 	eorcs	r3, r9, r0, lsr #6
    9afc:	30203d3d 	eorcc	r3, r0, sp, lsr sp
    9b00:	00000000 	andeq	r0, r0, r0
    9b04:	494e4150 	stmdbmi	lr, {r4, r6, r8, lr}^
    9b08:	73253a43 			; <UNDEFINED> instruction: 0x73253a43
    9b0c:	3a73253a 	bcc	1cd2ffc <__bss_end__+0x1cc900c>
    9b10:	693a6425 	ldmdbvs	sl!, {r0, r2, r5, sl, sp, lr}
    9b14:	736f706d 	cmnvc	pc, #109, 0	; 0x6d
    9b18:	6c626973 			; <UNDEFINED> instruction: 0x6c626973
    9b1c:	66203a65 	strtvs	r3, [r0], -r5, ror #20
    9b20:	3c3d746d 	cfldrscc	mvf7, [sp], #-436	; 0xfffffe4c
    9b24:	0a3e7325 	beq	fa67c0 <__bss_end__+0xf9c7d0>
    9b28:	0000000a 	andeq	r0, r0, sl
    9b2c:	494e4150 	stmdbmi	lr, {r4, r6, r8, lr}^
    9b30:	73253a43 			; <UNDEFINED> instruction: 0x73253a43
    9b34:	3a73253a 	bcc	1cd3024 <__bss_end__+0x1cc9034>
    9b38:	663a6425 	ldrtvs	r6, [sl], -r5, lsr #8
    9b3c:	74616f6c 	strbtvc	r6, [r1], #-3948	; 0xfffff094
    9b40:	746f6e20 	strbtvc	r6, [pc], #-3616	; 9b48 <__FUNCTION__.3983+0x100>
    9b44:	616e6520 	cmnvs	lr, r0, lsr #10
    9b48:	64656c62 	strbtvs	r6, [r5], #-3170	; 0xfffff39e
    9b4c:	0a212121 	beq	851fd8 <__bss_end__+0x847fe8>
    9b50:	00000000 	andeq	r0, r0, r0
    9b54:	6e697270 	mcrvs	2, 3, r7, cr9, cr0, {3}
    9b58:	203a6b74 	eorscs	r6, sl, r4, ror fp
    9b5c:	20746f6e 	rsbscs	r6, r4, lr, ror #30
    9b60:	646e6168 	strbtvs	r6, [lr], #-360	; 0xfffffe98
    9b64:	676e696c 	strbvs	r6, [lr, -ip, ror #18]!
    9b68:	65707320 	ldrbvs	r7, [r0, #-800]!	; 0xfffffce0
    9b6c:	69666963 	stmdbvs	r6!, {r0, r1, r5, r6, r8, fp, sp, lr}^
    9b70:	27207265 	strcs	r7, [r0, -r5, ror #4]!
    9b74:	20276325 	eorcs	r6, r7, r5, lsr #6
    9b78:	63736128 	cmnvs	r3, #10
    9b7c:	253d6969 	ldrcs	r6, [sp, #-2409]!	; 0xfffff697
    9b80:	000a2964 	andeq	r2, sl, r4, ror #18
    9b84:	494e4150 	stmdbmi	lr, {r4, r6, r8, lr}^
    9b88:	73253a43 			; <UNDEFINED> instruction: 0x73253a43
    9b8c:	3a73253a 	bcc	1cd307c <__bss_end__+0x1cc908c>
    9b90:	703a6425 	eorsvc	r6, sl, r5, lsr #8
    9b94:	746e6972 	strbtvc	r6, [lr], #-2418	; 0xfffff68e
    9b98:	7265206b 	rsbvc	r2, r5, #107, 0	; 0x6b
    9b9c:	0a726f72 	beq	1ca596c <__bss_end__+0x1c9b97c>
    9ba0:	0000000a 	andeq	r0, r0, sl

00009ba4 <__FUNCTION__.4008>:
    9ba4:	74696d65 	strbtvc	r6, [r9], #-3429	; 0xfffff29b
    9ba8:	00000000 	andeq	r0, r0, r0

00009bac <__FUNCTION__.3956>:
    9bac:	5f697072 	svcpl	0x00697072
    9bb0:	5f746573 	svcpl	0x00746573
    9bb4:	7074756f 	rsbsvc	r7, r4, pc, ror #10
    9bb8:	00007475 	andeq	r7, r0, r5, ror r4

00009bbc <__FUNCTION__.4034>:
    9bbc:	705f6176 	subsvc	r6, pc, r6, ror r1	; <UNPREDICTABLE>
    9bc0:	746e6972 	strbtvc	r6, [lr], #-2418	; 0xfffff68e
    9bc4:	0000006b 	andeq	r0, r0, fp, rrx
    9bc8:	454e4f44 	strbmi	r4, [lr, #-3908]	; 0xfffff0bc
    9bcc:	0a212121 	beq	852058 <__bss_end__+0x848068>
	...

Disassembly of section .data:

00009bd4 <rpi_putchar>:
    9bd4:	00008c60 	andeq	r8, r0, r0, ror #24

00009bd8 <putk>:
    9bd8:	00008c9c 	muleq	r0, ip, ip

Disassembly of section .bss:

00009bdc <__bss_start__>:
    9bdc:	00000000 	andeq	r0, r0, r0

00009be0 <heap_ptr>:
    9be0:	00000000 	andeq	r0, r0, r0

00009be4 <heap_end>:
    9be4:	00000000 	andeq	r0, r0, r0

00009be8 <heap_start>:
    9be8:	00000000 	andeq	r0, r0, r0

00009bec <buf.3948>:
	...

Disassembly of section .ARM.attributes:

00000000 <.ARM.attributes>:
   0:	00002a41 	andeq	r2, r0, r1, asr #20
   4:	61656100 	cmnvs	r5, r0, lsl #2
   8:	01006962 	tsteq	r0, r2, ror #18
   c:	00000020 	andeq	r0, r0, r0, lsr #32
  10:	4b5a3605 	blmi	168d82c <__bss_end__+0x168383c>
  14:	08070600 	stmdaeq	r7, {r9, sl}
  18:	12010901 	andne	r0, r1, #16384	; 0x4000
  1c:	15011404 	strne	r1, [r1, #-1028]	; 0xfffffbfc
  20:	18031701 	stmdane	r3, {r0, r8, r9, sl, ip}
  24:	22011a01 	andcs	r1, r1, #4096	; 0x1000
  28:	Address 0x0000000000000028 is out of bounds.


Disassembly of section .comment:

00000000 <.comment>:
   0:	3a434347 	bcc	10d0d24 <__bss_end__+0x10c6d34>
   4:	4e472820 	cdpmi	8, 4, cr2, cr7, cr0, {1}
   8:	6f542055 	svcvs	0x00542055
   c:	20736c6f 	rsbscs	r6, r3, pc, ror #24
  10:	20726f66 	rsbscs	r6, r2, r6, ror #30
  14:	206d7241 	rsbcs	r7, sp, r1, asr #4
  18:	65626d45 	strbvs	r6, [r2, #-3397]!	; 0xfffff2bb
  1c:	64656464 	strbtvs	r6, [r5], #-1124	; 0xfffffb9c
  20:	6f725020 	svcvs	0x00725020
  24:	73736563 	cmnvc	r3, #415236096	; 0x18c00000
  28:	2073726f 	rsbscs	r7, r3, pc, ror #4
  2c:	30322d39 	eorscc	r2, r2, r9, lsr sp
  30:	712d3931 			; <UNDEFINED> instruction: 0x712d3931
  34:	616d2d34 	cmnvs	sp, r4, lsr sp
  38:	29726f6a 	ldmdbcs	r2!, {r1, r3, r5, r6, r8, r9, sl, fp, sp, lr}^
  3c:	322e3920 	eorcc	r3, lr, #32, 18	; 0x80000
  40:	3220312e 	eorcc	r3, r0, #-2147483637	; 0x8000000b
  44:	31393130 	teqcc	r9, r0, lsr r1
  48:	20353230 	eorscs	r3, r5, r0, lsr r2
  4c:	6c657228 	sfmvs	f7, 2, [r5], #-160	; 0xffffff60
  50:	65736165 	ldrbvs	r6, [r3, #-357]!	; 0xfffffe9b
  54:	415b2029 	cmpmi	fp, r9, lsr #32
  58:	612f4d52 			; <UNDEFINED> instruction: 0x612f4d52
  5c:	392d6d72 	pushcc	{r1, r4, r5, r6, r8, sl, fp, sp, lr}
  60:	6172622d 	cmnvs	r2, sp, lsr #4
  64:	2068636e 	rsbcs	r6, r8, lr, ror #6
  68:	69766572 	ldmdbvs	r6!, {r1, r4, r5, r6, r8, sl, sp, lr}^
  6c:	6e6f6973 			; <UNDEFINED> instruction: 0x6e6f6973
  70:	37373220 	ldrcc	r3, [r7, -r0, lsr #4]!
  74:	5d393935 			; <UNDEFINED> instruction: 0x5d393935
  78:	43434700 	movtmi	r4, #14080	; 0x3700
  7c:	4728203a 			; <UNDEFINED> instruction: 0x4728203a
  80:	4120554e 			; <UNDEFINED> instruction: 0x4120554e
  84:	45206d72 	strmi	r6, [r0, #-3442]!	; 0xfffff28e
  88:	6465626d 	strbtvs	r6, [r5], #-621	; 0xfffffd93
  8c:	20646564 	rsbcs	r6, r4, r4, ror #10
  90:	6c6f6f54 	stclvs	15, cr6, [pc], #-336	; ffffff48 <__bss_end__+0xffff5f58>
  94:	69616863 	stmdbvs	r1!, {r0, r1, r5, r6, fp, sp, lr}^
  98:	3031206e 	eorscc	r2, r1, lr, rrx
  9c:	322d332e 	eorcc	r3, sp, #-1207959552	; 0xb8000000
  a0:	2e313230 	mrccs	2, 1, r3, cr1, cr0, {1}
  a4:	20293031 	eorcs	r3, r9, r1, lsr r0
  a8:	332e3031 			; <UNDEFINED> instruction: 0x332e3031
  ac:	3220312e 	eorcc	r3, r0, #-2147483637	; 0x8000000b
  b0:	30313230 	eorscc	r3, r1, r0, lsr r2
  b4:	20343238 	eorscs	r3, r4, r8, lsr r2
  b8:	6c657228 	sfmvs	f7, 2, [r5], #-160	; 0xffffff60
  bc:	65736165 	ldrbvs	r6, [r3, #-357]!	; 0xfffffe9b
  c0:	Address 0x00000000000000c0 is out of bounds.


Disassembly of section .debug_info:

00000000 <.debug_info>:
       0:	000003d9 	ldrdeq	r0, [r0], -r9
       4:	00000004 	andeq	r0, r0, r4
       8:	01040000 	mrseq	r0, (UNDEF: 4)
       c:	0000009d 	muleq	r0, sp, r0
      10:	0001520c 	andeq	r5, r1, ip, lsl #4
      14:	0001ab00 	andeq	sl, r1, r0, lsl #22
      18:	00803800 	addeq	r3, r0, r0, lsl #16
      1c:	00013c00 	andeq	r3, r1, r0, lsl #24
      20:	00000000 	andeq	r0, r0, r0
      24:	05040200 	streq	r0, [r4, #-512]	; 0xfffffe00
      28:	00746e69 	rsbseq	r6, r4, r9, ror #28
      2c:	67070403 	strvs	r0, [r7, -r3, lsl #8]
      30:	04000001 	streq	r0, [r0], #-1
      34:	0000002c 	andeq	r0, r0, ip, lsr #32
      38:	58060103 	stmdapl	r6, {r0, r1, r8}
      3c:	03000000 	movweq	r0, #0
      40:	01940502 	orrseq	r0, r4, r2, lsl #10
      44:	04030000 	streq	r0, [r3], #-0
      48:	00017f05 	andeq	r7, r1, r5, lsl #30
      4c:	05080300 	streq	r0, [r8, #-768]	; 0xfffffd00
      50:	0000017a 	andeq	r0, r0, sl, ror r1
      54:	56080103 	strpl	r0, [r8], -r3, lsl #2
      58:	03000000 	movweq	r0, #0
      5c:	006d0702 	rsbeq	r0, sp, r2, lsl #14
      60:	04030000 	streq	r0, [r3], #-0
      64:	00016207 	andeq	r6, r1, r7, lsl #4
      68:	07080300 	streq	r0, [r8, -r0, lsl #6]
      6c:	0000015d 	andeq	r0, r0, sp, asr r1
      70:	00002505 	andeq	r2, r0, r5, lsl #10
      74:	00007f00 	andeq	r7, r0, r0, lsl #30
      78:	00250600 	eoreq	r0, r5, r0, lsl #12
      7c:	07000000 	streq	r0, [r0, -r0]
      80:	00000188 	andeq	r0, r0, r8, lsl #3
      84:	8b0e1c02 	blhi	387094 <__bss_end__+0x37d0a4>
      88:	08000000 	stmdaeq	r0, {}	; <UNPREDICTABLE>
      8c:	00007004 	andeq	r7, r0, r4
      90:	00250500 	eoreq	r0, r5, r0, lsl #10
      94:	00a00000 	adceq	r0, r0, r0
      98:	a0060000 	andge	r0, r6, r0
      9c:	00000000 	andeq	r0, r0, r0
      a0:	00ad0408 	adceq	r0, sp, r8, lsl #8
      a4:	01030000 	mrseq	r0, (UNDEF: 3)
      a8:	00005f08 	andeq	r5, r0, r8, lsl #30
      ac:	00a60400 	adceq	r0, r6, r0, lsl #8
      b0:	a2070000 	andge	r0, r7, #0, 0
      b4:	02000006 	andeq	r0, r0, #6, 0
      b8:	00be0e21 	adcseq	r0, lr, r1, lsr #28
      bc:	04080000 	streq	r0, [r8], #-0
      c0:	00000091 	muleq	r0, r1, r0
      c4:	00002009 	andeq	r2, r0, r9
      c8:	17950300 	ldrne	r0, [r5, r0, lsl #6]
      cc:	00000033 	andeq	r0, r0, r3, lsr r0
      d0:	01740a10 	cmneq	r4, r0, lsl sl
      d4:	03040000 	movweq	r0, #16384	; 0x4000
      d8:	0000dd1c 	andeq	sp, r0, ip, lsl sp
      dc:	e3040800 	movw	r0, #18432	; 0x4800
      e0:	0b000000 	bleq	e8 <__code_start__-0x7f18>
      e4:	00000000 	andeq	r0, r0, r0
      e8:	5401070c 	strpl	r0, [r1], #-1804	; 0xfffff8f4
      ec:	01000000 	mrseq	r0, (UNDEF: 0)
      f0:	00fd060a 	rscseq	r0, sp, sl, lsl #12
      f4:	180d0000 	stmdane	sp, {}	; <UNPREDICTABLE>
      f8:	15000000 	strne	r0, [r0, #-0]
      fc:	003a0e00 	eorseq	r0, sl, r0, lsl #28
     100:	14010000 	strne	r0, [r1], #-0
     104:	0080a406 	addeq	sl, r0, r6, lsl #8
     108:	0000d000 	andeq	sp, r0, r0
     10c:	a09c0100 	addsge	r0, ip, r0, lsl #2
     110:	09000002 	stmdbeq	r0, {r1}
     114:	00000042 	andeq	r0, r0, r2, asr #32
     118:	2c0e1b01 			; <UNDEFINED> instruction: 0x2c0e1b01
     11c:	38000000 	stmdacc	r0, {}	; <UNPREDICTABLE>
     120:	0100680f 	tsteq	r0, pc, lsl #16
     124:	00d10b1c 	sbcseq	r0, r1, ip, lsl fp
     128:	00040000 	andeq	r0, r4, r0
     12c:	00000000 	andeq	r0, r0, r0
     130:	00100000 	andseq	r0, r0, r0
     134:	57000000 	strpl	r0, [r0, -r0]
     138:	0f000002 	svceq	0x00000002
     13c:	1f01006a 	svcne	0x0001006a
     140:	0000250d 	andeq	r2, r0, sp, lsl #10
     144:	00002600 	andeq	r2, r0, r0, lsl #12
     148:	00002200 	andeq	r2, r0, r0, lsl #4
     14c:	00181000 	andseq	r1, r8, r0
     150:	02400000 	subeq	r0, r0, #0, 0
     154:	690f0000 	stmdbvs	pc, {}	; <UNPREDICTABLE>
     158:	11210100 			; <UNDEFINED> instruction: 0x11210100
     15c:	00000025 	andeq	r0, r0, r5, lsr #32
     160:	0000004d 	andeq	r0, r0, sp, asr #32
     164:	00000045 	andeq	r0, r0, r5, asr #32
     168:	0002a011 	andeq	sl, r2, r1, lsl r0
     16c:	0080ec00 	addeq	lr, r0, r0, lsl #24
     170:	00300100 	eorseq	r0, r0, r0, lsl #2
     174:	22010000 	andcs	r0, r1, #0, 0
     178:	00022f0d 	andeq	r2, r2, sp, lsl #30
     17c:	02b71200 	adcseq	r1, r7, #0, 4
     180:	00860000 	addeq	r0, r6, r0
     184:	00840000 	addeq	r0, r4, r0
     188:	ad120000 	ldcge	0, cr0, [r2, #-0]
     18c:	9b000002 	blls	19c <__code_start__-0x7e64>
     190:	99000000 	stmdbls	r0, {}	; <UNPREDICTABLE>
     194:	13000000 	movwne	r0, #0
     198:	00008104 	andeq	r8, r0, r4, lsl #2
     19c:	00000388 	andeq	r0, r0, r8, lsl #7
     1a0:	000001c4 	andeq	r0, r0, r4, asr #3
     1a4:	02500114 	subseq	r0, r0, #5
     1a8:	01140075 	tsteq	r4, r5, ror r0
     1ac:	7e740251 	mrcvc	2, 3, r0, cr4, cr1, {2}
     1b0:	02520114 	subseq	r0, r2, #5
     1b4:	01140078 	tsteq	r4, r8, ror r0
     1b8:	00760253 	rsbseq	r0, r6, r3, asr r2
     1bc:	007d0214 	rsbseq	r0, sp, r4, lsl r2
     1c0:	00007602 	andeq	r7, r0, r2, lsl #12
     1c4:	00811c13 	addeq	r1, r1, r3, lsl ip
     1c8:	00038800 	andeq	r8, r3, r0, lsl #16
     1cc:	0001f100 	andeq	pc, r1, r0, lsl #2
     1d0:	50011400 	andpl	r1, r1, r0, lsl #8
     1d4:	14007502 	strne	r7, [r0], #-1282	; 0xfffffafe
     1d8:	74025101 	strvc	r5, [r2], #-257	; 0xfffffeff
     1dc:	5201147f 	andpl	r1, r1, #2130706432	; 0x7f000000
     1e0:	14007602 	strne	r7, [r0], #-1538	; 0xfffff9fe
     1e4:	78025301 	stmdavc	r2, {r0, r8, r9, ip, lr}
     1e8:	7d021400 	cfstrsvc	mvf1, [r2, #-0]
     1ec:	00760200 	rsbseq	r0, r6, r0, lsl #4
     1f0:	81341300 	teqhi	r4, r0, lsl #6
     1f4:	03880000 	orreq	r0, r8, #0, 0
     1f8:	021e0000 	andseq	r0, lr, #0, 0
     1fc:	01140000 	tsteq	r4, r0
     200:	00750250 	rsbseq	r0, r5, r0, asr r2
     204:	02510114 	subseq	r0, r1, #5
     208:	01140074 	tsteq	r4, r4, ror r0
     20c:	00760252 	rsbseq	r0, r6, r2, asr r2
     210:	02530114 	subseq	r0, r3, #5
     214:	02140076 	andseq	r0, r4, #118, 0	; 0x76
     218:	7802007d 	stmdavc	r2, {r0, r2, r3, r4, r5, r6}
     21c:	3c150000 	ldccc	0, cr0, [r5], {-0}
     220:	94000081 	strls	r0, [r0], #-129	; 0xffffff7f
     224:	14000003 	strne	r0, [r0], #-3
     228:	75025001 	strvc	r5, [r2, #-1]
     22c:	15000000 	strne	r0, [r0, #-0]
     230:	00008148 	andeq	r8, r0, r8, asr #2
     234:	000003a0 	andeq	r0, r0, r0, lsr #7
     238:	02500114 	subseq	r0, r0, #5
     23c:	00000077 	andeq	r0, r0, r7, ror r0
     240:	0080e415 	addeq	lr, r0, r5, lsl r4
     244:	0003ac00 	andeq	sl, r3, r0, lsl #24
     248:	50011400 	andpl	r1, r1, r0, lsl #8
     24c:	14007a02 	strne	r7, [r0], #-2562	; 0xfffff5fe
     250:	79025101 	stmdbvc	r2, {r0, r8, ip, lr}
     254:	16000000 	strne	r0, [r0], -r0
     258:	000080b0 	strheq	r8, [r0], -r0
     25c:	000003b8 			; <UNDEFINED> instruction: 0x000003b8
     260:	0080b813 	addeq	fp, r0, r3, lsl r8
     264:	0003c400 	andeq	ip, r3, r0, lsl #8
     268:	00027300 	andeq	r7, r2, r0, lsl #6
     26c:	50011400 	andpl	r1, r1, r0, lsl #8
     270:	13004501 	movwne	r4, #1281	; 0x501
     274:	000080c4 	andeq	r8, r0, r4, asr #1
     278:	000003d0 	ldrdeq	r0, [r0], -r0	; <UNPREDICTABLE>
     27c:	0000028c 	andeq	r0, r0, ip, lsl #5
     280:	01500114 	cmpeq	r0, r4, lsl r1
     284:	51011445 	tstpl	r1, r5, asr #8
     288:	00380802 	eorseq	r0, r8, r2, lsl #16
     28c:	00816c17 	addeq	r6, r1, r7, lsl ip
     290:	0003ac00 	andeq	sl, r3, r0, lsl #24
     294:	50011400 	andpl	r1, r1, r0, lsl #8
     298:	98640305 	stmdals	r4!, {r0, r2, r8, r9}^
     29c:	00000000 	andeq	r0, r0, r0
     2a0:	00000b18 	andeq	r0, r0, r8, lsl fp
     2a4:	060d0100 	streq	r0, [sp], -r0, lsl #2
     2a8:	0002c201 	andeq	ip, r2, r1, lsl #4
     2ac:	00681900 	rsbeq	r1, r8, r0, lsl #18
     2b0:	d1190d01 	tstle	r9, r1, lsl #26
     2b4:	19000000 	stmdbne	r0, {}	; <UNPREDICTABLE>
     2b8:	0d010069 	stceq	0, cr0, [r1, #-420]	; 0xfffffe5c
     2bc:	00002520 	andeq	r2, r0, r0, lsr #10
     2c0:	a01a0000 	andsge	r0, sl, r0
     2c4:	38000002 	stmdacc	r0, {r1}
     2c8:	6c000080 	stcvs	0, cr0, [r0], {128}	; 0x80
     2cc:	01000000 	mrseq	r0, (UNDEF: 0)
     2d0:	0003889c 	muleq	r3, ip, r8
     2d4:	02ad1200 	adceq	r1, sp, #0, 4
     2d8:	00b60000 	adcseq	r0, r6, r0
     2dc:	00ae0000 	adceq	r0, lr, r0
     2e0:	b7120000 	ldrlt	r0, [r2, -r0]
     2e4:	f3000002 	vhadd.u8	d0, d0, d2
     2e8:	ed000000 	stc	0, cr0, [r0, #-0]
     2ec:	13000000 	movwne	r0, #0
     2f0:	00008060 	andeq	r8, r0, r0, rrx
     2f4:	00000388 	andeq	r0, r0, r8, lsl #7
     2f8:	0000031c 	andeq	r0, r0, ip, lsl r3
     2fc:	02500114 	subseq	r0, r0, #5
     300:	01140074 	tsteq	r4, r4, ror r0
     304:	7e760251 	mrcvc	2, 3, r0, cr6, cr1, {2}
     308:	02520114 	subseq	r0, r2, #5
     30c:	0114ff09 	tsteq	r4, r9, lsl #30	; <UNPREDICTABLE>
     310:	00750253 	rsbseq	r0, r5, r3, asr r2
     314:	007d0214 	rsbseq	r0, sp, r4, lsl r2
     318:	00007502 	andeq	r7, r0, r2, lsl #10
     31c:	00807813 	addeq	r7, r0, r3, lsl r8
     320:	00038800 	andeq	r8, r3, r0, lsl #16
     324:	00034900 	andeq	r4, r3, r0, lsl #18
     328:	50011400 	andpl	r1, r1, r0, lsl #8
     32c:	14007402 	strne	r7, [r0], #-1026	; 0xfffffbfe
     330:	76025101 	strvc	r5, [r2], -r1, lsl #2
     334:	5201147f 	andpl	r1, r1, #2130706432	; 0x7f000000
     338:	14007502 	strne	r7, [r0], #-1282	; 0xfffffafe
     33c:	09025301 	stmdbeq	r2, {r0, r8, r9, ip, lr}
     340:	7d0214ff 	cfstrsvc	mvf1, [r2, #-1020]	; 0xfffffc04
     344:	00750200 	rsbseq	r0, r5, r0, lsl #4
     348:	80941300 	addshi	r1, r4, r0, lsl #6
     34c:	03880000 	orreq	r0, r8, #0, 0
     350:	03760000 	cmneq	r6, #0, 0
     354:	01140000 	tsteq	r4, r0
     358:	00740250 	rsbseq	r0, r4, r0, asr r2
     35c:	02510114 	subseq	r0, r1, #5
     360:	01140076 	tsteq	r4, r6, ror r0
     364:	00750252 	rsbseq	r0, r5, r2, asr r2
     368:	02530114 	subseq	r0, r3, #5
     36c:	02140075 	andseq	r0, r4, #117, 0	; 0x75
     370:	0902007d 	stmdbeq	r2, {r0, r2, r3, r4, r5, r6}
     374:	a41700ff 	ldrge	r0, [r7], #-255	; 0xffffff01
     378:	94000080 	strls	r0, [r0], #-128	; 0xffffff80
     37c:	14000003 	strne	r0, [r0], #-3
     380:	f3035001 	vhadd.u8	d5, d3, d1
     384:	00005001 	andeq	r5, r0, r1
     388:	00002d1b 	andeq	r2, r0, fp, lsl sp
     38c:	00002d00 	andeq	r2, r0, r0, lsl #26
     390:	060c0400 	streq	r0, [ip], -r0, lsl #8
     394:	0000801b 	andeq	r8, r0, fp, lsl r0
     398:	00008000 	andeq	r8, r0, r0
     39c:	060d0400 	streq	r0, [sp], -r0, lsl #8
     3a0:	0000641b 	andeq	r6, r0, fp, lsl r4
     3a4:	00006400 	andeq	r6, r0, r0, lsl #8
     3a8:	06580200 	ldrbeq	r0, [r8], -r0, lsl #4
     3ac:	00062b1b 	andeq	r2, r6, fp, lsl fp
     3b0:	00062b00 	andeq	r2, r6, r0, lsl #22
     3b4:	06280200 	strteq	r0, [r8], -r0, lsl #4
     3b8:	00019e1b 	andeq	r9, r1, fp, lsl lr
     3bc:	00019e00 	andeq	r9, r1, r0, lsl #28
     3c0:	06a20200 	strteq	r0, [r2], r0, lsl #4
     3c4:	00008d1b 	andeq	r8, r0, fp, lsl sp
     3c8:	00008d00 	andeq	r8, r0, r0, lsl #26
     3cc:	061d0500 	ldreq	r0, [sp], -r0, lsl #10
     3d0:	00004a1b 	andeq	r4, r0, fp, lsl sl
     3d4:	00004a00 	andeq	r4, r0, r0, lsl #20
     3d8:	07060400 	streq	r0, [r6, -r0, lsl #8]
     3dc:	00320000 	eorseq	r0, r2, r0
     3e0:	85000400 	strhi	r0, [r0, #-1024]	; 0xfffffc00
     3e4:	04000001 	streq	r0, [r0], #-1
     3e8:	00009d01 	andeq	r9, r0, r1, lsl #26
     3ec:	028b0c00 	addeq	r0, fp, #0, 24
     3f0:	01ab0000 			; <UNDEFINED> instruction: 0x01ab0000
     3f4:	81740000 	cmnhi	r4, r0
     3f8:	06300000 	ldrteq	r0, [r0], -r0
     3fc:	016b0000 	cmneq	fp, r0
     400:	04020000 	streq	r0, [r2], #-0
     404:	746e6905 	strbtvc	r6, [lr], #-2309	; 0xfffff6fb
     408:	07040300 	streq	r0, [r4, -r0, lsl #6]
     40c:	00000167 	andeq	r0, r0, r7, ror #2
     410:	00002c04 	andeq	r2, r0, r4, lsl #24
     414:	002c0500 	eoreq	r0, ip, r0, lsl #10
     418:	01030000 	mrseq	r0, (UNDEF: 3)
     41c:	00005806 	andeq	r5, r0, r6, lsl #16
     420:	05020300 	streq	r0, [r2, #-768]	; 0xfffffd00
     424:	00000194 	muleq	r0, r4, r1
     428:	7f050403 	svcvc	0x00050403
     42c:	03000001 	movweq	r0, #1
     430:	017a0508 	cmneq	sl, r8, lsl #10
     434:	19060000 	stmdbne	r6, {}	; <UNPREDICTABLE>
     438:	03000002 	movweq	r0, #2
     43c:	0065182e 	rsbeq	r1, r5, lr, lsr #16
     440:	01030000 	mrseq	r0, (UNDEF: 3)
     444:	00005608 	andeq	r5, r0, r8, lsl #12
     448:	07020300 	streq	r0, [r2, -r0, lsl #6]
     44c:	0000006d 	andeq	r0, r0, sp, rrx
     450:	00026906 	andeq	r6, r2, r6, lsl #18
     454:	19340300 	ldmdbne	r4!, {r8, r9}
     458:	0000007f 	andeq	r0, r0, pc, ror r0
     45c:	62070403 	andvs	r0, r7, #50331648	; 0x3000000
     460:	03000001 	movweq	r0, #1
     464:	015d0708 	cmpeq	sp, r8, lsl #14
     468:	25070000 	strcs	r0, [r7, #-0]
     46c:	9c000000 	stcls	0, cr0, [r0], {-0}
     470:	08000000 	stmdaeq	r0, {}	; <UNPREDICTABLE>
     474:	00000025 	andeq	r0, r0, r5, lsr #32
     478:	01880900 	orreq	r0, r8, r0, lsl #18
     47c:	1c040000 	stcne	0, cr0, [r4], {-0}
     480:	0000a80e 	andeq	sl, r0, lr, lsl #16
     484:	8d040a00 	vstrhi	s0, [r4, #-0]
     488:	07000000 	streq	r0, [r0, -r0]
     48c:	00000025 	andeq	r0, r0, r5, lsr #32
     490:	000000bd 	strheq	r0, [r0], -sp
     494:	0000bd08 	andeq	fp, r0, r8, lsl #26
     498:	040a0000 	streq	r0, [sl], #-0
     49c:	000000ca 	andeq	r0, r0, sl, asr #1
     4a0:	5f080103 	svcpl	0x00080103
     4a4:	04000000 	streq	r0, [r0], #-0
     4a8:	000000c3 	andeq	r0, r0, r3, asr #1
     4ac:	0006a209 	andeq	sl, r6, r9, lsl #4
     4b0:	0e210400 	cdpeq	4, 2, cr0, cr1, cr0, {0}
     4b4:	000000db 	ldrdeq	r0, [r0], -fp
     4b8:	00ae040a 	adceq	r0, lr, sl, lsl #8
     4bc:	74060000 	strvc	r0, [r6], #-0
     4c0:	05000001 	streq	r0, [r0, #-1]
     4c4:	00ed1c03 	rsceq	r1, sp, r3, lsl #24
     4c8:	040a0000 	streq	r0, [sl], #-0
     4cc:	000000f3 	strdeq	r0, [r0], -r3
     4d0:	0000000b 	andeq	r0, r0, fp
     4d4:	16010800 	strne	r0, [r1], -r0, lsl #16
     4d8:	00012808 	andeq	r2, r1, r8, lsl #16
     4dc:	69700c00 	ldmdbvs	r0!, {sl, fp}^
     4e0:	1701006e 	strne	r0, [r1, -lr, rrx]
     4e4:	0000590d 	andeq	r5, r0, sp, lsl #18
     4e8:	720d0000 	andvc	r0, sp, #0, 0
     4ec:	01000002 	tsteq	r0, r2
     4f0:	00730e18 	rsbseq	r0, r3, r8, lsl lr
     4f4:	0d040000 	stceq	0, cr0, [r4, #-0]
     4f8:	00000043 	andeq	r0, r0, r3, asr #32
     4fc:	94161b01 	ldrls	r1, [r6], #-2817	; 0xfffff4ff
     500:	08000001 	stmdaeq	r0, {r0}
     504:	02070e00 	andeq	r0, r7, #0, 28
     508:	0000006c 	andeq	r0, r0, ip, rrx
     50c:	580a4b02 	stmdapl	sl, {r1, r8, r9, fp, lr}
     510:	0f000001 	svceq	0x00000001
     514:	00483154 	subeq	r3, r8, r4, asr r1
     518:	54100230 	ldrpl	r0, [r0], #-560	; 0xfffffdd0
     51c:	af004830 	svcge	0x00004830
     520:	4c315410 	cfldrsmi	mvf5, [r1], #-64	; 0xffffffc0
     524:	540faf00 	strpl	sl, [pc], #-3840	; 52c <__code_start__-0x7ad4>
     528:	30004c30 	andcc	r4, r0, r0, lsr ip
     52c:	02cc1102 	sbceq	r1, ip, #-2147483648	; 0x80000000
     530:	88b80000 	ldmhi	r8!, {}	; <UNPREDICTABLE>
     534:	00201200 	eoreq	r1, r0, r0, lsl #4
     538:	95020000 	strls	r0, [r2, #-0]
     53c:	00003317 	andeq	r3, r0, r7, lsl r3
     540:	000b1000 	andeq	r1, fp, r0
     544:	03000002 	movweq	r0, #2
     548:	94081001 	strls	r1, [r8], #-1
     54c:	0c000001 	stceq	0, cr0, [r0], {1}
     550:	11010072 	tstne	r1, r2, ror r0
     554:	0000590d 	andeq	r5, r0, sp, lsl #18
     558:	670c0000 	strvs	r0, [ip, -r0]
     55c:	0f110100 	svceq	0x00110100
     560:	00000059 	andeq	r0, r0, r9, asr r0
     564:	00620c01 	rsbeq	r0, r2, r1, lsl #24
     568:	59111101 	ldmdbpl	r1, {r0, r8, ip}
     56c:	02000000 	andeq	r0, r0, #0, 0
     570:	01651300 	cmneq	r5, r0, lsl #6
     574:	01a30000 			; <UNDEFINED> instruction: 0x01a30000
     578:	2c140000 	ldccs	0, cr0, [r4], {-0}
     57c:	00000000 	andeq	r0, r0, r0
     580:	00002d15 	andeq	r2, r0, r5, lsl sp
     584:	06450100 	strbeq	r0, [r5], -r0, lsl #2
     588:	00008780 	andeq	r8, r0, r0, lsl #15
     58c:	00000024 	andeq	r0, r0, r4, lsr #32
     590:	02059c01 	andeq	r9, r5, #256	; 0x100
     594:	68160000 	ldmdavs	r6, {}	; <UNPREDICTABLE>
     598:	19450100 	stmdbne	r5, {r8}^
     59c:	000000e1 	andeq	r0, r0, r1, ror #1
     5a0:	00000123 	andeq	r0, r0, r3, lsr #2
     5a4:	0000011f 	andeq	r0, r0, pc, lsl r1
     5a8:	736f7016 	cmnvc	pc, #22, 0
     5ac:	25450100 	strbcs	r0, [r5, #-256]	; 0xffffff00
     5b0:	00000073 	andeq	r0, r0, r3, ror r0
     5b4:	00000148 	andeq	r0, r0, r8, asr #2
     5b8:	00000144 	andeq	r0, r0, r4, asr #2
     5bc:	01007217 	tsteq	r0, r7, lsl r2
     5c0:	00593245 	subseq	r3, r9, r5, asr #4
     5c4:	52010000 	andpl	r0, r1, #0, 0
     5c8:	01006717 	tsteq	r0, r7, lsl r7
     5cc:	00593d45 	subseq	r3, r9, r5, asr #26
     5d0:	53010000 	movwpl	r0, #4096	; 0x1000
     5d4:	01006217 	tsteq	r0, r7, lsl r2
     5d8:	00594845 	subseq	r4, r9, r5, asr #16
     5dc:	91020000 	mrsls	r0, (UNDEF: 2)
     5e0:	28150000 	ldmdacs	r5, {}	; <UNPREDICTABLE>
     5e4:	01000002 	tsteq	r0, r2
     5e8:	86900640 	ldrhi	r0, [r0], r0, asr #12
     5ec:	00f00000 	rscseq	r0, r0, r0
     5f0:	9c010000 	stcls	0, cr0, [r1], {-0}
     5f4:	000009d7 	ldrdeq	r0, [r0], -r7
     5f8:	01006816 	tsteq	r0, r6, lsl r8
     5fc:	00e11940 	rsceq	r1, r1, r0, asr #18
     600:	016d0000 	cmneq	sp, r0
     604:	01690000 	cmneq	r9, r0
     608:	d7180000 	ldrle	r0, [r8, -r0]
     60c:	98000009 	stmdals	r0, {r0, r3}
     610:	00000086 	andeq	r0, r0, r6, lsl #1
     614:	00227800 	eoreq	r7, r2, r0, lsl #16
     618:	05410100 	strbeq	r0, [r1, #-256]	; 0xffffff00
     61c:	0009ee19 	andeq	lr, r9, r9, lsl lr
     620:	00019200 	andeq	r9, r1, r0, lsl #4
     624:	00018e00 	andeq	r8, r1, r0, lsl #28
     628:	09e41900 	stmibeq	r4!, {r8, fp, ip}^
     62c:	01b50000 			; <UNDEFINED> instruction: 0x01b50000
     630:	01b10000 			; <UNDEFINED> instruction: 0x01b10000
     634:	f81a0000 			; <UNDEFINED> instruction: 0xf81a0000
     638:	90000009 	andls	r0, r0, r9
     63c:	cc000023 	stcgt	0, cr0, [r0], {35}	; 0x23
     640:	1b000009 	blne	66c <__code_start__-0x7994>
     644:	000009f9 	strdeq	r0, [r0], -r9
     648:	000001da 	ldrdeq	r0, [r0], -sl
     64c:	000001d6 	ldrdeq	r0, [r0], -r6
     650:	00280a18 	eoreq	r0, r8, r8, lsl sl
     654:	0086b400 	addeq	fp, r6, r0, lsl #8
     658:	a0000200 	andge	r0, r0, r0, lsl #4
     65c:	01000024 	tsteq	r0, r4, lsr #32
     660:	3719093c 			; <UNDEFINED> instruction: 0x3719093c
     664:	fb000028 	blx	70e <__code_start__-0x78f2>
     668:	f9000001 			; <UNDEFINED> instruction: 0xf9000001
     66c:	19000001 	stmdbne	r0, {r0}
     670:	0000282d 	andeq	r2, r0, sp, lsr #16
     674:	000001fb 	strdeq	r0, [r0], -fp
     678:	000001f9 	strdeq	r0, [r0], -r9
     67c:	00282319 	eoreq	r2, r8, r9, lsl r3
     680:	0001fb00 	andeq	pc, r1, r0, lsl #22
     684:	0001f900 	andeq	pc, r1, r0, lsl #18
     688:	28171c00 	ldmdacs	r7, {sl, fp, ip}
     68c:	421d0000 	andsmi	r0, sp, #0, 0
     690:	b4000028 	strlt	r0, [r0], #-40	; 0xffffffd8
     694:	04000086 	streq	r0, [r0], #-134	; 0xffffff7a
     698:	0025c800 	eoreq	ip, r5, r0, lsl #16
     69c:	05e40200 	strbeq	r0, [r4, #512]!	; 0x200
     6a0:	00000520 	andeq	r0, r0, r0, lsr #10
     6a4:	00285b19 	eoreq	r5, r8, r9, lsl fp
     6a8:	00021100 	andeq	r1, r2, r0, lsl #2
     6ac:	00020f00 	andeq	r0, r2, r0, lsl #30
     6b0:	284f1c00 	stmdacs	pc, {sl, fp, ip}^	; <UNPREDICTABLE>
     6b4:	651e0000 	ldrvs	r0, [lr, #-0]
     6b8:	48000028 	stmdami	r0, {r3, r5}
     6bc:	1b000026 	blne	75c <__code_start__-0x78a4>
     6c0:	00002866 	andeq	r2, r0, r6, ror #16
     6c4:	00000227 	andeq	r0, r0, r7, lsr #4
     6c8:	00000225 	andeq	r0, r0, r5, lsr #4
     6cc:	00287218 	eoreq	r7, r8, r8, lsl r2
     6d0:	0086b800 	addeq	fp, r6, r0, lsl #16
     6d4:	c0000100 	andgt	r0, r0, r0, lsl #2
     6d8:	02000026 	andeq	r0, r0, #38, 0	; 0x26
     6dc:	8b1909da 	blhi	642e4c <__bss_end__+0x638e5c>
     6e0:	3d000028 	stccc	0, cr0, [r0, #-160]	; 0xffffff60
     6e4:	3b000002 	blcc	6f4 <__code_start__-0x790c>
     6e8:	1c000002 	stcne	0, cr0, [r0], {2}
     6ec:	0000287f 	andeq	r2, r0, pc, ror r8
     6f0:	0028fe1d 	eoreq	pc, r8, sp, lsl lr	; <UNPREDICTABLE>
     6f4:	0086b800 	addeq	fp, r6, r0, lsl #16
     6f8:	30000400 	andcc	r0, r0, r0, lsl #8
     6fc:	02000027 	andeq	r0, r0, #39, 0	; 0x27
     700:	041b09ce 	ldreq	r0, [fp], #-2510	; 0xfffff632
     704:	0b1c0000 	bleq	70070c <__bss_end__+0x6f671c>
     708:	18000029 	stmdane	r0, {r0, r3, r5}
     70c:	00002966 	andeq	r2, r0, r6, ror #18
     710:	000086b8 			; <UNDEFINED> instruction: 0x000086b8
     714:	27700006 	ldrbcs	r0, [r0, -r6]!
     718:	b0020000 	andlt	r0, r2, r0
     71c:	297f1905 	ldmdbcs	pc!, {r0, r2, r8, fp, ip}^	; <UNPREDICTABLE>
     720:	02530000 	subseq	r0, r3, #0, 0
     724:	02510000 	subseq	r0, r1, #0, 0
     728:	731c0000 	tstvc	ip, #0, 0
     72c:	1d000029 	stcne	0, cr0, [r0, #-164]	; 0xffffff5c
     730:	000029fa 	strdeq	r2, [r0], -sl
     734:	000086b8 			; <UNDEFINED> instruction: 0x000086b8
     738:	27a80008 	strcs	r0, [r8, r8]!
     73c:	9d020000 	stcls	0, cr0, [r2, #-0]
     740:	00038105 	andeq	r8, r3, r5, lsl #2
     744:	2a071c00 	bcs	1c774c <__bss_end__+0x1bd75c>
     748:	a81f0000 	ldmdage	pc, {}	; <UNPREDICTABLE>
     74c:	1b000027 	blne	7f0 <__code_start__-0x7810>
     750:	00002a13 	andeq	r2, r0, r3, lsl sl
     754:	0000026a 	andeq	r0, r0, sl, ror #4
     758:	00000268 	andeq	r0, r0, r8, ror #4
     75c:	8b200000 	blhi	800764 <__bss_end__+0x7f6774>
     760:	bc000029 	stclt	0, cr0, [r0], {41}	; 0x29
     764:	04000086 	streq	r0, [r0], #-134	; 0xffffff7a
     768:	a0000000 	andge	r0, r0, r0
     76c:	1b000003 	blne	780 <__code_start__-0x7880>
     770:	0000298c 	andeq	r2, r0, ip, lsl #19
     774:	00000284 	andeq	r0, r0, r4, lsl #5
     778:	00000282 	andeq	r0, r0, r2, lsl #5
     77c:	299a1800 	ldmibcs	sl, {fp, ip}
     780:	86c00000 	strbhi	r0, [r0], r0
     784:	00020000 	andeq	r0, r2, r0
     788:	000027c8 	andeq	r2, r0, r8, asr #15
     78c:	19059e02 	stmdbne	r5, {r1, r9, sl, fp, ip, pc}
     790:	000029b3 			; <UNDEFINED> instruction: 0x000029b3
     794:	00000299 	muleq	r0, r9, r2
     798:	00000297 	muleq	r0, r7, r2
     79c:	0029a719 	eoreq	sl, r9, r9, lsl r7
     7a0:	0002b000 	andeq	fp, r2, r0
     7a4:	0002ae00 	andeq	sl, r2, r0, lsl #28
     7a8:	299a2100 	ldmibcs	sl, {r8, sp}
     7ac:	86c00000 	strbhi	r0, [r0], r0
     7b0:	00040000 	andeq	r0, r4, r0
     7b4:	000086c0 	andeq	r8, r0, r0, asr #13
     7b8:	00000010 	andeq	r0, r0, r0, lsl r0
     7bc:	19147f02 	ldmdbne	r4, {r1, r8, r9, sl, fp, ip, sp, lr}
     7c0:	000029b3 			; <UNDEFINED> instruction: 0x000029b3
     7c4:	000002c7 	andeq	r0, r0, r7, asr #5
     7c8:	000002c3 	andeq	r0, r0, r3, asr #5
     7cc:	0029a719 	eoreq	sl, r9, r9, lsl r7
     7d0:	0002eb00 	andeq	lr, r2, r0, lsl #22
     7d4:	0002e900 	andeq	lr, r2, r0, lsl #18
     7d8:	29bf2200 	ldmibcs	pc!, {r9, sp}	; <UNPREDICTABLE>
     7dc:	86c00000 	strbhi	r0, [r0], r0
     7e0:	00040000 	andeq	r0, r4, r0
     7e4:	c01b0000 	andsgt	r0, fp, r0
     7e8:	00000029 	andeq	r0, r0, r9, lsr #32
     7ec:	fe000003 	cdp2	0, 0, cr0, cr0, cr3, {0}
     7f0:	00000002 	andeq	r0, r0, r2
     7f4:	00000000 	andeq	r0, r0, r0
     7f8:	0028ca18 	eoreq	ip, r8, r8, lsl sl
     7fc:	0086d000 	addeq	sp, r6, r0
     800:	00000200 	andeq	r0, r0, r0, lsl #4
     804:	02000027 	andeq	r0, r0, #39, 0	; 0x27
     808:	d71c09cf 	ldrle	r0, [ip, -pc, asr #19]
     80c:	18000028 	stmdane	r0, {r3, r5}
     810:	00002932 	andeq	r2, r0, r2, lsr r9
     814:	000086d0 	ldrdeq	r8, [r0], -r0
     818:	27080004 	strcs	r0, [r8, -r4]
     81c:	b8020000 	stmdalt	r2, {}	; <UNPREDICTABLE>
     820:	294b1905 	stmdbcs	fp, {r0, r2, r8, fp, ip}^
     824:	03150000 	tsteq	r5, #0, 0
     828:	03130000 	tsteq	r3, #0, 0
     82c:	3f1c0000 	svccc	0x001c0000
     830:	23000029 	movwcs	r0, #41	; 0x29
     834:	000029ce 	andeq	r2, r0, lr, asr #19
     838:	000086d0 	ldrdeq	r8, [r0], -r0
     83c:	86d00006 	ldrbhi	r0, [r0], r6
     840:	00040000 	andeq	r0, r4, r0
     844:	a5020000 	strge	r0, [r2, #-0]
     848:	00048305 	andeq	r8, r4, r5, lsl #6
     84c:	29db1c00 	ldmibcs	fp, {sl, fp, ip}^
     850:	e71b0000 	ldr	r0, [fp, -r0]
     854:	2d000029 	stccs	0, cr0, [r0, #-164]	; 0xffffff5c
     858:	2b000003 	blcs	86c <__code_start__-0x7794>
     85c:	00000003 	andeq	r0, r0, r3
     860:	00295720 	eoreq	r5, r9, r0, lsr #14
     864:	0086d400 	addeq	sp, r6, r0, lsl #8
     868:	00000400 	andeq	r0, r0, r0, lsl #8
     86c:	0004a200 	andeq	sl, r4, r0, lsl #4
     870:	29581b00 	ldmdbcs	r8, {r8, r9, fp, ip}^
     874:	03470000 	movteq	r0, #28672	; 0x7000
     878:	03450000 	movteq	r0, #20480	; 0x5000
     87c:	18000000 	stmdane	r0, {}	; <UNPREDICTABLE>
     880:	0000299a 	muleq	r0, sl, r9
     884:	000086d8 	ldrdeq	r8, [r0], -r8	; <UNPREDICTABLE>
     888:	27e00002 	strbcs	r0, [r0, r2]!
     88c:	a6020000 	strge	r0, [r2], -r0
     890:	29b31905 	ldmibcs	r3!, {r0, r2, r8, fp, ip}
     894:	035c0000 	cmpeq	ip, #0, 0
     898:	035a0000 	cmpeq	sl, #0, 0
     89c:	a7190000 	ldrge	r0, [r9, -r0]
     8a0:	74000029 	strvc	r0, [r0], #-41	; 0xffffffd7
     8a4:	72000003 	andvc	r0, r0, #3, 0
     8a8:	21000003 	tstcs	r0, r3
     8ac:	0000299a 	muleq	r0, sl, r9
     8b0:	000086d8 	ldrdeq	r8, [r0], -r8	; <UNPREDICTABLE>
     8b4:	86d80004 	ldrbhi	r0, [r8], r4
     8b8:	00100000 	andseq	r0, r0, r0
     8bc:	7f020000 	svcvc	0x00020000
     8c0:	29b31914 	ldmibcs	r3!, {r2, r4, r8, fp, ip}
     8c4:	038b0000 	orreq	r0, fp, #0, 0
     8c8:	03870000 	orreq	r0, r7, #0, 0
     8cc:	a7190000 	ldrge	r0, [r9, -r0]
     8d0:	b1000029 	tstlt	r0, r9, lsr #32
     8d4:	af000003 	svcge	0x00000003
     8d8:	22000003 	andcs	r0, r0, #3, 0
     8dc:	000029bf 			; <UNDEFINED> instruction: 0x000029bf
     8e0:	000086d8 	ldrdeq	r8, [r0], -r8	; <UNPREDICTABLE>
     8e4:	00000004 	andeq	r0, r0, r4
     8e8:	0029c01b 	eoreq	ip, r9, fp, lsl r0
     8ec:	0003c600 	andeq	ip, r3, r0, lsl #12
     8f0:	0003c400 	andeq	ip, r3, r0, lsl #8
	...
     8fc:	28422400 	stmdacs	r2, {sl, sp}^
     900:	27f80000 	ldrbcs	r0, [r8, r0]!
     904:	e5020000 	str	r0, [r2, #-0]
     908:	00077705 	andeq	r7, r7, r5, lsl #14
     90c:	285b1c00 	ldmdacs	fp, {sl, fp, ip}^
     910:	4f1c0000 	svcmi	0x001c0000
     914:	1e000028 	cdpne	0, 0, cr0, cr0, cr8, {1}
     918:	00002865 	andeq	r2, r0, r5, ror #16
     91c:	000027f8 	strdeq	r2, [r0], -r8
     920:	00286625 	eoreq	r6, r8, r5, lsr #12
     924:	28721800 	ldmdacs	r2!, {fp, ip}^
     928:	86f40000 	ldrbthi	r0, [r4], r0
     92c:	00020000 	andeq	r0, r2, r0
     930:	00002858 	andeq	r2, r0, r8, asr r8
     934:	1909da02 	stmdbne	r9, {r1, r9, fp, ip, lr, pc}
     938:	0000288b 	andeq	r2, r0, fp, lsl #17
     93c:	000003db 	ldrdeq	r0, [r0], -fp
     940:	000003d9 	ldrdeq	r0, [r0], -r9
     944:	00287f1c 	eoreq	r7, r8, ip, lsl pc
     948:	28fe1d00 	ldmcs	lr!, {r8, sl, fp, ip}^
     94c:	86f40000 	ldrbthi	r0, [r4], r0
     950:	00050000 	andeq	r0, r5, r0
     954:	000028b8 			; <UNDEFINED> instruction: 0x000028b8
     958:	7209ce02 	andvc	ip, r9, #2, 28
     95c:	1c000006 	stcne	0, cr0, [r0], {6}
     960:	0000290b 	andeq	r2, r0, fp, lsl #18
     964:	00296618 	eoreq	r6, r9, r8, lsl r6
     968:	0086f400 	addeq	pc, r6, r0, lsl #8
     96c:	c0000700 	andgt	r0, r0, r0, lsl #14
     970:	02000028 	andeq	r0, r0, #40, 0	; 0x28
     974:	7f1905b0 	svcvc	0x001905b0
     978:	f1000029 			; <UNDEFINED> instruction: 0xf1000029
     97c:	ef000003 	svc	0x00000003
     980:	1c000003 	stcne	0, cr0, [r0], {3}
     984:	00002973 	andeq	r2, r0, r3, ror r9
     988:	0029fa23 	eoreq	pc, r9, r3, lsr #20
     98c:	0086f400 	addeq	pc, r6, r0, lsl #8
     990:	f4000900 	vst2.8	{d0,d2}, [r0], r0
     994:	04000086 	streq	r0, [r0], #-134	; 0xffffff7a
     998:	02000000 	andeq	r0, r0, #0, 0
     99c:	05d8059d 	ldrbeq	r0, [r8, #1437]	; 0x59d
     9a0:	071c0000 	ldreq	r0, [ip, -r0]
     9a4:	1b00002a 	blne	a54 <__code_start__-0x75ac>
     9a8:	00002a13 	andeq	r2, r0, r3, lsl sl
     9ac:	00000408 	andeq	r0, r0, r8, lsl #8
     9b0:	00000406 	andeq	r0, r0, r6, lsl #8
     9b4:	298b2000 	stmibcs	fp, {sp}
     9b8:	86f80000 	ldrbthi	r0, [r8], r0
     9bc:	00040000 	andeq	r0, r4, r0
     9c0:	05f70000 	ldrbeq	r0, [r7, #0]!
     9c4:	8c1b0000 	ldchi	0, cr0, [fp], {-0}
     9c8:	22000029 	andcs	r0, r0, #41, 0	; 0x29
     9cc:	20000004 	andcs	r0, r0, r4
     9d0:	00000004 	andeq	r0, r0, r4
     9d4:	00299a18 	eoreq	r9, r9, r8, lsl sl
     9d8:	0086fc00 	addeq	pc, r6, r0, lsl #24
     9dc:	e8000200 	stmda	r0, {r9}
     9e0:	02000028 	andeq	r0, r0, #40, 0	; 0x28
     9e4:	b319059e 	tstlt	r9, #662700032	; 0x27800000
     9e8:	37000029 	strcc	r0, [r0, -r9, lsr #32]
     9ec:	35000004 	strcc	r0, [r0, #-4]
     9f0:	19000004 	stmdbne	r0, {r2}
     9f4:	000029a7 	andeq	r2, r0, r7, lsr #19
     9f8:	0000044e 	andeq	r0, r0, lr, asr #8
     9fc:	0000044c 	andeq	r0, r0, ip, asr #8
     a00:	00299a21 	eoreq	r9, r9, r1, lsr #20
     a04:	0086fc00 	addeq	pc, r6, r0, lsl #24
     a08:	fc000400 	stc2	4, cr0, [r0], {-0}
     a0c:	10000086 	andne	r0, r0, r6, lsl #1
     a10:	02000000 	andeq	r0, r0, #0, 0
     a14:	b319147f 	tstlt	r9, #2130706432	; 0x7f000000
     a18:	65000029 	strvs	r0, [r0, #-41]	; 0xffffffd7
     a1c:	61000004 	tstvs	r0, r4
     a20:	19000004 	stmdbne	r0, {r2}
     a24:	000029a7 	andeq	r2, r0, r7, lsr #19
     a28:	00000489 	andeq	r0, r0, r9, lsl #9
     a2c:	00000487 	andeq	r0, r0, r7, lsl #9
     a30:	0029bf22 	eoreq	fp, r9, r2, lsr #30
     a34:	0086fc00 	addeq	pc, r6, r0, lsl #24
     a38:	00000400 	andeq	r0, r0, r0, lsl #8
     a3c:	29c01b00 	stmibcs	r0, {r8, r9, fp, ip}^
     a40:	049e0000 	ldreq	r0, [lr], #0
     a44:	049c0000 	ldreq	r0, [ip], #0
     a48:	00000000 	andeq	r0, r0, r0
     a4c:	18000000 	stmdane	r0, {}	; <UNPREDICTABLE>
     a50:	000028ca 	andeq	r2, r0, sl, asr #17
     a54:	0000870c 	andeq	r8, r0, ip, lsl #14
     a58:	28880002 	stmcs	r8, {r1}
     a5c:	cf020000 	svcgt	0x00020000
     a60:	28d71c09 	ldmcs	r7, {r0, r3, sl, fp, ip}^
     a64:	32180000 	andscc	r0, r8, #0, 0
     a68:	0c000029 	stceq	0, cr0, [r0], {41}	; 0x29
     a6c:	04000087 	streq	r0, [r0], #-135	; 0xffffff79
     a70:	00289000 	eoreq	r9, r8, r0
     a74:	05b80200 	ldreq	r0, [r8, #512]!	; 0x200
     a78:	00294b19 	eoreq	r4, r9, r9, lsl fp
     a7c:	0004b300 	andeq	fp, r4, r0, lsl #6
     a80:	0004b100 	andeq	fp, r4, r0, lsl #2
     a84:	293f1c00 	ldmdbcs	pc!, {sl, fp, ip}	; <UNPREDICTABLE>
     a88:	ce230000 	cdpgt	0, 2, cr0, cr3, cr0, {0}
     a8c:	0c000029 	stceq	0, cr0, [r0], {41}	; 0x29
     a90:	06000087 	streq	r0, [r0], -r7, lsl #1
     a94:	00870c00 	addeq	r0, r7, r0, lsl #24
     a98:	00000400 	andeq	r0, r0, r0, lsl #8
     a9c:	05a50200 	streq	r0, [r5, #512]!	; 0x200
     aa0:	000006da 	ldrdeq	r0, [r0], -sl
     aa4:	0029db1c 	eoreq	sp, r9, ip, lsl fp
     aa8:	29e71b00 	stmibcs	r7!, {r8, r9, fp, ip}^
     aac:	04cb0000 	strbeq	r0, [fp], #0
     ab0:	04c90000 	strbeq	r0, [r9], #0
     ab4:	20000000 	andcs	r0, r0, r0
     ab8:	00002957 	andeq	r2, r0, r7, asr r9
     abc:	00008710 	andeq	r8, r0, r0, lsl r7
     ac0:	00000004 	andeq	r0, r0, r4
     ac4:	000006f9 	strdeq	r0, [r0], -r9
     ac8:	0029581b 	eoreq	r5, r9, fp, lsl r8
     acc:	0004e500 	andeq	lr, r4, r0, lsl #10
     ad0:	0004e300 	andeq	lr, r4, r0, lsl #6
     ad4:	9a180000 	bls	600adc <__bss_end__+0x5f6aec>
     ad8:	14000029 	strne	r0, [r0], #-41	; 0xffffffd7
     adc:	02000087 	andeq	r0, r0, #135, 0	; 0x87
     ae0:	00290000 	eoreq	r0, r9, r0
     ae4:	05a60200 	streq	r0, [r6, #512]!	; 0x200
     ae8:	0029b319 	eoreq	fp, r9, r9, lsl r3
     aec:	0004fa00 	andeq	pc, r4, r0, lsl #20
     af0:	0004f800 	andeq	pc, r4, r0, lsl #16
     af4:	29a71900 	stmibcs	r7!, {r8, fp, ip}
     af8:	05120000 	ldreq	r0, [r2, #-0]
     afc:	05100000 	ldreq	r0, [r0, #-0]
     b00:	9a210000 	bls	840b08 <__bss_end__+0x836b18>
     b04:	14000029 	strne	r0, [r0], #-41	; 0xffffffd7
     b08:	04000087 	streq	r0, [r0], #-135	; 0xffffff79
     b0c:	00871400 	addeq	r1, r7, r0, lsl #8
     b10:	00001000 	andeq	r1, r0, r0
     b14:	147f0200 	ldrbtne	r0, [pc], #-512	; b1c <__code_start__-0x74e4>
     b18:	0029b319 	eoreq	fp, r9, r9, lsl r3
     b1c:	00052900 	andeq	r2, r5, r0, lsl #18
     b20:	00052500 	andeq	r2, r5, r0, lsl #10
     b24:	29a71900 	stmibcs	r7!, {r8, fp, ip}
     b28:	054f0000 	strbeq	r0, [pc, #-0]	; b30 <__code_start__-0x74d0>
     b2c:	054d0000 	strbeq	r0, [sp, #-0]
     b30:	bf220000 	svclt	0x00220000
     b34:	14000029 	strne	r0, [r0], #-41	; 0xffffffd7
     b38:	04000087 	streq	r0, [r0], #-135	; 0xffffff79
     b3c:	1b000000 	blne	b44 <__code_start__-0x74bc>
     b40:	000029c0 	andeq	r2, r0, r0, asr #19
     b44:	00000564 	andeq	r0, r0, r4, ror #10
     b48:	00000562 	andeq	r0, r0, r2, ror #10
	...
     b54:	00284226 	eoreq	r4, r8, r6, lsr #4
     b58:	00291800 	eoreq	r1, r9, r0, lsl #16
     b5c:	05e60200 	strbeq	r0, [r6, #512]!	; 0x200
     b60:	00285b1c 	eoreq	r5, r8, ip, lsl fp
     b64:	284f1c00 	stmdacs	pc, {sl, fp, ip}^	; <UNPREDICTABLE>
     b68:	651e0000 	ldrvs	r0, [lr, #-0]
     b6c:	18000028 	stmdane	r0, {r3, r5}
     b70:	25000029 	strcs	r0, [r0, #-41]	; 0xffffffd7
     b74:	00002866 	andeq	r2, r0, r6, ror #16
     b78:	00287218 	eoreq	r7, r8, r8, lsl r2
     b7c:	00873000 	addeq	r3, r7, r0
     b80:	78000100 	stmdavc	r0, {r8}
     b84:	02000029 	andeq	r0, r0, #41, 0	; 0x29
     b88:	8b1909da 	blhi	6432f8 <__bss_end__+0x639308>
     b8c:	79000028 	stmdbvc	r0, {r3, r5}
     b90:	77000005 	strvc	r0, [r0, -r5]
     b94:	1c000005 	stcne	0, cr0, [r0], {5}
     b98:	0000287f 	andeq	r2, r0, pc, ror r8
     b9c:	0028fe1d 	eoreq	pc, r8, sp, lsl lr	; <UNPREDICTABLE>
     ba0:	00873000 	addeq	r3, r7, r0
     ba4:	d8000400 	stmdale	r0, {sl}
     ba8:	02000029 	andeq	r0, r0, #41, 0	; 0x29
     bac:	08c509ce 	stmiaeq	r5, {r1, r2, r3, r6, r7, r8, fp}^
     bb0:	0b1c0000 	bleq	700bb8 <__bss_end__+0x6f6bc8>
     bb4:	18000029 	stmdane	r0, {r0, r3, r5}
     bb8:	00002966 	andeq	r2, r0, r6, ror #18
     bbc:	00008730 	andeq	r8, r0, r0, lsr r7
     bc0:	29e00006 	stmibcs	r0!, {r1, r2}^
     bc4:	b0020000 	andlt	r0, r2, r0
     bc8:	297f1905 	ldmdbcs	pc!, {r0, r2, r8, fp, ip}^	; <UNPREDICTABLE>
     bcc:	058f0000 	streq	r0, [pc]	; bd4 <__code_start__-0x742c>
     bd0:	058d0000 	streq	r0, [sp]
     bd4:	731c0000 	tstvc	ip, #0, 0
     bd8:	23000029 	movwcs	r0, #41	; 0x29
     bdc:	000029fa 	strdeq	r2, [r0], -sl
     be0:	00008730 	andeq	r8, r0, r0, lsr r7
     be4:	87300008 	ldrhi	r0, [r0, -r8]!
     be8:	00040000 	andeq	r0, r4, r0
     bec:	9d020000 	stcls	0, cr0, [r2, #-0]
     bf0:	00082b05 	andeq	r2, r8, r5, lsl #22
     bf4:	2a071c00 	bcs	1c7bfc <__bss_end__+0x1bdc0c>
     bf8:	131b0000 	tstne	fp, #0, 0
     bfc:	a600002a 	strge	r0, [r0], -sl, lsr #32
     c00:	a4000005 	strge	r0, [r0], #-5
     c04:	00000005 	andeq	r0, r0, r5
     c08:	00298b20 	eoreq	r8, r9, r0, lsr #22
     c0c:	00873400 	addeq	r3, r7, r0, lsl #8
     c10:	00000400 	andeq	r0, r0, r0, lsl #8
     c14:	00084a00 	andeq	r4, r8, r0, lsl #20
     c18:	298c1b00 	stmibcs	ip, {r8, r9, fp, ip}
     c1c:	05c00000 	strbeq	r0, [r0]
     c20:	05be0000 	ldreq	r0, [lr, #0]!
     c24:	18000000 	stmdane	r0, {}	; <UNPREDICTABLE>
     c28:	0000299a 	muleq	r0, sl, r9
     c2c:	00008738 	andeq	r8, r0, r8, lsr r7
     c30:	2a080002 	bcs	200c40 <__bss_end__+0x1f6c50>
     c34:	9e020000 	cdpls	0, 0, cr0, cr2, cr0, {0}
     c38:	29b31905 	ldmibcs	r3!, {r0, r2, r8, fp, ip}
     c3c:	05d50000 	ldrbeq	r0, [r5]
     c40:	05d30000 	ldrbeq	r0, [r3]
     c44:	a7190000 	ldrge	r0, [r9, -r0]
     c48:	ec000029 	stc	0, cr0, [r0], {41}	; 0x29
     c4c:	ea000005 	b	c68 <__code_start__-0x7398>
     c50:	21000005 	tstcs	r0, r5
     c54:	0000299a 	muleq	r0, sl, r9
     c58:	00008738 	andeq	r8, r0, r8, lsr r7
     c5c:	87380004 	ldrhi	r0, [r8, -r4]!
     c60:	00100000 	andseq	r0, r0, r0
     c64:	7f020000 	svcvc	0x00020000
     c68:	29b31914 	ldmibcs	r3!, {r2, r4, r8, fp, ip}
     c6c:	06030000 	streq	r0, [r3], -r0
     c70:	05ff0000 	ldrbeq	r0, [pc, #0]!	; c78 <__code_start__-0x7388>
     c74:	a7190000 	ldrge	r0, [r9, -r0]
     c78:	27000029 	strcs	r0, [r0, -r9, lsr #32]
     c7c:	25000006 	strcs	r0, [r0, #-6]
     c80:	22000006 	andcs	r0, r0, #6, 0
     c84:	000029bf 			; <UNDEFINED> instruction: 0x000029bf
     c88:	00008738 	andeq	r8, r0, r8, lsr r7
     c8c:	00000004 	andeq	r0, r0, r4
     c90:	0029c01b 	eoreq	ip, r9, fp, lsl r0
     c94:	00063c00 	andeq	r3, r6, r0, lsl #24
     c98:	00063a00 	andeq	r3, r6, r0, lsl #20
     c9c:	00000000 	andeq	r0, r0, r0
     ca0:	ca180000 	bgt	600ca8 <__bss_end__+0x5f6cb8>
     ca4:	48000028 	stmdami	r0, {r3, r5}
     ca8:	02000087 	andeq	r0, r0, #135, 0	; 0x87
     cac:	0029a800 	eoreq	sl, r9, r0, lsl #16
     cb0:	09cf0200 	stmibeq	pc, {r9}^	; <UNPREDICTABLE>
     cb4:	0028d71c 	eoreq	sp, r8, ip, lsl r7
     cb8:	29321800 	ldmdbcs	r2!, {fp, ip}
     cbc:	87480000 	strbhi	r0, [r8, -r0]
     cc0:	00040000 	andeq	r0, r4, r0
     cc4:	000029b0 			; <UNDEFINED> instruction: 0x000029b0
     cc8:	1905b802 	stmdbne	r5, {r1, fp, ip, sp, pc}
     ccc:	0000294b 	andeq	r2, r0, fp, asr #18
     cd0:	00000651 	andeq	r0, r0, r1, asr r6
     cd4:	0000064f 	andeq	r0, r0, pc, asr #12
     cd8:	00293f1c 	eoreq	r3, r9, ip, lsl pc
     cdc:	29ce2300 	stmibcs	lr, {r8, r9, sp}^
     ce0:	87480000 	strbhi	r0, [r8, -r0]
     ce4:	00060000 	andeq	r0, r6, r0
     ce8:	00008748 	andeq	r8, r0, r8, asr #14
     cec:	00000004 	andeq	r0, r0, r4
     cf0:	2d05a502 	cfstr32cs	mvfx10, [r5, #-8]
     cf4:	1c000009 	stcne	0, cr0, [r0], {9}
     cf8:	000029db 	ldrdeq	r2, [r0], -fp
     cfc:	0029e71b 	eoreq	lr, r9, fp, lsl r7
     d00:	00066900 	andeq	r6, r6, r0, lsl #18
     d04:	00066700 	andeq	r6, r6, r0, lsl #14
     d08:	57200000 	strpl	r0, [r0, -r0]!
     d0c:	4c000029 	stcmi	0, cr0, [r0], {41}	; 0x29
     d10:	04000087 	streq	r0, [r0], #-135	; 0xffffff79
     d14:	4c000000 	stcmi	0, cr0, [r0], {-0}
     d18:	1b000009 	blne	d44 <__code_start__-0x72bc>
     d1c:	00002958 	andeq	r2, r0, r8, asr r9
     d20:	00000683 	andeq	r0, r0, r3, lsl #13
     d24:	00000681 	andeq	r0, r0, r1, lsl #13
     d28:	299a1800 	ldmibcs	sl, {fp, ip}
     d2c:	87500000 	ldrbhi	r0, [r0, -r0]
     d30:	00020000 	andeq	r0, r2, r0
     d34:	00002a20 	andeq	r2, r0, r0, lsr #20
     d38:	1905a602 	stmdbne	r5, {r1, r9, sl, sp, pc}
     d3c:	000029b3 			; <UNDEFINED> instruction: 0x000029b3
     d40:	00000698 	muleq	r0, r8, r6
     d44:	00000696 	muleq	r0, r6, r6
     d48:	0029a719 	eoreq	sl, r9, r9, lsl r7
     d4c:	0006b000 	andeq	fp, r6, r0
     d50:	0006ae00 	andeq	sl, r6, r0, lsl #28
     d54:	299a2100 	ldmibcs	sl, {r8, sp}
     d58:	87500000 	ldrbhi	r0, [r0, -r0]
     d5c:	00040000 	andeq	r0, r4, r0
     d60:	00008750 	andeq	r8, r0, r0, asr r7
     d64:	00000010 	andeq	r0, r0, r0, lsl r0
     d68:	19147f02 	ldmdbne	r4, {r1, r8, r9, sl, fp, ip, sp, lr}
     d6c:	000029b3 			; <UNDEFINED> instruction: 0x000029b3
     d70:	000006c7 	andeq	r0, r0, r7, asr #13
     d74:	000006c3 	andeq	r0, r0, r3, asr #13
     d78:	0029a719 	eoreq	sl, r9, r9, lsl r7
     d7c:	0006ed00 	andeq	lr, r6, r0, lsl #26
     d80:	0006eb00 	andeq	lr, r6, r0, lsl #22
     d84:	29bf2200 	ldmibcs	pc!, {r9, sp}	; <UNPREDICTABLE>
     d88:	87500000 	ldrbhi	r0, [r0, -r0]
     d8c:	00040000 	andeq	r0, r4, r0
     d90:	c01b0000 	andsgt	r0, fp, r0
     d94:	02000029 	andeq	r0, r0, #41, 0	; 0x29
     d98:	00000007 	andeq	r0, r0, r7
     d9c:	00000007 	andeq	r0, r0, r7
	...
     da8:	877c2700 	ldrbhi	r2, [ip, -r0, lsl #14]!
     dac:	18b10000 	ldmne	r1!, {}	; <UNPREDICTABLE>
     db0:	00000000 	andeq	r0, r0, r0
     db4:	00027928 	andeq	r7, r2, r8, lsr #18
     db8:	063a0100 	ldrteq	r0, [sl], -r0, lsl #2
     dbc:	000a0501 	andeq	r0, sl, r1, lsl #10
     dc0:	00682900 	rsbeq	r2, r8, r0, lsl #18
     dc4:	e11e3a01 	tst	lr, r1, lsl #20
     dc8:	29000000 	stmdbcs	r0, {}	; <UNPREDICTABLE>
     dcc:	3a01006e 	bcc	40f8c <__bss_end__+0x36f9c>
     dd0:	00002c2a 	andeq	r2, r0, sl, lsr #24
     dd4:	692b2a00 	stmdbvs	fp!, {r9, fp, sp}
     dd8:	0d3b0100 	ldfeqs	f0, [fp, #-0]
     ddc:	00000025 	andeq	r0, r0, r5, lsr #32
     de0:	d2150000 	andsle	r0, r5, #0, 0
     de4:	01000002 	tsteq	r0, r2
     de8:	83f00635 	mvnshi	r0, #55574528	; 0x3500000
     dec:	01b00000 	movseq	r0, r0
     df0:	9c010000 	stcls	0, cr0, [r1], {-0}
     df4:	000017fc 	strdeq	r1, [r0], -ip
     df8:	01006816 	tsteq	r0, r6, lsl r8
     dfc:	00e11d35 	rsceq	r1, r1, r5, lsr sp
     e00:	07190000 	ldreq	r0, [r9, -r0]
     e04:	07150000 	ldreq	r0, [r5, -r0]
     e08:	72160000 	andsvc	r0, r6, #0, 0
     e0c:	28350100 	ldmdacs	r5!, {r8}
     e10:	00000059 	andeq	r0, r0, r9, asr r0
     e14:	00000740 	andeq	r0, r0, r0, asr #14
     e18:	0000073a 	andeq	r0, r0, sl, lsr r7
     e1c:	01006716 	tsteq	r0, r6, lsl r7
     e20:	00593335 	subseq	r3, r9, r5, lsr r3
     e24:	07720000 	ldrbeq	r0, [r2, -r0]!
     e28:	076c0000 	strbeq	r0, [ip, -r0]!
     e2c:	62170000 	andsvs	r0, r7, #0, 0
     e30:	3e350100 	rsfccs	f0, f5, f0
     e34:	00000059 	andeq	r0, r0, r9, asr r0
     e38:	0a185301 	beq	615a44 <__bss_end__+0x60ba54>
     e3c:	f8000028 			; <UNDEFINED> instruction: 0xf8000028
     e40:	01000083 	smlabbeq	r0, r3, r0, r0
     e44:	00103000 	andseq	r3, r0, r0
     e48:	05360100 	ldreq	r0, [r6, #-256]!	; 0xffffff00
     e4c:	00283719 	eoreq	r3, r8, r9, lsl r7
     e50:	0007a000 	andeq	sl, r7, r0
     e54:	00079e00 	andeq	r9, r7, r0, lsl #28
     e58:	282d1900 	stmdacs	sp!, {r8, fp, ip}
     e5c:	07b90000 	ldreq	r0, [r9, r0]!
     e60:	07b30000 	ldreq	r0, [r3, r0]!
     e64:	23190000 	tstcs	r9, #0, 0
     e68:	eb000028 	bl	f10 <__code_start__-0x70f0>
     e6c:	e5000007 	str	r0, [r0, #-7]
     e70:	19000007 	stmdbne	r0, {r0, r1, r2}
     e74:	00002817 	andeq	r2, r0, r7, lsl r8
     e78:	0000081b 	andeq	r0, r0, fp, lsl r8
     e7c:	00000817 	andeq	r0, r0, r7, lsl r8
     e80:	0028421d 	eoreq	r4, r8, sp, lsl r2
     e84:	0083f800 	addeq	pc, r3, r0, lsl #16
     e88:	d8000300 	stmdale	r0, {r8, r9}
     e8c:	02000011 	andeq	r0, r0, #17, 0
     e90:	0f2005e4 	svceq	0x002005e4
     e94:	5b190000 	blpl	640e9c <__bss_end__+0x636eac>
     e98:	4c000028 	stcmi	0, cr0, [r0], {40}	; 0x28
     e9c:	48000008 	stmdami	r0, {r3}
     ea0:	19000008 	stmdbne	r0, {r3}
     ea4:	0000284f 	andeq	r2, r0, pc, asr #16
     ea8:	0000086e 	andeq	r0, r0, lr, ror #16
     eac:	0000086a 	andeq	r0, r0, sl, ror #16
     eb0:	0028651e 	eoreq	r6, r8, lr, lsl r5
     eb4:	00128800 	andseq	r8, r2, r0, lsl #16
     eb8:	28661b00 	stmdacs	r6!, {r8, r9, fp, ip}^
     ebc:	089d0000 	ldmeq	sp, {}	; <UNPREDICTABLE>
     ec0:	08930000 	ldmeq	r3, {}	; <UNPREDICTABLE>
     ec4:	72180000 	andsvc	r0, r8, #0, 0
     ec8:	08000028 	stmdaeq	r0, {r3, r5}
     ecc:	02000084 	andeq	r0, r0, #132, 0	; 0x84
     ed0:	00133000 	andseq	r3, r3, r0
     ed4:	09da0200 	ldmibeq	sl, {r9}^
     ed8:	00288b19 	eoreq	r8, r8, r9, lsl fp
     edc:	0008e500 	andeq	lr, r8, r0, lsl #10
     ee0:	0008e100 	andeq	lr, r8, r0, lsl #2
     ee4:	287f1c00 	ldmdacs	pc!, {sl, fp, ip}^	; <UNPREDICTABLE>
     ee8:	fe1d0000 	cdp2	0, 1, cr0, cr13, cr0, {0}
     eec:	64000028 	strvs	r0, [r0], #-40	; 0xffffffd8
     ef0:	02000085 	andeq	r0, r0, #133, 0	; 0x85
     ef4:	0013e000 	andseq	lr, r3, r0
     ef8:	09ce0200 	stmibeq	lr, {r9}^
     efc:	00000c11 	andeq	r0, r0, r1, lsl ip
     f00:	00290b1c 	eoreq	r0, r9, ip, lsl fp
     f04:	29661800 	stmdbcs	r6!, {fp, ip}^
     f08:	85640000 	strbhi	r0, [r4, #-0]!
     f0c:	00040000 	andeq	r0, r4, r0
     f10:	00001420 	andeq	r1, r0, r0, lsr #8
     f14:	1905b002 	stmdbne	r5, {r1, ip, sp, pc}
     f18:	0000297f 	andeq	r2, r0, pc, ror r9
     f1c:	00000913 	andeq	r0, r0, r3, lsl r9
     f20:	00000911 	andeq	r0, r0, r1, lsl r9
     f24:	0029731c 	eoreq	r7, r9, ip, lsl r3
     f28:	29fa1d00 	ldmibcs	sl!, {r8, sl, fp, ip}^
     f2c:	85640000 	strbhi	r0, [r4, #-0]!
     f30:	00060000 	andeq	r0, r6, r0
     f34:	00001458 	andeq	r1, r0, r8, asr r4
     f38:	77059d02 	strvc	r9, [r5, -r2, lsl #26]
     f3c:	1c00000b 	stcne	0, cr0, [r0], {11}
     f40:	00002a07 	andeq	r2, r0, r7, lsl #20
     f44:	0014581f 	andseq	r5, r4, pc, lsl r8
     f48:	2a132c00 	bcs	4cbf50 <__bss_end__+0x4c1f60>
     f4c:	001c0000 	andseq	r0, ip, r0
     f50:	00002020 	andeq	r2, r0, r0, lsr #32
     f54:	00298b20 	eoreq	r8, r9, r0, lsr #22
     f58:	00856400 	addeq	r6, r5, r0, lsl #8
     f5c:	00000400 	andeq	r0, r0, r0, lsl #8
     f60:	000b9600 	andeq	r9, fp, r0, lsl #12
     f64:	298c1b00 	stmibcs	ip, {r8, r9, fp, ip}
     f68:	092a0000 	stmdbeq	sl!, {}	; <UNPREDICTABLE>
     f6c:	09280000 	stmdbeq	r8!, {}	; <UNPREDICTABLE>
     f70:	18000000 	stmdane	r0, {}	; <UNPREDICTABLE>
     f74:	0000299a 	muleq	r0, sl, r9
     f78:	00008568 	andeq	r8, r0, r8, ror #10
     f7c:	14780002 	ldrbtne	r0, [r8], #-2
     f80:	9e020000 	cdpls	0, 0, cr0, cr2, cr0, {0}
     f84:	29b31905 	ldmibcs	r3!, {r0, r2, r8, fp, ip}
     f88:	093f0000 	ldmdbeq	pc!, {}	; <UNPREDICTABLE>
     f8c:	093d0000 	ldmdbeq	sp!, {}	; <UNPREDICTABLE>
     f90:	a7190000 	ldrge	r0, [r9, -r0]
     f94:	56000029 	strpl	r0, [r0], -r9, lsr #32
     f98:	54000009 	strpl	r0, [r0], #-9
     f9c:	21000009 	tstcs	r0, r9
     fa0:	0000299a 	muleq	r0, sl, r9
     fa4:	00008568 	andeq	r8, r0, r8, ror #10
     fa8:	85680004 	strbhi	r0, [r8, #-4]!
     fac:	00100000 	andseq	r0, r0, r0
     fb0:	7f020000 	svcvc	0x00020000
     fb4:	29b31914 	ldmibcs	r3!, {r2, r4, r8, fp, ip}
     fb8:	096d0000 	stmdbeq	sp!, {}^	; <UNPREDICTABLE>
     fbc:	09690000 	stmdbeq	r9!, {}^	; <UNPREDICTABLE>
     fc0:	a7190000 	ldrge	r0, [r9, -r0]
     fc4:	91000029 	tstls	r0, r9, lsr #32
     fc8:	8f000009 	svchi	0x00000009
     fcc:	22000009 	andcs	r0, r0, #9, 0
     fd0:	000029bf 			; <UNDEFINED> instruction: 0x000029bf
     fd4:	00008568 	andeq	r8, r0, r8, ror #10
     fd8:	00000004 	andeq	r0, r0, r4
     fdc:	0029c01b 	eoreq	ip, r9, fp, lsl r0
     fe0:	0009a600 	andeq	sl, r9, r0, lsl #12
     fe4:	0009a400 	andeq	sl, r9, r0, lsl #8
     fe8:	00000000 	andeq	r0, r0, r0
     fec:	181d0000 	ldmdane	sp, {}	; <UNPREDICTABLE>
     ff0:	18000029 	stmdane	r0, {r0, r3, r5}
     ff4:	01000084 	smlabbeq	r0, r4, r0, r0
     ff8:	00149000 	andseq	r9, r4, r0
     ffc:	09cb0200 	stmibeq	fp, {r9}^
    1000:	00000d19 	andeq	r0, r0, r9, lsl sp
    1004:	0029251c 	eoreq	r2, r9, ip, lsl r5
    1008:	29661800 	stmdbcs	r6!, {fp, ip}^
    100c:	84180000 	ldrhi	r0, [r8], #-0
    1010:	00030000 	andeq	r0, r3, r0
    1014:	000014c8 	andeq	r1, r0, r8, asr #9
    1018:	1905ab02 	stmdbne	r5, {r1, r8, r9, fp, sp, pc}
    101c:	0000297f 	andeq	r2, r0, pc, ror r9
    1020:	000009bb 			; <UNDEFINED> instruction: 0x000009bb
    1024:	000009b9 			; <UNDEFINED> instruction: 0x000009b9
    1028:	0029731c 	eoreq	r7, r9, ip, lsl r3
    102c:	29fa1d00 	ldmibcs	sl!, {r8, sl, fp, ip}^
    1030:	84180000 	ldrhi	r0, [r8], #-0
    1034:	00050000 	andeq	r0, r5, r0
    1038:	000014f8 	strdeq	r1, [r0], -r8
    103c:	7f059d02 	svcvc	0x00059d02
    1040:	1c00000c 	stcne	0, cr0, [r0], {12}
    1044:	00002a07 	andeq	r2, r0, r7, lsl #20
    1048:	0014f81f 	andseq	pc, r4, pc, lsl r8	; <UNPREDICTABLE>
    104c:	2a131b00 	bcs	4c7c54 <__bss_end__+0x4bdc64>
    1050:	09d30000 	ldmibeq	r3, {}^	; <UNPREDICTABLE>
    1054:	09d10000 	ldmibeq	r1, {}^	; <UNPREDICTABLE>
    1058:	00000000 	andeq	r0, r0, r0
    105c:	00298b20 	eoreq	r8, r9, r0, lsr #22
    1060:	00841800 	addeq	r1, r4, r0, lsl #16
    1064:	00000400 	andeq	r0, r0, r0, lsl #8
    1068:	000c9e00 	andeq	r9, ip, r0, lsl #28
    106c:	298c1b00 	stmibcs	ip, {r8, r9, fp, ip}
    1070:	09ed0000 	stmibeq	sp!, {}^	; <UNPREDICTABLE>
    1074:	09eb0000 	stmibeq	fp!, {}^	; <UNPREDICTABLE>
    1078:	18000000 	stmdane	r0, {}	; <UNPREDICTABLE>
    107c:	0000299a 	muleq	r0, sl, r9
    1080:	0000841c 	andeq	r8, r0, ip, lsl r4
    1084:	15100002 	ldrne	r0, [r0, #-2]
    1088:	9e020000 	cdpls	0, 0, cr0, cr2, cr0, {0}
    108c:	29b31905 	ldmibcs	r3!, {r0, r2, r8, fp, ip}
    1090:	0a020000 	beq	81098 <__bss_end__+0x770a8>
    1094:	0a000000 	beq	109c <__code_start__-0x6f64>
    1098:	a7190000 	ldrge	r0, [r9, -r0]
    109c:	1a000029 	bne	1148 <__code_start__-0x6eb8>
    10a0:	1800000a 	stmdane	r0, {r1, r3}
    10a4:	2100000a 	tstcs	r0, sl
    10a8:	0000299a 	muleq	r0, sl, r9
    10ac:	0000841c 	andeq	r8, r0, ip, lsl r4
    10b0:	841c0004 	ldrhi	r0, [ip], #-4
    10b4:	00100000 	andseq	r0, r0, r0
    10b8:	7f020000 	svcvc	0x00020000
    10bc:	29b31914 	ldmibcs	r3!, {r2, r4, r8, fp, ip}
    10c0:	0a310000 	beq	c410c8 <__bss_end__+0xc370d8>
    10c4:	0a2d0000 	beq	b410cc <__bss_end__+0xb370dc>
    10c8:	a7190000 	ldrge	r0, [r9, -r0]
    10cc:	57000029 	strpl	r0, [r0, -r9, lsr #32]
    10d0:	5500000a 	strpl	r0, [r0, #-10]
    10d4:	2200000a 	andcs	r0, r0, #10, 0
    10d8:	000029bf 			; <UNDEFINED> instruction: 0x000029bf
    10dc:	0000841c 	andeq	r8, r0, ip, lsl r4
    10e0:	00000004 	andeq	r0, r0, r4
    10e4:	0029c01b 	eoreq	ip, r9, fp, lsl r0
    10e8:	000a6c00 	andeq	r6, sl, r0, lsl #24
    10ec:	000a6a00 	andeq	r6, sl, r0, lsl #20
    10f0:	00000000 	andeq	r0, r0, r0
    10f4:	e41d0000 	ldr	r0, [sp], #-0
    10f8:	2c000028 	stccs	0, cr0, [r0], {40}	; 0x28
    10fc:	02000084 	andeq	r0, r0, #132, 0	; 0x84
    1100:	00152800 	andseq	r2, r5, r0, lsl #16
    1104:	09cc0200 	stmibeq	ip, {r9}^
    1108:	00000e1f 	andeq	r0, r0, pc, lsl lr
    110c:	0028f11c 	eoreq	pc, r8, ip, lsl r1	; <UNPREDICTABLE>
    1110:	29321800 	ldmdbcs	r2!, {fp, ip}
    1114:	842c0000 	strthi	r0, [ip], #-0
    1118:	00040000 	andeq	r0, r4, r0
    111c:	00001530 	andeq	r1, r0, r0, lsr r5
    1120:	1905b402 	stmdbne	r5, {r1, sl, ip, sp, pc}
    1124:	0000294b 	andeq	r2, r0, fp, asr #18
    1128:	00000a81 	andeq	r0, r0, r1, lsl #21
    112c:	00000a7f 	andeq	r0, r0, pc, ror sl
    1130:	00293f1c 	eoreq	r3, r9, ip, lsl pc
    1134:	29ce2300 	stmibcs	lr, {r8, r9, sp}^
    1138:	842c0000 	strthi	r0, [ip], #-0
    113c:	00060000 	andeq	r0, r6, r0
    1140:	0000842c 	andeq	r8, r0, ip, lsr #8
    1144:	00000004 	andeq	r0, r0, r4
    1148:	8505a502 	strhi	sl, [r5, #-1282]	; 0xfffffafe
    114c:	1c00000d 	stcne	0, cr0, [r0], {13}
    1150:	000029db 	ldrdeq	r2, [r0], -fp
    1154:	0029e71b 	eoreq	lr, r9, fp, lsl r7
    1158:	000a9800 	andeq	r9, sl, r0, lsl #16
    115c:	000a9600 	andeq	r9, sl, r0, lsl #12
    1160:	57200000 	strpl	r0, [r0, -r0]!
    1164:	30000029 	andcc	r0, r0, r9, lsr #32
    1168:	04000084 	streq	r0, [r0], #-132	; 0xffffff7c
    116c:	a4000000 	strge	r0, [r0], #-0
    1170:	1b00000d 	blne	11ac <__code_start__-0x6e54>
    1174:	00002958 	andeq	r2, r0, r8, asr r9
    1178:	00000ab2 			; <UNDEFINED> instruction: 0x00000ab2
    117c:	00000ab0 			; <UNDEFINED> instruction: 0x00000ab0
    1180:	299a1800 	ldmibcs	sl, {fp, ip}
    1184:	84340000 	ldrthi	r0, [r4], #-0
    1188:	00020000 	andeq	r0, r2, r0
    118c:	00001558 	andeq	r1, r0, r8, asr r5
    1190:	1905a602 	stmdbne	r5, {r1, r9, sl, sp, pc}
    1194:	000029b3 			; <UNDEFINED> instruction: 0x000029b3
    1198:	00000ac7 	andeq	r0, r0, r7, asr #21
    119c:	00000ac5 	andeq	r0, r0, r5, asr #21
    11a0:	0029a719 	eoreq	sl, r9, r9, lsl r7
    11a4:	000ade00 	andeq	sp, sl, r0, lsl #28
    11a8:	000adc00 	andeq	sp, sl, r0, lsl #24
    11ac:	299a2100 	ldmibcs	sl, {r8, sp}
    11b0:	84340000 	ldrthi	r0, [r4], #-0
    11b4:	00040000 	andeq	r0, r4, r0
    11b8:	00008434 	andeq	r8, r0, r4, lsr r4
    11bc:	00000010 	andeq	r0, r0, r0, lsl r0
    11c0:	19147f02 	ldmdbne	r4, {r1, r8, r9, sl, fp, ip, sp, lr}
    11c4:	000029b3 			; <UNDEFINED> instruction: 0x000029b3
    11c8:	00000af5 	strdeq	r0, [r0], -r5
    11cc:	00000af1 	strdeq	r0, [r0], -r1
    11d0:	0029a719 	eoreq	sl, r9, r9, lsl r7
    11d4:	000b1900 	andeq	r1, fp, r0, lsl #18
    11d8:	000b1700 	andeq	r1, fp, r0, lsl #14
    11dc:	29bf2200 	ldmibcs	pc!, {r9, sp}	; <UNPREDICTABLE>
    11e0:	84340000 	ldrthi	r0, [r4], #-0
    11e4:	00040000 	andeq	r0, r4, r0
    11e8:	c01b0000 	andsgt	r0, fp, r0
    11ec:	2e000029 	cdpcs	0, 0, cr0, cr0, cr9, {1}
    11f0:	2c00000b 	stccs	0, cr0, [r0], {11}
    11f4:	0000000b 	andeq	r0, r0, fp
    11f8:	00000000 	andeq	r0, r0, r0
    11fc:	0028ca18 	eoreq	ip, r8, r8, lsl sl
    1200:	00857800 	addeq	r7, r5, r0, lsl #16
    1204:	70000200 	andvc	r0, r0, r0, lsl #4
    1208:	02000015 	andeq	r0, r0, #21, 0
    120c:	d71c09cf 	ldrle	r0, [ip, -pc, asr #19]
    1210:	18000028 	stmdane	r0, {r3, r5}
    1214:	00002932 	andeq	r2, r0, r2, lsr r9
    1218:	00008578 	andeq	r8, r0, r8, ror r5
    121c:	15780004 	ldrbne	r0, [r8, #-4]!
    1220:	b8020000 	stmdalt	r2, {}	; <UNPREDICTABLE>
    1224:	294b1905 	stmdbcs	fp, {r0, r2, r8, fp, ip}^
    1228:	0b430000 	bleq	10c1230 <__bss_end__+0x10b7240>
    122c:	0b410000 	bleq	1041234 <__bss_end__+0x1037244>
    1230:	3f1c0000 	svccc	0x001c0000
    1234:	23000029 	movwcs	r0, #41	; 0x29
    1238:	000029ce 	andeq	r2, r0, lr, asr #19
    123c:	00008578 	andeq	r8, r0, r8, ror r5
    1240:	85780006 	ldrbhi	r0, [r8, #-6]!
    1244:	00040000 	andeq	r0, r4, r0
    1248:	a5020000 	strge	r0, [r2, #-0]
    124c:	000e8305 	andeq	r8, lr, r5, lsl #6
    1250:	29db1c00 	ldmibcs	fp, {sl, fp, ip}^
    1254:	e72c0000 	str	r0, [ip, -r0]!
    1258:	28000029 	stmdacs	r0, {r0, r3, r5}
    125c:	00202000 	eoreq	r2, r0, r0
    1260:	00295720 	eoreq	r5, r9, r0, lsr #14
    1264:	00857c00 	addeq	r7, r5, r0, lsl #24
    1268:	00000400 	andeq	r0, r0, r0, lsl #8
    126c:	000ea200 	andeq	sl, lr, r0, lsl #4
    1270:	29581b00 	ldmdbcs	r8, {r8, r9, fp, ip}^
    1274:	0b5b0000 	bleq	16c127c <__bss_end__+0x16b728c>
    1278:	0b590000 	bleq	1641280 <__bss_end__+0x1637290>
    127c:	18000000 	stmdane	r0, {}	; <UNPREDICTABLE>
    1280:	0000299a 	muleq	r0, sl, r9
    1284:	00008580 	andeq	r8, r0, r0, lsl #11
    1288:	15a00002 	strne	r0, [r0, #2]!
    128c:	a6020000 	strge	r0, [r2], -r0
    1290:	29b31905 	ldmibcs	r3!, {r0, r2, r8, fp, ip}
    1294:	0b700000 	bleq	1c0129c <__bss_end__+0x1bf72ac>
    1298:	0b6e0000 	bleq	1b812a0 <__bss_end__+0x1b772b0>
    129c:	a7190000 	ldrge	r0, [r9, -r0]
    12a0:	88000029 	stmdahi	r0, {r0, r3, r5}
    12a4:	8600000b 	strhi	r0, [r0], -fp
    12a8:	2100000b 	tstcs	r0, fp
    12ac:	0000299a 	muleq	r0, sl, r9
    12b0:	00008580 	andeq	r8, r0, r0, lsl #11
    12b4:	85800004 	strhi	r0, [r0, #4]
    12b8:	00100000 	andseq	r0, r0, r0
    12bc:	7f020000 	svcvc	0x00020000
    12c0:	29b31914 	ldmibcs	r3!, {r2, r4, r8, fp, ip}
    12c4:	0b9f0000 	bleq	fe7c12cc <__bss_end__+0xfe7b72dc>
    12c8:	0b9b0000 	bleq	fe6c12d0 <__bss_end__+0xfe6b72e0>
    12cc:	a7190000 	ldrge	r0, [r9, -r0]
    12d0:	c5000029 	strgt	r0, [r0, #-41]	; 0xffffffd7
    12d4:	c300000b 	movwgt	r0, #11
    12d8:	2200000b 	andcs	r0, r0, #11, 0
    12dc:	000029bf 			; <UNDEFINED> instruction: 0x000029bf
    12e0:	00008580 	andeq	r8, r0, r0, lsl #11
    12e4:	00000004 	andeq	r0, r0, r4
    12e8:	0029c01b 	eoreq	ip, r9, fp, lsl r0
    12ec:	000bda00 	andeq	sp, fp, r0, lsl #20
    12f0:	000bd800 	andeq	sp, fp, r0, lsl #16
	...
    12fc:	28422400 	stmdacs	r2, {sl, sp}^
    1300:	15b80000 	ldrne	r0, [r8, #0]!
    1304:	e5020000 	str	r0, [r2, #-0]
    1308:	00138f05 	andseq	r8, r3, r5, lsl #30
    130c:	285b1c00 	ldmdacs	fp, {sl, fp, ip}^
    1310:	4f1c0000 	svcmi	0x001c0000
    1314:	1e000028 	cdpne	0, 0, cr0, cr0, cr8, {1}
    1318:	00002865 	andeq	r2, r0, r5, ror #16
    131c:	000015b8 			; <UNDEFINED> instruction: 0x000015b8
    1320:	0028661b 	eoreq	r6, r8, fp, lsl r6
    1324:	000bf500 	andeq	pc, fp, r0, lsl #10
    1328:	000bed00 	andeq	lr, fp, r0, lsl #26
    132c:	28721800 	ldmdacs	r2!, {fp, ip}^
    1330:	84540000 	ldrbhi	r0, [r4], #-0
    1334:	00020000 	andeq	r0, r2, r0
    1338:	00001650 	andeq	r1, r0, r0, asr r6
    133c:	1909da02 	stmdbne	r9, {r1, r9, fp, ip, lr, pc}
    1340:	0000288b 	andeq	r2, r0, fp, lsl #17
    1344:	00000c31 	andeq	r0, r0, r1, lsr ip
    1348:	00000c2d 	andeq	r0, r0, sp, lsr #24
    134c:	00287f1c 	eoreq	r7, r8, ip, lsl pc
    1350:	28fe1d00 	ldmcs	lr!, {r8, sl, fp, ip}^
    1354:	852c0000 	strhi	r0, [ip, #-0]!
    1358:	00020000 	andeq	r0, r2, r0
    135c:	000016f8 	strdeq	r1, [r0], -r8
    1360:	7c09ce02 	stcvc	14, cr12, [r9], {2}
    1364:	1c000010 	stcne	0, cr0, [r0], {16}
    1368:	0000290b 	andeq	r2, r0, fp, lsl #18
    136c:	00296618 	eoreq	r6, r9, r8, lsl r6
    1370:	00852c00 	addeq	r2, r5, r0, lsl #24
    1374:	30000400 	andcc	r0, r0, r0, lsl #8
    1378:	02000017 	andeq	r0, r0, #23, 0
    137c:	7f1905b0 	svcvc	0x001905b0
    1380:	5f000029 	svcpl	0x00000029
    1384:	5d00000c 	stcpl	0, cr0, [r0, #-48]	; 0xffffffd0
    1388:	1c00000c 	stcne	0, cr0, [r0], {12}
    138c:	00002973 	andeq	r2, r0, r3, ror r9
    1390:	0029fa1d 	eoreq	pc, r9, sp, lsl sl	; <UNPREDICTABLE>
    1394:	00852c00 	addeq	r2, r5, r0, lsl #24
    1398:	60000600 	andvs	r0, r0, r0, lsl #12
    139c:	02000017 	andeq	r0, r0, #23, 0
    13a0:	0fe2059d 	svceq	0x00e2059d
    13a4:	071c0000 	ldreq	r0, [ip, -r0]
    13a8:	1f00002a 	svcne	0x0000002a
    13ac:	00001760 	andeq	r1, r0, r0, ror #14
    13b0:	002a131b 	eoreq	r1, sl, fp, lsl r3
    13b4:	000c7600 	andeq	r7, ip, r0, lsl #12
    13b8:	000c7400 	andeq	r7, ip, r0, lsl #8
    13bc:	20000000 	andcs	r0, r0, r0
    13c0:	0000298b 	andeq	r2, r0, fp, lsl #19
    13c4:	0000852c 	andeq	r8, r0, ip, lsr #10
    13c8:	00000004 	andeq	r0, r0, r4
    13cc:	00001001 	andeq	r1, r0, r1
    13d0:	00298c1b 	eoreq	r8, r9, fp, lsl ip
    13d4:	000c9000 	andeq	r9, ip, r0
    13d8:	000c8e00 	andeq	r8, ip, r0, lsl #28
    13dc:	9a180000 	bls	6013e4 <__bss_end__+0x5f73f4>
    13e0:	30000029 	andcc	r0, r0, r9, lsr #32
    13e4:	02000085 	andeq	r0, r0, #133, 0	; 0x85
    13e8:	00177800 	andseq	r7, r7, r0, lsl #16
    13ec:	059e0200 	ldreq	r0, [lr, #512]	; 0x200
    13f0:	0029b319 	eoreq	fp, r9, r9, lsl r3
    13f4:	000ca500 	andeq	sl, ip, r0, lsl #10
    13f8:	000ca300 	andeq	sl, ip, r0, lsl #6
    13fc:	29a71900 	stmibcs	r7!, {r8, fp, ip}
    1400:	0cbc0000 	ldceq	0, cr0, [ip]
    1404:	0cba0000 	ldceq	0, cr0, [sl]
    1408:	9a210000 	bls	841410 <__bss_end__+0x837420>
    140c:	30000029 	andcc	r0, r0, r9, lsr #32
    1410:	04000085 	streq	r0, [r0], #-133	; 0xffffff7b
    1414:	00853000 	addeq	r3, r5, r0
    1418:	00001000 	andeq	r1, r0, r0
    141c:	147f0200 	ldrbtne	r0, [pc], #-512	; 1424 <__code_start__-0x6bdc>
    1420:	0029b319 	eoreq	fp, r9, r9, lsl r3
    1424:	000cd300 	andeq	sp, ip, r0, lsl #6
    1428:	000ccf00 	andeq	ip, ip, r0, lsl #30
    142c:	29a71900 	stmibcs	r7!, {r8, fp, ip}
    1430:	0cf70000 	ldcleq	0, cr0, [r7]
    1434:	0cf50000 	ldcleq	0, cr0, [r5]
    1438:	bf220000 	svclt	0x00220000
    143c:	30000029 	andcc	r0, r0, r9, lsr #32
    1440:	04000085 	streq	r0, [r0], #-133	; 0xffffff7b
    1444:	1b000000 	blne	144c <__code_start__-0x6bb4>
    1448:	000029c0 	andeq	r2, r0, r0, asr #19
    144c:	00000d0c 	andeq	r0, r0, ip, lsl #26
    1450:	00000d0a 	andeq	r0, r0, sl, lsl #26
    1454:	00000000 	andeq	r0, r0, r0
    1458:	29181d00 	ldmdbcs	r8, {r8, sl, fp, ip}
    145c:	84640000 	strbthi	r0, [r4], #-0
    1460:	00010000 	andeq	r0, r1, r0
    1464:	00001790 	muleq	r0, r0, r7
    1468:	8409cb02 	strhi	ip, [r9], #-2818	; 0xfffff4fe
    146c:	1c000011 	stcne	0, cr0, [r0], {17}
    1470:	00002925 	andeq	r2, r0, r5, lsr #18
    1474:	00296618 	eoreq	r6, r9, r8, lsl r6
    1478:	00846400 	addeq	r6, r4, r0, lsl #8
    147c:	c8000300 	stmdagt	r0, {r8, r9}
    1480:	02000017 	andeq	r0, r0, #23, 0
    1484:	7f1905ab 	svcvc	0x001905ab
    1488:	21000029 	tstcs	r0, r9, lsr #32
    148c:	1f00000d 	svcne	0x0000000d
    1490:	1c00000d 	stcne	0, cr0, [r0], {13}
    1494:	00002973 	andeq	r2, r0, r3, ror r9
    1498:	0029fa1d 	eoreq	pc, r9, sp, lsl sl	; <UNPREDICTABLE>
    149c:	00846400 	addeq	r6, r4, r0, lsl #8
    14a0:	f8000500 			; <UNDEFINED> instruction: 0xf8000500
    14a4:	02000017 	andeq	r0, r0, #23, 0
    14a8:	10ea059d 	smlalne	r0, sl, sp, r5
    14ac:	071c0000 	ldreq	r0, [ip, -r0]
    14b0:	1f00002a 	svcne	0x0000002a
    14b4:	000017f8 	strdeq	r1, [r0], -r8
    14b8:	002a131b 	eoreq	r1, sl, fp, lsl r3
    14bc:	000d3900 	andeq	r3, sp, r0, lsl #18
    14c0:	000d3700 	andeq	r3, sp, r0, lsl #14
    14c4:	20000000 	andcs	r0, r0, r0
    14c8:	0000298b 	andeq	r2, r0, fp, lsl #19
    14cc:	00008464 	andeq	r8, r0, r4, ror #8
    14d0:	00000004 	andeq	r0, r0, r4
    14d4:	00001109 	andeq	r1, r0, r9, lsl #2
    14d8:	00298c1b 	eoreq	r8, r9, fp, lsl ip
    14dc:	000d5300 	andeq	r5, sp, r0, lsl #6
    14e0:	000d5100 	andeq	r5, sp, r0, lsl #2
    14e4:	9a180000 	bls	6014ec <__bss_end__+0x5f74fc>
    14e8:	68000029 	stmdavs	r0, {r0, r3, r5}
    14ec:	02000084 	andeq	r0, r0, #132, 0	; 0x84
    14f0:	00181000 	andseq	r1, r8, r0
    14f4:	059e0200 	ldreq	r0, [lr, #512]	; 0x200
    14f8:	0029b319 	eoreq	fp, r9, r9, lsl r3
    14fc:	000d6800 	andeq	r6, sp, r0, lsl #16
    1500:	000d6600 	andeq	r6, sp, r0, lsl #12
    1504:	29a71900 	stmibcs	r7!, {r8, fp, ip}
    1508:	0d800000 	stceq	0, cr0, [r0]
    150c:	0d7e0000 	ldcleq	0, cr0, [lr, #-0]
    1510:	9a210000 	bls	841518 <__bss_end__+0x837528>
    1514:	68000029 	stmdavs	r0, {r0, r3, r5}
    1518:	04000084 	streq	r0, [r0], #-132	; 0xffffff7c
    151c:	00846800 	addeq	r6, r4, r0, lsl #16
    1520:	00001000 	andeq	r1, r0, r0
    1524:	147f0200 	ldrbtne	r0, [pc], #-512	; 152c <__code_start__-0x6ad4>
    1528:	0029b319 	eoreq	fp, r9, r9, lsl r3
    152c:	000d9700 	andeq	r9, sp, r0, lsl #14
    1530:	000d9300 	andeq	r9, sp, r0, lsl #6
    1534:	29a71900 	stmibcs	r7!, {r8, fp, ip}
    1538:	0dbd0000 	ldceq	0, cr0, [sp]
    153c:	0dbb0000 	ldceq	0, cr0, [fp]
    1540:	bf220000 	svclt	0x00220000
    1544:	68000029 	stmdavs	r0, {r0, r3, r5}
    1548:	04000084 	streq	r0, [r0], #-132	; 0xffffff7c
    154c:	1b000000 	blne	1554 <__code_start__-0x6aac>
    1550:	000029c0 	andeq	r2, r0, r0, asr #19
    1554:	00000dd2 	ldrdeq	r0, [r0], -r2
    1558:	00000dd0 	ldrdeq	r0, [r0], -r0	; <UNPREDICTABLE>
    155c:	00000000 	andeq	r0, r0, r0
    1560:	28e41d00 	stmiacs	r4!, {r8, sl, fp, ip}^
    1564:	84780000 	ldrbthi	r0, [r8], #-0
    1568:	00020000 	andeq	r0, r2, r0
    156c:	00001828 	andeq	r1, r0, r8, lsr #16
    1570:	8a09cc02 	bhi	274580 <__bss_end__+0x26a590>
    1574:	1c000012 	stcne	0, cr0, [r0], {18}
    1578:	000028f1 	strdeq	r2, [r0], -r1
    157c:	00293218 	eoreq	r3, r9, r8, lsl r2
    1580:	00847800 	addeq	r7, r4, r0, lsl #16
    1584:	30000400 	andcc	r0, r0, r0, lsl #8
    1588:	02000018 	andeq	r0, r0, #24, 0
    158c:	4b1905b4 	blmi	642c64 <__bss_end__+0x638c74>
    1590:	e7000029 	str	r0, [r0, -r9, lsr #32]
    1594:	e500000d 	str	r0, [r0, #-13]
    1598:	1c00000d 	stcne	0, cr0, [r0], {13}
    159c:	0000293f 	andeq	r2, r0, pc, lsr r9
    15a0:	0029ce23 	eoreq	ip, r9, r3, lsr #28
    15a4:	00847800 	addeq	r7, r4, r0, lsl #16
    15a8:	78000600 	stmdavc	r0, {r9, sl}
    15ac:	04000084 	streq	r0, [r0], #-132	; 0xffffff7c
    15b0:	02000000 	andeq	r0, r0, #0, 0
    15b4:	11f005a5 	mvnsne	r0, r5, lsr #11
    15b8:	db1c0000 	blle	7015c0 <__bss_end__+0x6f75d0>
    15bc:	1b000029 	blne	1668 <__code_start__-0x6998>
    15c0:	000029e7 	andeq	r2, r0, r7, ror #19
    15c4:	00000dfe 	strdeq	r0, [r0], -lr
    15c8:	00000dfc 	strdeq	r0, [r0], -ip
    15cc:	29572000 	ldmdbcs	r7, {sp}^
    15d0:	847c0000 	ldrbthi	r0, [ip], #-0
    15d4:	00040000 	andeq	r0, r4, r0
    15d8:	120f0000 	andne	r0, pc, #0, 0
    15dc:	581b0000 	ldmdapl	fp, {}	; <UNPREDICTABLE>
    15e0:	18000029 	stmdane	r0, {r0, r3, r5}
    15e4:	1600000e 	strne	r0, [r0], -lr
    15e8:	0000000e 	andeq	r0, r0, lr
    15ec:	00299a18 	eoreq	r9, r9, r8, lsl sl
    15f0:	00848000 	addeq	r8, r4, r0
    15f4:	58000200 	stmdapl	r0, {r9}
    15f8:	02000018 	andeq	r0, r0, #24, 0
    15fc:	b31905a6 	tstlt	r9, #696254464	; 0x29800000
    1600:	2d000029 	stccs	0, cr0, [r0, #-164]	; 0xffffff5c
    1604:	2b00000e 	blcs	1644 <__code_start__-0x69bc>
    1608:	1900000e 	stmdbne	r0, {r1, r2, r3}
    160c:	000029a7 	andeq	r2, r0, r7, lsr #19
    1610:	00000e44 	andeq	r0, r0, r4, asr #28
    1614:	00000e42 	andeq	r0, r0, r2, asr #28
    1618:	00299a21 	eoreq	r9, r9, r1, lsr #20
    161c:	00848000 	addeq	r8, r4, r0
    1620:	80000400 	andhi	r0, r0, r0, lsl #8
    1624:	10000084 	andne	r0, r0, r4, lsl #1
    1628:	02000000 	andeq	r0, r0, #0, 0
    162c:	b319147f 	tstlt	r9, #2130706432	; 0x7f000000
    1630:	5b000029 	blpl	16dc <__code_start__-0x6924>
    1634:	5700000e 	strpl	r0, [r0, -lr]
    1638:	1900000e 	stmdbne	r0, {r1, r2, r3}
    163c:	000029a7 	andeq	r2, r0, r7, lsr #19
    1640:	00000e7f 	andeq	r0, r0, pc, ror lr
    1644:	00000e7d 	andeq	r0, r0, sp, ror lr
    1648:	0029bf22 	eoreq	fp, r9, r2, lsr #30
    164c:	00848000 	addeq	r8, r4, r0
    1650:	00000400 	andeq	r0, r0, r0, lsl #8
    1654:	29c01b00 	stmibcs	r0, {r8, r9, fp, ip}^
    1658:	0e940000 	cdpeq	0, 9, cr0, cr4, cr0, {0}
    165c:	0e920000 	cdpeq	0, 9, cr0, cr2, cr0, {0}
    1660:	00000000 	andeq	r0, r0, r0
    1664:	18000000 	stmdane	r0, {}	; <UNPREDICTABLE>
    1668:	000028ca 	andeq	r2, r0, sl, asr #17
    166c:	00008540 	andeq	r8, r0, r0, asr #10
    1670:	18700002 	ldmdane	r0!, {r1}^
    1674:	cf020000 	svcgt	0x00020000
    1678:	28d71c09 	ldmcs	r7, {r0, r3, sl, fp, ip}^
    167c:	32180000 	andscc	r0, r8, #0, 0
    1680:	40000029 	andmi	r0, r0, r9, lsr #32
    1684:	04000085 	streq	r0, [r0], #-133	; 0xffffff7b
    1688:	00187800 	andseq	r7, r8, r0, lsl #16
    168c:	05b80200 	ldreq	r0, [r8, #512]!	; 0x200
    1690:	00294b19 	eoreq	r4, r9, r9, lsl fp
    1694:	000ea900 	andeq	sl, lr, r0, lsl #18
    1698:	000ea700 	andeq	sl, lr, r0, lsl #14
    169c:	293f1c00 	ldmdbcs	pc!, {sl, fp, ip}	; <UNPREDICTABLE>
    16a0:	ce230000 	cdpgt	0, 2, cr0, cr3, cr0, {0}
    16a4:	40000029 	andmi	r0, r0, r9, lsr #32
    16a8:	06000085 	streq	r0, [r0], -r5, lsl #1
    16ac:	00854000 	addeq	r4, r5, r0
    16b0:	00000400 	andeq	r0, r0, r0, lsl #8
    16b4:	05a50200 	streq	r0, [r5, #512]!	; 0x200
    16b8:	000012f2 	strdeq	r1, [r0], -r2
    16bc:	0029db1c 	eoreq	sp, r9, ip, lsl fp
    16c0:	29e71b00 	stmibcs	r7!, {r8, r9, fp, ip}^
    16c4:	0ec10000 	cdpeq	0, 12, cr0, cr1, cr0, {0}
    16c8:	0ebf0000 	cdpeq	0, 11, cr0, cr15, cr0, {0}
    16cc:	20000000 	andcs	r0, r0, r0
    16d0:	00002957 	andeq	r2, r0, r7, asr r9
    16d4:	00008544 	andeq	r8, r0, r4, asr #10
    16d8:	00000004 	andeq	r0, r0, r4
    16dc:	00001311 	andeq	r1, r0, r1, lsl r3
    16e0:	0029581b 	eoreq	r5, r9, fp, lsl r8
    16e4:	000edb00 	andeq	sp, lr, r0, lsl #22
    16e8:	000ed900 	andeq	sp, lr, r0, lsl #18
    16ec:	9a180000 	bls	6016f4 <__bss_end__+0x5f7704>
    16f0:	48000029 	stmdami	r0, {r0, r3, r5}
    16f4:	02000085 	andeq	r0, r0, #133, 0	; 0x85
    16f8:	0018a000 	andseq	sl, r8, r0
    16fc:	05a60200 	streq	r0, [r6, #512]!	; 0x200
    1700:	0029b319 	eoreq	fp, r9, r9, lsl r3
    1704:	000ef000 	andeq	pc, lr, r0
    1708:	000eee00 	andeq	lr, lr, r0, lsl #28
    170c:	29a71900 	stmibcs	r7!, {r8, fp, ip}
    1710:	0f080000 	svceq	0x00080000
    1714:	0f060000 	svceq	0x00060000
    1718:	9a210000 	bls	841720 <__bss_end__+0x837730>
    171c:	48000029 	stmdami	r0, {r0, r3, r5}
    1720:	04000085 	streq	r0, [r0], #-133	; 0xffffff7b
    1724:	00854800 	addeq	r4, r5, r0, lsl #16
    1728:	00001000 	andeq	r1, r0, r0
    172c:	147f0200 	ldrbtne	r0, [pc], #-512	; 1734 <__code_start__-0x68cc>
    1730:	0029b319 	eoreq	fp, r9, r9, lsl r3
    1734:	000f1f00 	andeq	r1, pc, r0, lsl #30
    1738:	000f1b00 	andeq	r1, pc, r0, lsl #22
    173c:	29a71900 	stmibcs	r7!, {r8, fp, ip}
    1740:	0f450000 	svceq	0x00450000
    1744:	0f430000 	svceq	0x00430000
    1748:	bf220000 	svclt	0x00220000
    174c:	48000029 	stmdami	r0, {r0, r3, r5}
    1750:	04000085 	streq	r0, [r0], #-133	; 0xffffff7b
    1754:	1b000000 	blne	175c <__code_start__-0x68a4>
    1758:	000029c0 	andeq	r2, r0, r0, asr #19
    175c:	00000f5a 	andeq	r0, r0, sl, asr pc
    1760:	00000f58 	andeq	r0, r0, r8, asr pc
	...
    176c:	00284226 	eoreq	r4, r8, r6, lsr #4
    1770:	0018b800 	andseq	fp, r8, r0, lsl #16
    1774:	05e60200 	strbeq	r0, [r6, #512]!	; 0x200
    1778:	00285b1c 	eoreq	r5, r8, ip, lsl fp
    177c:	284f1c00 	stmdacs	pc, {sl, fp, ip}^	; <UNPREDICTABLE>
    1780:	651e0000 	ldrvs	r0, [lr, #-0]
    1784:	b8000028 	stmdalt	r0, {r3, r5}
    1788:	1b000018 	blne	17f0 <__code_start__-0x6810>
    178c:	00002866 	andeq	r2, r0, r6, ror #16
    1790:	00000f75 	andeq	r0, r0, r5, ror pc
    1794:	00000f6d 	andeq	r0, r0, sp, ror #30
    1798:	00287218 	eoreq	r7, r8, r8, lsl r2
    179c:	00849c00 	addeq	r9, r4, r0, lsl #24
    17a0:	48000100 	stmdami	r0, {r8}
    17a4:	02000019 	andeq	r0, r0, #25, 0
    17a8:	8b1909da 	blhi	643f18 <__bss_end__+0x639f28>
    17ac:	b1000028 	tstlt	r0, r8, lsr #32
    17b0:	ad00000f 	stcge	0, cr0, [r0, #-60]	; 0xffffffc4
    17b4:	1c00000f 	stcne	0, cr0, [r0], {15}
    17b8:	0000287f 	andeq	r2, r0, pc, ror r8
    17bc:	0028fe1d 	eoreq	pc, r8, sp, lsl lr	; <UNPREDICTABLE>
    17c0:	0084f400 	addeq	pc, r4, r0, lsl #8
    17c4:	f0000100 			; <UNDEFINED> instruction: 0xf0000100
    17c8:	02000019 	andeq	r0, r0, #25, 0
    17cc:	14e709ce 	strbtne	r0, [r7], #2510	; 0x9ce
    17d0:	0b1c0000 	bleq	7017d8 <__bss_end__+0x6f77e8>
    17d4:	18000029 	stmdane	r0, {r0, r3, r5}
    17d8:	00002966 	andeq	r2, r0, r6, ror #18
    17dc:	000084f4 	strdeq	r8, [r0], -r4
    17e0:	1a280003 	bne	a017f4 <__bss_end__+0x9f7804>
    17e4:	b0020000 	andlt	r0, r2, r0
    17e8:	297f1905 	ldmdbcs	pc!, {r0, r2, r8, fp, ip}^	; <UNPREDICTABLE>
    17ec:	0fdf0000 	svceq	0x00df0000
    17f0:	0fdd0000 	svceq	0x00dd0000
    17f4:	731c0000 	tstvc	ip, #0, 0
    17f8:	1d000029 	stcne	0, cr0, [r0, #-164]	; 0xffffff5c
    17fc:	000029fa 	strdeq	r2, [r0], -sl
    1800:	000084f4 	strdeq	r8, [r0], -r4
    1804:	1a580005 	bne	1601820 <__bss_end__+0x15f7830>
    1808:	9d020000 	stcls	0, cr0, [r2, #-0]
    180c:	00144d05 	andseq	r4, r4, r5, lsl #26
    1810:	2a071c00 	bcs	1c8818 <__bss_end__+0x1be828>
    1814:	581f0000 	ldmdapl	pc, {}	; <UNPREDICTABLE>
    1818:	1b00001a 	blne	1888 <__code_start__-0x6778>
    181c:	00002a13 	andeq	r2, r0, r3, lsl sl
    1820:	00000ff6 	strdeq	r0, [r0], -r6
    1824:	00000ff4 	strdeq	r0, [r0], -r4
    1828:	8b200000 	blhi	801830 <__bss_end__+0x7f7840>
    182c:	f4000029 	vst4.8	{d0-d3}, [r0 :128], r9
    1830:	04000084 	streq	r0, [r0], #-132	; 0xffffff7c
    1834:	6c000000 	stcvs	0, cr0, [r0], {-0}
    1838:	1b000014 	blne	1890 <__code_start__-0x6770>
    183c:	0000298c 	andeq	r2, r0, ip, lsl #19
    1840:	00001010 	andeq	r1, r0, r0, lsl r0
    1844:	0000100e 	andeq	r1, r0, lr
    1848:	299a1800 	ldmibcs	sl, {fp, ip}
    184c:	84f80000 	ldrbthi	r0, [r8], #0
    1850:	00020000 	andeq	r0, r2, r0
    1854:	00001a70 	andeq	r1, r0, r0, ror sl
    1858:	19059e02 	stmdbne	r5, {r1, r9, sl, fp, ip, pc}
    185c:	000029b3 			; <UNDEFINED> instruction: 0x000029b3
    1860:	00001025 	andeq	r1, r0, r5, lsr #32
    1864:	00001023 	andeq	r1, r0, r3, lsr #32
    1868:	0029a719 	eoreq	sl, r9, r9, lsl r7
    186c:	00103c00 	andseq	r3, r0, r0, lsl #24
    1870:	00103a00 	andseq	r3, r0, r0, lsl #20
    1874:	299a2100 	ldmibcs	sl, {r8, sp}
    1878:	84f80000 	ldrbthi	r0, [r8], #0
    187c:	00040000 	andeq	r0, r4, r0
    1880:	000084f8 	strdeq	r8, [r0], -r8	; <UNPREDICTABLE>
    1884:	00000010 	andeq	r0, r0, r0, lsl r0
    1888:	19147f02 	ldmdbne	r4, {r1, r8, r9, sl, fp, ip, sp, lr}
    188c:	000029b3 			; <UNDEFINED> instruction: 0x000029b3
    1890:	00001053 	andeq	r1, r0, r3, asr r0
    1894:	0000104f 	andeq	r1, r0, pc, asr #32
    1898:	0029a719 	eoreq	sl, r9, r9, lsl r7
    189c:	00107700 	andseq	r7, r0, r0, lsl #14
    18a0:	00107500 	andseq	r7, r0, r0, lsl #10
    18a4:	29bf2200 	ldmibcs	pc!, {r9, sp}	; <UNPREDICTABLE>
    18a8:	84f80000 	ldrbthi	r0, [r8], #0
    18ac:	00040000 	andeq	r0, r4, r0
    18b0:	c01b0000 	andsgt	r0, fp, r0
    18b4:	8c000029 	stchi	0, cr0, [r0], {41}	; 0x29
    18b8:	8a000010 	bhi	1900 <__code_start__-0x6700>
    18bc:	00000010 	andeq	r0, r0, r0, lsl r0
    18c0:	00000000 	andeq	r0, r0, r0
    18c4:	0029181d 	eoreq	r1, r9, sp, lsl r8
    18c8:	0084b000 	addeq	fp, r4, r0
    18cc:	88000100 	stmdahi	r0, {r8}
    18d0:	0200001a 	andeq	r0, r0, #26, 0
    18d4:	15ef09cb 	strbne	r0, [pc, #2507]!	; 22a7 <__code_start__-0x5d59>
    18d8:	251c0000 	ldrcs	r0, [ip, #-0]
    18dc:	18000029 	stmdane	r0, {r0, r3, r5}
    18e0:	00002966 	andeq	r2, r0, r6, ror #18
    18e4:	000084b0 			; <UNDEFINED> instruction: 0x000084b0
    18e8:	1ac80003 	bne	ff2018fc <__bss_end__+0xff1f790c>
    18ec:	ab020000 	blge	818f4 <__bss_end__+0x77904>
    18f0:	297f1905 	ldmdbcs	pc!, {r0, r2, r8, fp, ip}^	; <UNPREDICTABLE>
    18f4:	10a10000 	adcne	r0, r1, r0
    18f8:	109f0000 	addsne	r0, pc, r0
    18fc:	731c0000 	tstvc	ip, #0, 0
    1900:	1d000029 	stcne	0, cr0, [r0, #-164]	; 0xffffff5c
    1904:	000029fa 	strdeq	r2, [r0], -sl
    1908:	000084b0 			; <UNDEFINED> instruction: 0x000084b0
    190c:	1b000005 	blne	1928 <__code_start__-0x66d8>
    1910:	9d020000 	stcls	0, cr0, [r2, #-0]
    1914:	00155505 	andseq	r5, r5, r5, lsl #10
    1918:	2a071c00 	bcs	1c8920 <__bss_end__+0x1be930>
    191c:	001f0000 	andseq	r0, pc, r0
    1920:	1b00001b 	blne	1994 <__code_start__-0x666c>
    1924:	00002a13 	andeq	r2, r0, r3, lsl sl
    1928:	000010b9 	strheq	r1, [r0], -r9
    192c:	000010b7 	strheq	r1, [r0], -r7
    1930:	8b200000 	blhi	801938 <__bss_end__+0x7f7948>
    1934:	b0000029 	andlt	r0, r0, r9, lsr #32
    1938:	04000084 	streq	r0, [r0], #-132	; 0xffffff7c
    193c:	74000000 	strvc	r0, [r0], #-0
    1940:	1b000015 	blne	199c <__code_start__-0x6664>
    1944:	0000298c 	andeq	r2, r0, ip, lsl #19
    1948:	000010d3 	ldrdeq	r1, [r0], -r3
    194c:	000010d1 	ldrdeq	r1, [r0], -r1	; <UNPREDICTABLE>
    1950:	299a1800 	ldmibcs	sl, {fp, ip}
    1954:	84b40000 	ldrthi	r0, [r4], #0
    1958:	00020000 	andeq	r0, r2, r0
    195c:	00001b20 	andeq	r1, r0, r0, lsr #22
    1960:	19059e02 	stmdbne	r5, {r1, r9, sl, fp, ip, pc}
    1964:	000029b3 			; <UNDEFINED> instruction: 0x000029b3
    1968:	000010e8 	andeq	r1, r0, r8, ror #1
    196c:	000010e6 	andeq	r1, r0, r6, ror #1
    1970:	0029a719 	eoreq	sl, r9, r9, lsl r7
    1974:	00110000 	andseq	r0, r1, r0
    1978:	0010fe00 	andseq	pc, r0, r0, lsl #28
    197c:	299a2100 	ldmibcs	sl, {r8, sp}
    1980:	84b40000 	ldrthi	r0, [r4], #0
    1984:	00040000 	andeq	r0, r4, r0
    1988:	000084b4 			; <UNDEFINED> instruction: 0x000084b4
    198c:	00000010 	andeq	r0, r0, r0, lsl r0
    1990:	19147f02 	ldmdbne	r4, {r1, r8, r9, sl, fp, ip, sp, lr}
    1994:	000029b3 			; <UNDEFINED> instruction: 0x000029b3
    1998:	00001117 	andeq	r1, r0, r7, lsl r1
    199c:	00001113 	andeq	r1, r0, r3, lsl r1
    19a0:	0029a719 	eoreq	sl, r9, r9, lsl r7
    19a4:	00113d00 	andseq	r3, r1, r0, lsl #26
    19a8:	00113b00 	andseq	r3, r1, r0, lsl #22
    19ac:	29bf2200 	ldmibcs	pc!, {r9, sp}	; <UNPREDICTABLE>
    19b0:	84b40000 	ldrthi	r0, [r4], #0
    19b4:	00040000 	andeq	r0, r4, r0
    19b8:	c01b0000 	andsgt	r0, fp, r0
    19bc:	52000029 	andpl	r0, r0, #41, 0	; 0x29
    19c0:	50000011 	andpl	r0, r0, r1, lsl r0
    19c4:	00000011 	andeq	r0, r0, r1, lsl r0
    19c8:	00000000 	andeq	r0, r0, r0
    19cc:	0028e41d 	eoreq	lr, r8, sp, lsl r4
    19d0:	0084c400 	addeq	ip, r4, r0, lsl #8
    19d4:	38000200 	stmdacc	r0, {r9}
    19d8:	0200001b 	andeq	r0, r0, #27, 0
    19dc:	16f509cc 	ldrbtne	r0, [r5], ip, asr #19
    19e0:	f11c0000 			; <UNDEFINED> instruction: 0xf11c0000
    19e4:	18000028 	stmdane	r0, {r3, r5}
    19e8:	00002932 	andeq	r2, r0, r2, lsr r9
    19ec:	000084c4 	andeq	r8, r0, r4, asr #9
    19f0:	1b400004 	blne	1001a08 <__bss_end__+0xff7a18>
    19f4:	b4020000 	strlt	r0, [r2], #-0
    19f8:	294b1905 	stmdbcs	fp, {r0, r2, r8, fp, ip}^
    19fc:	11670000 	cmnne	r7, r0
    1a00:	11650000 	cmnne	r5, r0
    1a04:	3f1c0000 	svccc	0x001c0000
    1a08:	23000029 	movwcs	r0, #41	; 0x29
    1a0c:	000029ce 	andeq	r2, r0, lr, asr #19
    1a10:	000084c4 	andeq	r8, r0, r4, asr #9
    1a14:	84c40006 	strbhi	r0, [r4], #6
    1a18:	00040000 	andeq	r0, r4, r0
    1a1c:	a5020000 	strge	r0, [r2, #-0]
    1a20:	00165b05 	andseq	r5, r6, r5, lsl #22
    1a24:	29db1c00 	ldmibcs	fp, {sl, fp, ip}^
    1a28:	e71b0000 	ldr	r0, [fp, -r0]
    1a2c:	7e000029 	cdpvc	0, 0, cr0, cr0, cr9, {1}
    1a30:	7c000011 	stcvc	0, cr0, [r0], {17}
    1a34:	00000011 	andeq	r0, r0, r1, lsl r0
    1a38:	00295720 	eoreq	r5, r9, r0, lsr #14
    1a3c:	0084c800 	addeq	ip, r4, r0, lsl #16
    1a40:	00000400 	andeq	r0, r0, r0, lsl #8
    1a44:	00167a00 	andseq	r7, r6, r0, lsl #20
    1a48:	29581b00 	ldmdbcs	r8, {r8, r9, fp, ip}^
    1a4c:	11980000 	orrsne	r0, r8, r0
    1a50:	11960000 	orrsne	r0, r6, r0
    1a54:	18000000 	stmdane	r0, {}	; <UNPREDICTABLE>
    1a58:	0000299a 	muleq	r0, sl, r9
    1a5c:	000084cc 	andeq	r8, r0, ip, asr #9
    1a60:	1b680002 	blne	1a01a70 <__bss_end__+0x19f7a80>
    1a64:	a6020000 	strge	r0, [r2], -r0
    1a68:	29b31905 	ldmibcs	r3!, {r0, r2, r8, fp, ip}
    1a6c:	11ad0000 			; <UNDEFINED> instruction: 0x11ad0000
    1a70:	11ab0000 			; <UNDEFINED> instruction: 0x11ab0000
    1a74:	a7190000 	ldrge	r0, [r9, -r0]
    1a78:	c4000029 	strgt	r0, [r0], #-41	; 0xffffffd7
    1a7c:	c2000011 	andgt	r0, r0, #17, 0
    1a80:	21000011 	tstcs	r0, r1, lsl r0
    1a84:	0000299a 	muleq	r0, sl, r9
    1a88:	000084cc 	andeq	r8, r0, ip, asr #9
    1a8c:	84cc0004 	strbhi	r0, [ip], #4
    1a90:	00100000 	andseq	r0, r0, r0
    1a94:	7f020000 	svcvc	0x00020000
    1a98:	29b31914 	ldmibcs	r3!, {r2, r4, r8, fp, ip}
    1a9c:	11db0000 	bicsne	r0, fp, r0
    1aa0:	11d70000 	bicsne	r0, r7, r0
    1aa4:	a7190000 	ldrge	r0, [r9, -r0]
    1aa8:	ff000029 			; <UNDEFINED> instruction: 0xff000029
    1aac:	fd000011 	stc2	0, cr0, [r0, #-68]	; 0xffffffbc
    1ab0:	22000011 	andcs	r0, r0, #17, 0
    1ab4:	000029bf 			; <UNDEFINED> instruction: 0x000029bf
    1ab8:	000084cc 	andeq	r8, r0, ip, asr #9
    1abc:	00000004 	andeq	r0, r0, r4
    1ac0:	0029c01b 	eoreq	ip, r9, fp, lsl r0
    1ac4:	00121400 	andseq	r1, r2, r0, lsl #8
    1ac8:	00121200 	andseq	r1, r2, r0, lsl #4
    1acc:	00000000 	andeq	r0, r0, r0
    1ad0:	ca180000 	bgt	601ad8 <__bss_end__+0x5f7ae8>
    1ad4:	08000028 	stmdaeq	r0, {r3, r5}
    1ad8:	02000085 	andeq	r0, r0, #133, 0	; 0x85
    1adc:	001b8000 	andseq	r8, fp, r0
    1ae0:	09cf0200 	stmibeq	pc, {r9}^	; <UNPREDICTABLE>
    1ae4:	0028d71c 	eoreq	sp, r8, ip, lsl r7
    1ae8:	29321800 	ldmdbcs	r2!, {fp, ip}
    1aec:	85080000 	strhi	r0, [r8, #-0]
    1af0:	00040000 	andeq	r0, r4, r0
    1af4:	00001b88 	andeq	r1, r0, r8, lsl #23
    1af8:	1905b802 	stmdbne	r5, {r1, fp, ip, sp, pc}
    1afc:	0000294b 	andeq	r2, r0, fp, asr #18
    1b00:	00001229 	andeq	r1, r0, r9, lsr #4
    1b04:	00001227 	andeq	r1, r0, r7, lsr #4
    1b08:	00293f1c 	eoreq	r3, r9, ip, lsl pc
    1b0c:	29ce2300 	stmibcs	lr, {r8, r9, sp}^
    1b10:	85080000 	strhi	r0, [r8, #-0]
    1b14:	00060000 	andeq	r0, r6, r0
    1b18:	00008508 	andeq	r8, r0, r8, lsl #10
    1b1c:	00000004 	andeq	r0, r0, r4
    1b20:	5d05a502 	cfstr32pl	mvfx10, [r5, #-8]
    1b24:	1c000017 	stcne	0, cr0, [r0], {23}
    1b28:	000029db 	ldrdeq	r2, [r0], -fp
    1b2c:	0029e71b 	eoreq	lr, r9, fp, lsl r7
    1b30:	00124100 	andseq	r4, r2, r0, lsl #2
    1b34:	00123f00 	andseq	r3, r2, r0, lsl #30
    1b38:	57200000 	strpl	r0, [r0, -r0]!
    1b3c:	0c000029 	stceq	0, cr0, [r0], {41}	; 0x29
    1b40:	04000085 	streq	r0, [r0], #-133	; 0xffffff7b
    1b44:	7c000000 	stcvc	0, cr0, [r0], {-0}
    1b48:	1b000017 	blne	1bac <__code_start__-0x6454>
    1b4c:	00002958 	andeq	r2, r0, r8, asr r9
    1b50:	0000125b 	andeq	r1, r0, fp, asr r2
    1b54:	00001259 	andeq	r1, r0, r9, asr r2
    1b58:	299a1800 	ldmibcs	sl, {fp, ip}
    1b5c:	85100000 	ldrhi	r0, [r0, #-0]
    1b60:	00020000 	andeq	r0, r2, r0
    1b64:	00001bb0 			; <UNDEFINED> instruction: 0x00001bb0
    1b68:	1905a602 	stmdbne	r5, {r1, r9, sl, sp, pc}
    1b6c:	000029b3 			; <UNDEFINED> instruction: 0x000029b3
    1b70:	00001270 	andeq	r1, r0, r0, ror r2
    1b74:	0000126e 	andeq	r1, r0, lr, ror #4
    1b78:	0029a719 	eoreq	sl, r9, r9, lsl r7
    1b7c:	00128800 	andseq	r8, r2, r0, lsl #16
    1b80:	00128600 	andseq	r8, r2, r0, lsl #12
    1b84:	299a2100 	ldmibcs	sl, {r8, sp}
    1b88:	85100000 	ldrhi	r0, [r0, #-0]
    1b8c:	00040000 	andeq	r0, r4, r0
    1b90:	00008510 	andeq	r8, r0, r0, lsl r5
    1b94:	00000010 	andeq	r0, r0, r0, lsl r0
    1b98:	19147f02 	ldmdbne	r4, {r1, r8, r9, sl, fp, ip, sp, lr}
    1b9c:	000029b3 			; <UNDEFINED> instruction: 0x000029b3
    1ba0:	0000129f 	muleq	r0, pc, r2	; <UNPREDICTABLE>
    1ba4:	0000129b 	muleq	r0, fp, r2
    1ba8:	0029a719 	eoreq	sl, r9, r9, lsl r7
    1bac:	0012c500 	andseq	ip, r2, r0, lsl #10
    1bb0:	0012c300 	andseq	ip, r2, r0, lsl #6
    1bb4:	29bf2200 	ldmibcs	pc!, {r9, sp}	; <UNPREDICTABLE>
    1bb8:	85100000 	ldrhi	r0, [r0, #-0]
    1bbc:	00040000 	andeq	r0, r4, r0
    1bc0:	c01b0000 	andsgt	r0, fp, r0
    1bc4:	da000029 	ble	1c70 <__code_start__-0x6390>
    1bc8:	d8000012 	stmdale	r0, {r1, r4}
    1bcc:	00000012 	andeq	r0, r0, r2, lsl r0
	...
    1bd8:	004a2d00 	subeq	r2, sl, r0, lsl #26
    1bdc:	27010000 	strcs	r0, [r1, -r0]
    1be0:	0000e107 	andeq	lr, r0, r7, lsl #2
    1be4:	0083a800 	addeq	sl, r3, r0, lsl #16
    1be8:	00004800 	andeq	r4, r0, r0, lsl #16
    1bec:	b19c0100 	orrslt	r0, ip, r0, lsl #2
    1bf0:	16000018 			; <UNDEFINED> instruction: 0x16000018
    1bf4:	006e6970 	rsbeq	r6, lr, r0, ror r9
    1bf8:	591b2701 	ldmdbpl	fp, {r0, r8, r9, sl, sp}
    1bfc:	f1000000 	cps	#0
    1c00:	ed000012 	stc	0, cr0, [r0, #-72]	; 0xffffffb8
    1c04:	2e000012 	mcrcs	0, 0, r0, cr0, cr2, {0}
    1c08:	00000272 	andeq	r0, r0, r2, ror r2
    1c0c:	2c292701 	stccs	7, cr2, [r9], #-4
    1c10:	16000000 	strne	r0, [r0], -r0
    1c14:	12000013 	andne	r0, r0, #19, 0
    1c18:	2f000013 	svccs	0x00000013
    1c1c:	28010068 	stmdacs	r1, {r3, r5, r6}
    1c20:	0000e10b 	andeq	lr, r0, fp, lsl #2
    1c24:	00133800 	andseq	r3, r3, r0, lsl #16
    1c28:	00133400 	andseq	r3, r3, r0, lsl #8
    1c2c:	05d23000 	ldrbeq	r3, [r2]
    1c30:	2a010000 	bcs	41c38 <__bss_end__+0x37c48>
    1c34:	00002c0e 	andeq	r2, r0, lr, lsl #24
    1c38:	00135800 	andseq	r5, r3, r0, lsl #16
    1c3c:	00135600 	andseq	r5, r3, r0, lsl #12
    1c40:	83c03100 	bichi	r3, r0, #0
    1c44:	31d30000 	bicscc	r0, r3, r0
    1c48:	c8320000 	ldmdagt	r2!, {}	; <UNPREDICTABLE>
    1c4c:	df000083 	svcle	0x00000083
    1c50:	81000031 	tsthi	r0, r1, lsr r0
    1c54:	33000018 	movwcc	r0, #24
    1c58:	77025001 	strvc	r5, [r2, -r1]
    1c5c:	d8320000 	ldmdale	r2!, {}	; <UNPREDICTABLE>
    1c60:	eb000083 	bl	1e74 <__code_start__-0x618c>
    1c64:	a0000031 	andge	r0, r0, r1, lsr r0
    1c68:	33000018 	movwcc	r0, #24
    1c6c:	74025001 	strvc	r5, [r2], #-1
    1c70:	51013300 	mrspl	r3, SP_irq
    1c74:	01333001 	teqeq	r3, r1
    1c78:	00770252 	rsbseq	r0, r7, r2, asr r2
    1c7c:	83e83400 	mvnhi	r3, #0, 8
    1c80:	31f70000 	mvnscc	r0, r0
    1c84:	01330000 	teqeq	r3, r0
    1c88:	00760250 	rsbseq	r0, r6, r0, asr r2
    1c8c:	80150000 	andshi	r0, r5, r0
    1c90:	01000000 	mrseq	r0, (UNDEF: 0)
    1c94:	8174061e 	cmnhi	r4, lr, lsl r6
    1c98:	02340000 	eorseq	r0, r4, #0, 0
    1c9c:	9c010000 	stcls	0, cr0, [r1], {-0}
    1ca0:	0000280a 	andeq	r2, r0, sl, lsl #16
    1ca4:	01006816 	tsteq	r0, r6, lsl r8
    1ca8:	00e1191e 	rsceq	r1, r1, lr, lsl r9
    1cac:	13770000 	cmnne	r7, #0, 0
    1cb0:	136b0000 	cmnne	fp, #0, 0
    1cb4:	48350000 	ldmdami	r5!, {}	; <UNPREDICTABLE>
    1cb8:	a1000000 	mrsge	r0, (UNDEF: 0)
    1cbc:	2f000026 	svccs	0x00000026
    1cc0:	1f010069 	svcne	0x00010069
    1cc4:	0000250e 	andeq	r2, r0, lr, lsl #10
    1cc8:	0013cf00 	andseq	ip, r3, r0, lsl #30
    1ccc:	0013cb00 	andseq	ip, r3, r0, lsl #22
    1cd0:	01f81f00 	mvnseq	r1, r0, lsl #30
    1cd4:	702f0000 	eorvc	r0, pc, r0
    1cd8:	01007869 	tsteq	r0, r9, ror #16
    1cdc:	01651a20 	cmneq	r5, r0, lsr #20
    1ce0:	13ff0000 	mvnsne	r0, #0, 0
    1ce4:	13ef0000 	mvnne	r0, #0, 0
    1ce8:	0a180000 	beq	601cf0 <__bss_end__+0x5f7d00>
    1cec:	ac000028 	stcge	0, cr0, [r0], {40}	; 0x28
    1cf0:	01000081 	smlabbeq	r0, r1, r0, r0
    1cf4:	0003a000 	andeq	sl, r3, r0
    1cf8:	09210100 	stmdbeq	r1!, {r8}
    1cfc:	00283719 	eoreq	r3, r8, r9, lsl r7
    1d00:	0014a200 	andseq	sl, r4, r0, lsl #4
    1d04:	00149e00 	andseq	r9, r4, r0, lsl #28
    1d08:	282d1900 	stmdacs	sp!, {r8, fp, ip}
    1d0c:	14c60000 	strbne	r0, [r6], #0
    1d10:	14c00000 	strbne	r0, [r0], #0
    1d14:	23190000 	tstcs	r9, #0, 0
    1d18:	f8000028 			; <UNDEFINED> instruction: 0xf8000028
    1d1c:	f0000014 			; <UNDEFINED> instruction: 0xf0000014
    1d20:	1c000014 	stcne	0, cr0, [r0], {20}
    1d24:	00002817 	andeq	r2, r0, r7, lsl r8
    1d28:	0028421d 	eoreq	r4, r8, sp, lsl r2
    1d2c:	0081ac00 	addeq	sl, r1, r0, lsl #24
    1d30:	60000300 	andvs	r0, r0, r0, lsl #6
    1d34:	02000005 	andeq	r0, r0, #5, 0
    1d38:	1dc805e4 	cfstr64ne	mvdx0, [r8, #912]	; 0x390
    1d3c:	5b190000 	blpl	641d44 <__bss_end__+0x637d54>
    1d40:	34000028 	strcc	r0, [r0], #-40	; 0xffffffd8
    1d44:	2e000015 	mcrcs	0, 0, r0, cr0, cr5, {0}
    1d48:	1c000015 	stcne	0, cr0, [r0], {21}
    1d4c:	0000284f 	andeq	r2, r0, pc, asr #16
    1d50:	0028651e 	eoreq	r6, r8, lr, lsl r5
    1d54:	00061800 	andeq	r1, r6, r0, lsl #16
    1d58:	28661b00 	stmdacs	r6!, {r8, r9, fp, ip}^
    1d5c:	15680000 	strbne	r0, [r8, #-0]!
    1d60:	155e0000 	ldrbne	r0, [lr, #-0]
    1d64:	72180000 	andsvc	r0, r8, #0, 0
    1d68:	b0000028 	andlt	r0, r0, r8, lsr #32
    1d6c:	01000081 	smlabbeq	r0, r1, r0, r0
    1d70:	0006c800 	andeq	ip, r6, r0, lsl #16
    1d74:	09da0200 	ldmibeq	sl, {r9}^
    1d78:	00288b19 	eoreq	r8, r8, r9, lsl fp
    1d7c:	0015b000 	andseq	fp, r5, r0
    1d80:	0015ac00 	andseq	sl, r5, r0, lsl #24
    1d84:	287f1c00 	ldmdacs	pc!, {sl, fp, ip}^	; <UNPREDICTABLE>
    1d88:	fe1d0000 	cdp2	0, 1, cr0, cr13, cr0, {0}
    1d8c:	30000028 	andcc	r0, r0, r8, lsr #32
    1d90:	02000083 	andeq	r0, r0, #131, 0	; 0x83
    1d94:	00077800 	andeq	r7, r7, r0, lsl #16
    1d98:	09ce0200 	stmibeq	lr, {r9}^
    1d9c:	00001ab5 			; <UNDEFINED> instruction: 0x00001ab5
    1da0:	00290b1c 	eoreq	r0, r9, ip, lsl fp
    1da4:	29661800 	stmdbcs	r6!, {fp, ip}^
    1da8:	83300000 	teqhi	r0, #0, 0
    1dac:	00040000 	andeq	r0, r4, r0
    1db0:	000007b8 			; <UNDEFINED> instruction: 0x000007b8
    1db4:	1905b002 	stmdbne	r5, {r1, ip, sp, pc}
    1db8:	0000297f 	andeq	r2, r0, pc, ror r9
    1dbc:	000015de 	ldrdeq	r1, [r0], -lr
    1dc0:	000015dc 	ldrdeq	r1, [r0], -ip
    1dc4:	0029731c 	eoreq	r7, r9, ip, lsl r3
    1dc8:	29fa1d00 	ldmibcs	sl!, {r8, sl, fp, ip}^
    1dcc:	83300000 	teqhi	r0, #0, 0
    1dd0:	00060000 	andeq	r0, r6, r0
    1dd4:	000007f0 	strdeq	r0, [r0], -r0	; <UNPREDICTABLE>
    1dd8:	1b059d02 	blne	1691e8 <__bss_end__+0x15f1f8>
    1ddc:	1c00001a 	stcne	0, cr0, [r0], {26}
    1de0:	00002a07 	andeq	r2, r0, r7, lsl #20
    1de4:	0007f01f 	andeq	pc, r7, pc, lsl r0	; <UNPREDICTABLE>
    1de8:	2a131b00 	bcs	4c89f0 <__bss_end__+0x4bea00>
    1dec:	15f50000 	ldrbne	r0, [r5, #0]!
    1df0:	15f30000 	ldrbne	r0, [r3, #0]!
    1df4:	00000000 	andeq	r0, r0, r0
    1df8:	00298b20 	eoreq	r8, r9, r0, lsr #22
    1dfc:	00833000 	addeq	r3, r3, r0
    1e00:	00000400 	andeq	r0, r0, r0, lsl #8
    1e04:	001a3a00 	andseq	r3, sl, r0, lsl #20
    1e08:	298c1b00 	stmibcs	ip, {r8, r9, fp, ip}
    1e0c:	160f0000 	strne	r0, [pc], -r0
    1e10:	160d0000 	strne	r0, [sp], -r0
    1e14:	18000000 	stmdane	r0, {}	; <UNPREDICTABLE>
    1e18:	0000299a 	muleq	r0, sl, r9
    1e1c:	00008334 	andeq	r8, r0, r4, lsr r3
    1e20:	08100002 	ldmdaeq	r0, {r1}
    1e24:	9e020000 	cdpls	0, 0, cr0, cr2, cr0, {0}
    1e28:	29b31905 	ldmibcs	r3!, {r0, r2, r8, fp, ip}
    1e2c:	16240000 	strtne	r0, [r4], -r0
    1e30:	16220000 	strtne	r0, [r2], -r0
    1e34:	a7190000 	ldrge	r0, [r9, -r0]
    1e38:	3b000029 	blcc	1ee4 <__code_start__-0x611c>
    1e3c:	39000016 	stmdbcc	r0, {r1, r2, r4}
    1e40:	21000016 	tstcs	r0, r6, lsl r0
    1e44:	0000299a 	muleq	r0, sl, r9
    1e48:	00008334 	andeq	r8, r0, r4, lsr r3
    1e4c:	83340004 	teqhi	r4, #4, 0
    1e50:	00100000 	andseq	r0, r0, r0
    1e54:	7f020000 	svcvc	0x00020000
    1e58:	29b31914 	ldmibcs	r3!, {r2, r4, r8, fp, ip}
    1e5c:	16520000 	ldrbne	r0, [r2], -r0
    1e60:	164e0000 	strbne	r0, [lr], -r0
    1e64:	a7190000 	ldrge	r0, [r9, -r0]
    1e68:	76000029 	strvc	r0, [r0], -r9, lsr #32
    1e6c:	74000016 	strvc	r0, [r0], #-22	; 0xffffffea
    1e70:	22000016 	andcs	r0, r0, #22, 0
    1e74:	000029bf 			; <UNDEFINED> instruction: 0x000029bf
    1e78:	00008334 	andeq	r8, r0, r4, lsr r3
    1e7c:	00000004 	andeq	r0, r0, r4
    1e80:	0029c01b 	eoreq	ip, r9, fp, lsl r0
    1e84:	00168b00 	andseq	r8, r6, r0, lsl #22
    1e88:	00168900 	andseq	r8, r6, r0, lsl #18
    1e8c:	00000000 	andeq	r0, r0, r0
    1e90:	181d0000 	ldmdane	sp, {}	; <UNPREDICTABLE>
    1e94:	c0000029 	andgt	r0, r0, r9, lsr #32
    1e98:	01000081 	smlabbeq	r0, r1, r0, r0
    1e9c:	00082800 	andeq	r2, r8, r0, lsl #16
    1ea0:	09cb0200 	stmibeq	fp, {r9}^
    1ea4:	00001bbd 			; <UNDEFINED> instruction: 0x00001bbd
    1ea8:	0029251c 	eoreq	r2, r9, ip, lsl r5
    1eac:	29661800 	stmdbcs	r6!, {fp, ip}^
    1eb0:	81c00000 	bichi	r0, r0, r0
    1eb4:	00030000 	andeq	r0, r3, r0
    1eb8:	00000860 	andeq	r0, r0, r0, ror #16
    1ebc:	1905ab02 	stmdbne	r5, {r1, r8, r9, fp, sp, pc}
    1ec0:	0000297f 	andeq	r2, r0, pc, ror r9
    1ec4:	000016a0 	andeq	r1, r0, r0, lsr #13
    1ec8:	0000169e 	muleq	r0, lr, r6
    1ecc:	0029731c 	eoreq	r7, r9, ip, lsl r3
    1ed0:	29fa1d00 	ldmibcs	sl!, {r8, sl, fp, ip}^
    1ed4:	81c00000 	bichi	r0, r0, r0
    1ed8:	00050000 	andeq	r0, r5, r0
    1edc:	00000890 	muleq	r0, r0, r8
    1ee0:	23059d02 	movwcs	r9, #23810	; 0x5d02
    1ee4:	1c00001b 	stcne	0, cr0, [r0], {27}
    1ee8:	00002a07 	andeq	r2, r0, r7, lsl #20
    1eec:	0008901f 	andeq	r9, r8, pc, lsl r0
    1ef0:	2a131b00 	bcs	4c8af8 <__bss_end__+0x4beb08>
    1ef4:	16b80000 	ldrtne	r0, [r8], r0
    1ef8:	16b60000 	ldrtne	r0, [r6], r0
    1efc:	00000000 	andeq	r0, r0, r0
    1f00:	00298b20 	eoreq	r8, r9, r0, lsr #22
    1f04:	0081c000 	addeq	ip, r1, r0
    1f08:	00000400 	andeq	r0, r0, r0, lsl #8
    1f0c:	001b4200 	andseq	r4, fp, r0, lsl #4
    1f10:	298c1b00 	stmibcs	ip, {r8, r9, fp, ip}
    1f14:	16d20000 	ldrbne	r0, [r2], r0
    1f18:	16d00000 	ldrbne	r0, [r0], r0
    1f1c:	18000000 	stmdane	r0, {}	; <UNPREDICTABLE>
    1f20:	0000299a 	muleq	r0, sl, r9
    1f24:	000081c4 	andeq	r8, r0, r4, asr #3
    1f28:	08a80002 	stmiaeq	r8!, {r1}
    1f2c:	9e020000 	cdpls	0, 0, cr0, cr2, cr0, {0}
    1f30:	29b31905 	ldmibcs	r3!, {r0, r2, r8, fp, ip}
    1f34:	16e70000 	strbtne	r0, [r7], r0
    1f38:	16e50000 	strbtne	r0, [r5], r0
    1f3c:	a7190000 	ldrge	r0, [r9, -r0]
    1f40:	ff000029 			; <UNDEFINED> instruction: 0xff000029
    1f44:	fd000016 	stc2	0, cr0, [r0, #-88]	; 0xffffffa8
    1f48:	21000016 	tstcs	r0, r6, lsl r0
    1f4c:	0000299a 	muleq	r0, sl, r9
    1f50:	000081c4 	andeq	r8, r0, r4, asr #3
    1f54:	81c40004 	bichi	r0, r4, r4
    1f58:	00100000 	andseq	r0, r0, r0
    1f5c:	7f020000 	svcvc	0x00020000
    1f60:	29b31914 	ldmibcs	r3!, {r2, r4, r8, fp, ip}
    1f64:	17160000 	ldrne	r0, [r6, -r0]
    1f68:	17120000 	ldrne	r0, [r2, -r0]
    1f6c:	a7190000 	ldrge	r0, [r9, -r0]
    1f70:	3c000029 	stccc	0, cr0, [r0], {41}	; 0x29
    1f74:	3a000017 	bcc	1fd8 <__code_start__-0x6028>
    1f78:	22000017 	andcs	r0, r0, #23, 0
    1f7c:	000029bf 			; <UNDEFINED> instruction: 0x000029bf
    1f80:	000081c4 	andeq	r8, r0, r4, asr #3
    1f84:	00000004 	andeq	r0, r0, r4
    1f88:	0029c01b 	eoreq	ip, r9, fp, lsl r0
    1f8c:	00175100 	andseq	r5, r7, r0, lsl #2
    1f90:	00174f00 	andseq	r4, r7, r0, lsl #30
    1f94:	00000000 	andeq	r0, r0, r0
    1f98:	e41d0000 	ldr	r0, [sp], #-0
    1f9c:	d4000028 	strle	r0, [r0], #-40	; 0xffffffd8
    1fa0:	02000081 	andeq	r0, r0, #129, 0	; 0x81
    1fa4:	0008c000 	andeq	ip, r8, r0
    1fa8:	09cc0200 	stmibeq	ip, {r9}^
    1fac:	00001cc3 	andeq	r1, r0, r3, asr #25
    1fb0:	0028f11c 	eoreq	pc, r8, ip, lsl r1	; <UNPREDICTABLE>
    1fb4:	29321800 	ldmdbcs	r2!, {fp, ip}
    1fb8:	81d40000 	bicshi	r0, r4, r0
    1fbc:	00040000 	andeq	r0, r4, r0
    1fc0:	000008c8 	andeq	r0, r0, r8, asr #17
    1fc4:	1905b402 	stmdbne	r5, {r1, sl, ip, sp, pc}
    1fc8:	0000294b 	andeq	r2, r0, fp, asr #18
    1fcc:	00001766 	andeq	r1, r0, r6, ror #14
    1fd0:	00001764 	andeq	r1, r0, r4, ror #14
    1fd4:	00293f1c 	eoreq	r3, r9, ip, lsl pc
    1fd8:	29ce2300 	stmibcs	lr, {r8, r9, sp}^
    1fdc:	81d40000 	bicshi	r0, r4, r0
    1fe0:	00060000 	andeq	r0, r6, r0
    1fe4:	000081d4 	ldrdeq	r8, [r0], -r4
    1fe8:	00000004 	andeq	r0, r0, r4
    1fec:	2905a502 	stmdbcs	r5, {r1, r8, sl, sp, pc}
    1ff0:	1c00001c 	stcne	0, cr0, [r0], {28}
    1ff4:	000029db 	ldrdeq	r2, [r0], -fp
    1ff8:	0029e71b 	eoreq	lr, r9, fp, lsl r7
    1ffc:	00177d00 	andseq	r7, r7, r0, lsl #26
    2000:	00177b00 	andseq	r7, r7, r0, lsl #22
    2004:	57200000 	strpl	r0, [r0, -r0]!
    2008:	d8000029 	stmdale	r0, {r0, r3, r5}
    200c:	04000081 	streq	r0, [r0], #-129	; 0xffffff7f
    2010:	48000000 	stmdami	r0, {}	; <UNPREDICTABLE>
    2014:	1b00001c 	blne	208c <__code_start__-0x5f74>
    2018:	00002958 	andeq	r2, r0, r8, asr r9
    201c:	00001797 	muleq	r0, r7, r7
    2020:	00001795 	muleq	r0, r5, r7
    2024:	299a1800 	ldmibcs	sl, {fp, ip}
    2028:	81dc0000 	bicshi	r0, ip, r0
    202c:	00020000 	andeq	r0, r2, r0
    2030:	000008f0 	strdeq	r0, [r0], -r0	; <UNPREDICTABLE>
    2034:	1905a602 	stmdbne	r5, {r1, r9, sl, sp, pc}
    2038:	000029b3 			; <UNDEFINED> instruction: 0x000029b3
    203c:	000017ac 	andeq	r1, r0, ip, lsr #15
    2040:	000017aa 	andeq	r1, r0, sl, lsr #15
    2044:	0029a719 	eoreq	sl, r9, r9, lsl r7
    2048:	0017c300 	andseq	ip, r7, r0, lsl #6
    204c:	0017c100 	andseq	ip, r7, r0, lsl #2
    2050:	299a2100 	ldmibcs	sl, {r8, sp}
    2054:	81dc0000 	bicshi	r0, ip, r0
    2058:	00040000 	andeq	r0, r4, r0
    205c:	000081dc 	ldrdeq	r8, [r0], -ip
    2060:	00000010 	andeq	r0, r0, r0, lsl r0
    2064:	19147f02 	ldmdbne	r4, {r1, r8, r9, sl, fp, ip, sp, lr}
    2068:	000029b3 			; <UNDEFINED> instruction: 0x000029b3
    206c:	000017da 	ldrdeq	r1, [r0], -sl
    2070:	000017d6 	ldrdeq	r1, [r0], -r6
    2074:	0029a719 	eoreq	sl, r9, r9, lsl r7
    2078:	0017fe00 	andseq	pc, r7, r0, lsl #28
    207c:	0017fc00 	andseq	pc, r7, r0, lsl #24
    2080:	29bf2200 	ldmibcs	pc!, {r9, sp}	; <UNPREDICTABLE>
    2084:	81dc0000 	bicshi	r0, ip, r0
    2088:	00040000 	andeq	r0, r4, r0
    208c:	c01b0000 	andsgt	r0, fp, r0
    2090:	13000029 	movwne	r0, #41	; 0x29
    2094:	11000018 	tstne	r0, r8, lsl r0
    2098:	00000018 	andeq	r0, r0, r8, lsl r0
    209c:	00000000 	andeq	r0, r0, r0
    20a0:	0028ca18 	eoreq	ip, r8, r8, lsl sl
    20a4:	00834400 	addeq	r4, r3, r0, lsl #8
    20a8:	08000200 	stmdaeq	r0, {r9}
    20ac:	02000009 	andeq	r0, r0, #9, 0
    20b0:	d71c09cf 	ldrle	r0, [ip, -pc, asr #19]
    20b4:	18000028 	stmdane	r0, {r3, r5}
    20b8:	00002932 	andeq	r2, r0, r2, lsr r9
    20bc:	00008344 	andeq	r8, r0, r4, asr #6
    20c0:	09100004 	ldmdbeq	r0, {r2}
    20c4:	b8020000 	stmdalt	r2, {}	; <UNPREDICTABLE>
    20c8:	294b1905 	stmdbcs	fp, {r0, r2, r8, fp, ip}^
    20cc:	18280000 	stmdane	r8!, {}	; <UNPREDICTABLE>
    20d0:	18260000 	stmdane	r6!, {}	; <UNPREDICTABLE>
    20d4:	3f1c0000 	svccc	0x001c0000
    20d8:	23000029 	movwcs	r0, #41	; 0x29
    20dc:	000029ce 	andeq	r2, r0, lr, asr #19
    20e0:	00008344 	andeq	r8, r0, r4, asr #6
    20e4:	83440006 	movthi	r0, #16390	; 0x4006
    20e8:	00040000 	andeq	r0, r4, r0
    20ec:	a5020000 	strge	r0, [r2, #-0]
    20f0:	001d2b05 	andseq	r2, sp, r5, lsl #22
    20f4:	29db1c00 	ldmibcs	fp, {sl, fp, ip}^
    20f8:	e71b0000 	ldr	r0, [fp, -r0]
    20fc:	40000029 	andmi	r0, r0, r9, lsr #32
    2100:	3e000018 	mcrcc	0, 0, r0, cr0, cr8, {0}
    2104:	00000018 	andeq	r0, r0, r8, lsl r0
    2108:	00295720 	eoreq	r5, r9, r0, lsr #14
    210c:	00834800 	addeq	r4, r3, r0, lsl #16
    2110:	00000400 	andeq	r0, r0, r0, lsl #8
    2114:	001d4a00 	andseq	r4, sp, r0, lsl #20
    2118:	29581b00 	ldmdbcs	r8, {r8, r9, fp, ip}^
    211c:	185a0000 	ldmdane	sl, {}^	; <UNPREDICTABLE>
    2120:	18580000 	ldmdane	r8, {}^	; <UNPREDICTABLE>
    2124:	18000000 	stmdane	r0, {}	; <UNPREDICTABLE>
    2128:	0000299a 	muleq	r0, sl, r9
    212c:	0000834c 	andeq	r8, r0, ip, asr #6
    2130:	09380002 	ldmdbeq	r8!, {r1}
    2134:	a6020000 	strge	r0, [r2], -r0
    2138:	29b31905 	ldmibcs	r3!, {r0, r2, r8, fp, ip}
    213c:	186f0000 	stmdane	pc!, {}^	; <UNPREDICTABLE>
    2140:	186d0000 	stmdane	sp!, {}^	; <UNPREDICTABLE>
    2144:	a7190000 	ldrge	r0, [r9, -r0]
    2148:	87000029 	strhi	r0, [r0, -r9, lsr #32]
    214c:	85000018 	strhi	r0, [r0, #-24]	; 0xffffffe8
    2150:	21000018 	tstcs	r0, r8, lsl r0
    2154:	0000299a 	muleq	r0, sl, r9
    2158:	0000834c 	andeq	r8, r0, ip, asr #6
    215c:	834c0004 	movthi	r0, #49156	; 0xc004
    2160:	00100000 	andseq	r0, r0, r0
    2164:	7f020000 	svcvc	0x00020000
    2168:	29b31914 	ldmibcs	r3!, {r2, r4, r8, fp, ip}
    216c:	189e0000 	ldmne	lr, {}	; <UNPREDICTABLE>
    2170:	189a0000 	ldmne	sl, {}	; <UNPREDICTABLE>
    2174:	a7190000 	ldrge	r0, [r9, -r0]
    2178:	c4000029 	strgt	r0, [r0], #-41	; 0xffffffd7
    217c:	c2000018 	andgt	r0, r0, #24, 0
    2180:	22000018 	andcs	r0, r0, #24, 0
    2184:	000029bf 			; <UNDEFINED> instruction: 0x000029bf
    2188:	0000834c 	andeq	r8, r0, ip, asr #6
    218c:	00000004 	andeq	r0, r0, r4
    2190:	0029c01b 	eoreq	ip, r9, fp, lsl r0
    2194:	0018d900 	andseq	sp, r8, r0, lsl #18
    2198:	0018d700 	andseq	sp, r8, r0, lsl #14
	...
    21a4:	28422400 	stmdacs	r2, {sl, sp}^
    21a8:	09500000 	ldmdbeq	r0, {}^	; <UNPREDICTABLE>
    21ac:	e5020000 	str	r0, [r2, #-0]
    21b0:	00223505 	eoreq	r3, r2, r5, lsl #10
    21b4:	285b1c00 	ldmdacs	fp, {sl, fp, ip}^
    21b8:	4f1c0000 	svcmi	0x001c0000
    21bc:	1e000028 	cdpne	0, 0, cr0, cr0, cr8, {1}
    21c0:	00002865 	andeq	r2, r0, r5, ror #16
    21c4:	00000950 	andeq	r0, r0, r0, asr r9
    21c8:	0028661b 	eoreq	r6, r8, fp, lsl r6
    21cc:	0018f400 	andseq	pc, r8, r0, lsl #8
    21d0:	0018ec00 	andseq	lr, r8, r0, lsl #24
    21d4:	28721800 	ldmdacs	r2!, {fp, ip}^
    21d8:	81f80000 	mvnshi	r0, r0
    21dc:	00010000 	andeq	r0, r1, r0
    21e0:	000009e8 	andeq	r0, r0, r8, ror #19
    21e4:	1909da02 	stmdbne	r9, {r1, r9, fp, ip, lr, pc}
    21e8:	0000288b 	andeq	r2, r0, fp, lsl #17
    21ec:	00001930 	andeq	r1, r0, r0, lsr r9
    21f0:	0000192c 	andeq	r1, r0, ip, lsr #18
    21f4:	00287f1c 	eoreq	r7, r8, ip, lsl pc
    21f8:	29181d00 	ldmdbcs	r8, {r8, sl, fp, ip}
    21fc:	82080000 	andhi	r0, r8, #0, 0
    2200:	00010000 	andeq	r0, r1, r0
    2204:	00000a88 	andeq	r0, r0, r8, lsl #21
    2208:	2409cb02 	strcs	ip, [r9], #-2818	; 0xfffff4fe
    220c:	1c00001f 	stcne	0, cr0, [r0], {31}
    2210:	00002925 	andeq	r2, r0, r5, lsr #18
    2214:	00296618 	eoreq	r6, r9, r8, lsl r6
    2218:	00820800 	addeq	r0, r2, r0, lsl #16
    221c:	c0000300 	andgt	r0, r0, r0, lsl #6
    2220:	0200000a 	andeq	r0, r0, #10, 0
    2224:	7f1905ab 	svcvc	0x001905ab
    2228:	5e000029 	cdppl	0, 0, cr0, cr0, cr9, {1}
    222c:	5c000019 	stcpl	0, cr0, [r0], {25}
    2230:	1c000019 	stcne	0, cr0, [r0], {25}
    2234:	00002973 	andeq	r2, r0, r3, ror r9
    2238:	0029fa1d 	eoreq	pc, r9, sp, lsl sl	; <UNPREDICTABLE>
    223c:	00820800 	addeq	r0, r2, r0, lsl #16
    2240:	f0000500 			; <UNDEFINED> instruction: 0xf0000500
    2244:	0200000a 	andeq	r0, r0, #10, 0
    2248:	1e8a059d 	mcrne	5, 4, r0, cr10, cr13, {4}
    224c:	071c0000 	ldreq	r0, [ip, -r0]
    2250:	1f00002a 	svcne	0x0000002a
    2254:	00000af0 	strdeq	r0, [r0], -r0	; <UNPREDICTABLE>
    2258:	002a131b 	eoreq	r1, sl, fp, lsl r3
    225c:	00197600 	andseq	r7, r9, r0, lsl #12
    2260:	00197400 	andseq	r7, r9, r0, lsl #8
    2264:	20000000 	andcs	r0, r0, r0
    2268:	0000298b 	andeq	r2, r0, fp, lsl #19
    226c:	00008208 	andeq	r8, r0, r8, lsl #4
    2270:	00000004 	andeq	r0, r0, r4
    2274:	00001ea9 	andeq	r1, r0, r9, lsr #29
    2278:	00298c1b 	eoreq	r8, r9, fp, lsl ip
    227c:	00199000 	andseq	r9, r9, r0
    2280:	00198e00 	andseq	r8, r9, r0, lsl #28
    2284:	9a180000 	bls	60228c <__bss_end__+0x5f829c>
    2288:	0c000029 	stceq	0, cr0, [r0], {41}	; 0x29
    228c:	02000082 	andeq	r0, r0, #130, 0	; 0x82
    2290:	000b0800 	andeq	r0, fp, r0, lsl #16
    2294:	059e0200 	ldreq	r0, [lr, #512]	; 0x200
    2298:	0029b319 	eoreq	fp, r9, r9, lsl r3
    229c:	0019a500 	andseq	sl, r9, r0, lsl #10
    22a0:	0019a300 	andseq	sl, r9, r0, lsl #6
    22a4:	29a71900 	stmibcs	r7!, {r8, fp, ip}
    22a8:	19bd0000 	ldmibne	sp!, {}	; <UNPREDICTABLE>
    22ac:	19bb0000 	ldmibne	fp!, {}	; <UNPREDICTABLE>
    22b0:	9a210000 	bls	8422b8 <__bss_end__+0x8382c8>
    22b4:	0c000029 	stceq	0, cr0, [r0], {41}	; 0x29
    22b8:	04000082 	streq	r0, [r0], #-130	; 0xffffff7e
    22bc:	00820c00 	addeq	r0, r2, r0, lsl #24
    22c0:	00001000 	andeq	r1, r0, r0
    22c4:	147f0200 	ldrbtne	r0, [pc], #-512	; 22cc <__code_start__-0x5d34>
    22c8:	0029b319 	eoreq	fp, r9, r9, lsl r3
    22cc:	0019d400 	andseq	sp, r9, r0, lsl #8
    22d0:	0019d000 	andseq	sp, r9, r0
    22d4:	29a71900 	stmibcs	r7!, {r8, fp, ip}
    22d8:	19fa0000 	ldmibne	sl!, {}^	; <UNPREDICTABLE>
    22dc:	19f80000 	ldmibne	r8!, {}^	; <UNPREDICTABLE>
    22e0:	bf220000 	svclt	0x00220000
    22e4:	0c000029 	stceq	0, cr0, [r0], {41}	; 0x29
    22e8:	04000082 	streq	r0, [r0], #-130	; 0xffffff7e
    22ec:	1b000000 	blne	22f4 <__code_start__-0x5d0c>
    22f0:	000029c0 	andeq	r2, r0, r0, asr #19
    22f4:	00001a0f 	andeq	r1, r0, pc, lsl #20
    22f8:	00001a0d 	andeq	r1, r0, sp, lsl #20
    22fc:	00000000 	andeq	r0, r0, r0
    2300:	28e41d00 	stmiacs	r4!, {r8, sl, fp, ip}^
    2304:	821c0000 	andshi	r0, ip, #0, 0
    2308:	00020000 	andeq	r0, r2, r0
    230c:	00000b20 	andeq	r0, r0, r0, lsr #22
    2310:	2a09cc02 	bcs	275320 <__bss_end__+0x26b330>
    2314:	1c000020 	stcne	0, cr0, [r0], {32}
    2318:	000028f1 	strdeq	r2, [r0], -r1
    231c:	00293218 	eoreq	r3, r9, r8, lsl r2
    2320:	00821c00 	addeq	r1, r2, r0, lsl #24
    2324:	28000400 	stmdacs	r0, {sl}
    2328:	0200000b 	andeq	r0, r0, #11, 0
    232c:	4b1905b4 	blmi	643a04 <__bss_end__+0x639a14>
    2330:	24000029 	strcs	r0, [r0], #-41	; 0xffffffd7
    2334:	2200001a 	andcs	r0, r0, #26, 0
    2338:	1c00001a 	stcne	0, cr0, [r0], {26}
    233c:	0000293f 	andeq	r2, r0, pc, lsr r9
    2340:	0029ce23 	eoreq	ip, r9, r3, lsr #28
    2344:	00821c00 	addeq	r1, r2, r0, lsl #24
    2348:	1c000600 	stcne	6, cr0, [r0], {-0}
    234c:	04000082 	streq	r0, [r0], #-130	; 0xffffff7e
    2350:	02000000 	andeq	r0, r0, #0, 0
    2354:	1f9005a5 	svcne	0x009005a5
    2358:	db1c0000 	blle	702360 <__bss_end__+0x6f8370>
    235c:	1b000029 	blne	2408 <__code_start__-0x5bf8>
    2360:	000029e7 	andeq	r2, r0, r7, ror #19
    2364:	00001a3b 	andeq	r1, r0, fp, lsr sl
    2368:	00001a39 	andeq	r1, r0, r9, lsr sl
    236c:	29572000 	ldmdbcs	r7, {sp}^
    2370:	82200000 	eorhi	r0, r0, #0, 0
    2374:	00040000 	andeq	r0, r4, r0
    2378:	1faf0000 	svcne	0x00af0000
    237c:	581b0000 	ldmdapl	fp, {}	; <UNPREDICTABLE>
    2380:	55000029 	strpl	r0, [r0, #-41]	; 0xffffffd7
    2384:	5300001a 	movwpl	r0, #26
    2388:	0000001a 	andeq	r0, r0, sl, lsl r0
    238c:	00299a18 	eoreq	r9, r9, r8, lsl sl
    2390:	00822400 	addeq	r2, r2, r0, lsl #8
    2394:	50000200 	andpl	r0, r0, r0, lsl #4
    2398:	0200000b 	andeq	r0, r0, #11, 0
    239c:	b31905a6 	tstlt	r9, #696254464	; 0x29800000
    23a0:	6a000029 	bvs	244c <__code_start__-0x5bb4>
    23a4:	6800001a 	stmdavs	r0, {r1, r3, r4}
    23a8:	1900001a 	stmdbne	r0, {r1, r3, r4}
    23ac:	000029a7 	andeq	r2, r0, r7, lsr #19
    23b0:	00001a81 	andeq	r1, r0, r1, lsl #21
    23b4:	00001a7f 	andeq	r1, r0, pc, ror sl
    23b8:	00299a21 	eoreq	r9, r9, r1, lsr #20
    23bc:	00822400 	addeq	r2, r2, r0, lsl #8
    23c0:	24000400 	strcs	r0, [r0], #-1024	; 0xfffffc00
    23c4:	10000082 	andne	r0, r0, r2, lsl #1
    23c8:	02000000 	andeq	r0, r0, #0, 0
    23cc:	b319147f 	tstlt	r9, #2130706432	; 0x7f000000
    23d0:	98000029 	stmdals	r0, {r0, r3, r5}
    23d4:	9400001a 	strls	r0, [r0], #-26	; 0xffffffe6
    23d8:	1900001a 	stmdbne	r0, {r1, r3, r4}
    23dc:	000029a7 	andeq	r2, r0, r7, lsr #19
    23e0:	00001abc 			; <UNDEFINED> instruction: 0x00001abc
    23e4:	00001aba 			; <UNDEFINED> instruction: 0x00001aba
    23e8:	0029bf22 	eoreq	fp, r9, r2, lsr #30
    23ec:	00822400 	addeq	r2, r2, r0, lsl #8
    23f0:	00000400 	andeq	r0, r0, r0, lsl #8
    23f4:	29c01b00 	stmibcs	r0, {r8, r9, fp, ip}^
    23f8:	1ad10000 	bne	ff442400 <__bss_end__+0xff438410>
    23fc:	1acf0000 	bne	ff3c2404 <__bss_end__+0xff3b8414>
    2400:	00000000 	andeq	r0, r0, r0
    2404:	1d000000 	stcne	0, cr0, [r0, #-0]
    2408:	000028fe 	strdeq	r2, [r0], -lr
    240c:	000082f8 	strdeq	r8, [r0], -r8	; <UNPREDICTABLE>
    2410:	0b680002 	bleq	1a02420 <__bss_end__+0x19f8430>
    2414:	ce020000 	cdpgt	0, 0, cr0, cr2, cr0, {0}
    2418:	00213009 	eoreq	r3, r1, r9
    241c:	290b1c00 	stmdbcs	fp, {sl, fp, ip}
    2420:	66180000 	ldrvs	r0, [r8], -r0
    2424:	f8000029 			; <UNDEFINED> instruction: 0xf8000029
    2428:	04000082 	streq	r0, [r0], #-130	; 0xffffff7e
    242c:	000b7000 	andeq	r7, fp, r0
    2430:	05b00200 	ldreq	r0, [r0, #512]!	; 0x200
    2434:	00297f19 	eoreq	r7, r9, r9, lsl pc
    2438:	001ae600 	andseq	lr, sl, r0, lsl #12
    243c:	001ae400 	andseq	lr, sl, r0, lsl #8
    2440:	29731c00 	ldmdbcs	r3!, {sl, fp, ip}^
    2444:	fa230000 	blx	8c244c <__bss_end__+0x8b845c>
    2448:	f8000029 			; <UNDEFINED> instruction: 0xf8000029
    244c:	06000082 	streq	r0, [r0], -r2, lsl #1
    2450:	0082f800 	addeq	pc, r2, r0, lsl #16
    2454:	00000000 	andeq	r0, r0, r0
    2458:	059d0200 	ldreq	r0, [sp, #512]	; 0x200
    245c:	00002096 	muleq	r0, r6, r0
    2460:	002a071c 	eoreq	r0, sl, ip, lsl r7
    2464:	2a131b00 	bcs	4c906c <__bss_end__+0x4bf07c>
    2468:	1afd0000 	bne	fff42470 <__bss_end__+0xfff38480>
    246c:	1afb0000 	bne	ffec2474 <__bss_end__+0xffeb8484>
    2470:	20000000 	andcs	r0, r0, r0
    2474:	0000298b 	andeq	r2, r0, fp, lsl #19
    2478:	000082f8 	strdeq	r8, [r0], -r8	; <UNPREDICTABLE>
    247c:	00000004 	andeq	r0, r0, r4
    2480:	000020b5 	strheq	r2, [r0], -r5
    2484:	00298c1b 	eoreq	r8, r9, fp, lsl ip
    2488:	001b1700 	andseq	r1, fp, r0, lsl #14
    248c:	001b1500 	andseq	r1, fp, r0, lsl #10
    2490:	9a180000 	bls	602498 <__bss_end__+0x5f84a8>
    2494:	fc000029 	stc2	0, cr0, [r0], {41}	; 0x29
    2498:	02000082 	andeq	r0, r0, #130, 0	; 0x82
    249c:	000b9800 	andeq	r9, fp, r0, lsl #16
    24a0:	059e0200 	ldreq	r0, [lr, #512]	; 0x200
    24a4:	0029b319 	eoreq	fp, r9, r9, lsl r3
    24a8:	001b2c00 	andseq	r2, fp, r0, lsl #24
    24ac:	001b2a00 	andseq	r2, fp, r0, lsl #20
    24b0:	29a71900 	stmibcs	r7!, {r8, fp, ip}
    24b4:	1b430000 	blne	10c24bc <__bss_end__+0x10b84cc>
    24b8:	1b410000 	blne	10424c0 <__bss_end__+0x10384d0>
    24bc:	9a210000 	bls	8424c4 <__bss_end__+0x8384d4>
    24c0:	fc000029 	stc2	0, cr0, [r0], {41}	; 0x29
    24c4:	04000082 	streq	r0, [r0], #-130	; 0xffffff7e
    24c8:	0082fc00 	addeq	pc, r2, r0, lsl #24
    24cc:	00001000 	andeq	r1, r0, r0
    24d0:	147f0200 	ldrbtne	r0, [pc], #-512	; 24d8 <__code_start__-0x5b28>
    24d4:	0029b319 	eoreq	fp, r9, r9, lsl r3
    24d8:	001b5a00 	andseq	r5, fp, r0, lsl #20
    24dc:	001b5600 	andseq	r5, fp, r0, lsl #12
    24e0:	29a71900 	stmibcs	r7!, {r8, fp, ip}
    24e4:	1b7e0000 	blne	1f824ec <__bss_end__+0x1f784fc>
    24e8:	1b7c0000 	blne	1f024f0 <__bss_end__+0x1ef8500>
    24ec:	bf220000 	svclt	0x00220000
    24f0:	fc000029 	stc2	0, cr0, [r0], {41}	; 0x29
    24f4:	04000082 	streq	r0, [r0], #-130	; 0xffffff7e
    24f8:	1b000000 	blne	2500 <__code_start__-0x5b00>
    24fc:	000029c0 	andeq	r2, r0, r0, asr #19
    2500:	00001b93 	muleq	r0, r3, fp
    2504:	00001b91 	muleq	r0, r1, fp
    2508:	00000000 	andeq	r0, r0, r0
    250c:	28ca1800 	stmiacs	sl, {fp, ip}^
    2510:	830c0000 	movwhi	r0, #49152	; 0xc000
    2514:	00020000 	andeq	r0, r2, r0
    2518:	00000bb0 			; <UNDEFINED> instruction: 0x00000bb0
    251c:	1c09cf02 	stcne	15, cr12, [r9], {2}
    2520:	000028d7 	ldrdeq	r2, [r0], -r7
    2524:	00293218 	eoreq	r3, r9, r8, lsl r2
    2528:	00830c00 	addeq	r0, r3, r0, lsl #24
    252c:	b8000400 	stmdalt	r0, {sl}
    2530:	0200000b 	andeq	r0, r0, #11, 0
    2534:	4b1905b8 	blmi	643c1c <__bss_end__+0x639c2c>
    2538:	a8000029 	stmdage	r0, {r0, r3, r5}
    253c:	a600001b 			; <UNDEFINED> instruction: 0xa600001b
    2540:	1c00001b 	stcne	0, cr0, [r0], {27}
    2544:	0000293f 	andeq	r2, r0, pc, lsr r9
    2548:	0029ce23 	eoreq	ip, r9, r3, lsr #28
    254c:	00830c00 	addeq	r0, r3, r0, lsl #24
    2550:	0c000600 	stceq	6, cr0, [r0], {-0}
    2554:	04000083 	streq	r0, [r0], #-131	; 0xffffff7d
    2558:	02000000 	andeq	r0, r0, #0, 0
    255c:	219805a5 	orrscs	r0, r8, r5, lsr #11
    2560:	db1c0000 	blle	702568 <__bss_end__+0x6f8578>
    2564:	1b000029 	blne	2610 <__code_start__-0x59f0>
    2568:	000029e7 	andeq	r2, r0, r7, ror #19
    256c:	00001bc0 	andeq	r1, r0, r0, asr #23
    2570:	00001bbe 			; <UNDEFINED> instruction: 0x00001bbe
    2574:	29572000 	ldmdbcs	r7, {sp}^
    2578:	83100000 	tsthi	r0, #0, 0
    257c:	00040000 	andeq	r0, r4, r0
    2580:	21b70000 			; <UNDEFINED> instruction: 0x21b70000
    2584:	581b0000 	ldmdapl	fp, {}	; <UNPREDICTABLE>
    2588:	da000029 	ble	2634 <__code_start__-0x59cc>
    258c:	d800001b 	stmdale	r0, {r0, r1, r3, r4}
    2590:	0000001b 	andeq	r0, r0, fp, lsl r0
    2594:	00299a18 	eoreq	r9, r9, r8, lsl sl
    2598:	00831400 	addeq	r1, r3, r0, lsl #8
    259c:	e0000200 	and	r0, r0, r0, lsl #4
    25a0:	0200000b 	andeq	r0, r0, #11, 0
    25a4:	b31905a6 	tstlt	r9, #696254464	; 0x29800000
    25a8:	ef000029 	svc	0x00000029
    25ac:	ed00001b 	stc	0, cr0, [r0, #-108]	; 0xffffff94
    25b0:	1900001b 	stmdbne	r0, {r0, r1, r3, r4}
    25b4:	000029a7 	andeq	r2, r0, r7, lsr #19
    25b8:	00001c07 	andeq	r1, r0, r7, lsl #24
    25bc:	00001c05 	andeq	r1, r0, r5, lsl #24
    25c0:	00299a21 	eoreq	r9, r9, r1, lsr #20
    25c4:	00831400 	addeq	r1, r3, r0, lsl #8
    25c8:	14000400 	strne	r0, [r0], #-1024	; 0xfffffc00
    25cc:	10000083 	andne	r0, r0, r3, lsl #1
    25d0:	02000000 	andeq	r0, r0, #0, 0
    25d4:	b319147f 	tstlt	r9, #2130706432	; 0x7f000000
    25d8:	1e000029 	cdpne	0, 0, cr0, cr0, cr9, {1}
    25dc:	1a00001c 	bne	2654 <__code_start__-0x59ac>
    25e0:	1900001c 	stmdbne	r0, {r2, r3, r4}
    25e4:	000029a7 	andeq	r2, r0, r7, lsr #19
    25e8:	00001c44 	andeq	r1, r0, r4, asr #24
    25ec:	00001c42 	andeq	r1, r0, r2, asr #24
    25f0:	0029bf22 	eoreq	fp, r9, r2, lsr #30
    25f4:	00831400 	addeq	r1, r3, r0, lsl #8
    25f8:	00000400 	andeq	r0, r0, r0, lsl #8
    25fc:	29c01b00 	stmibcs	r0, {r8, r9, fp, ip}^
    2600:	1c590000 	mrane	r0, r9, acc0
    2604:	1c570000 	mrane	r0, r7, acc0
	...
    2610:	42260000 	eormi	r0, r6, #0, 0
    2614:	f8000028 			; <UNDEFINED> instruction: 0xf8000028
    2618:	0200000b 	andeq	r0, r0, #11, 0
    261c:	5b1c05e6 	blpl	703dbc <__bss_end__+0x6f9dcc>
    2620:	1c000028 	stcne	0, cr0, [r0], {40}	; 0x28
    2624:	0000284f 	andeq	r2, r0, pc, asr #16
    2628:	0028651e 	eoreq	r6, r8, lr, lsl r5
    262c:	000bf800 	andeq	pc, fp, r0, lsl #16
    2630:	28661b00 	stmdacs	r6!, {r8, r9, fp, ip}^
    2634:	1c740000 	ldclne	0, cr0, [r4], #-0
    2638:	1c6c0000 	stclne	0, cr0, [ip], #-0
    263c:	72180000 	andsvc	r0, r8, #0, 0
    2640:	40000028 	andmi	r0, r0, r8, lsr #32
    2644:	01000082 	smlabbeq	r0, r2, r0, r0
    2648:	000c9000 	andeq	r9, ip, r0
    264c:	09da0200 	ldmibeq	sl, {r9}^
    2650:	00288b19 	eoreq	r8, r8, r9, lsl fp
    2654:	001cb000 	andseq	fp, ip, r0
    2658:	001cac00 	andseq	sl, ip, r0, lsl #24
    265c:	287f1c00 	ldmdacs	pc!, {sl, fp, ip}^	; <UNPREDICTABLE>
    2660:	181d0000 	ldmdane	sp, {}	; <UNPREDICTABLE>
    2664:	50000029 	andpl	r0, r0, r9, lsr #32
    2668:	01000082 	smlabbeq	r0, r2, r0, r0
    266c:	000d3000 	andeq	r3, sp, r0
    2670:	09cb0200 	stmibeq	fp, {r9}^
    2674:	0000238d 	andeq	r2, r0, sp, lsl #7
    2678:	0029251c 	eoreq	r2, r9, ip, lsl r5
    267c:	29661800 	stmdbcs	r6!, {fp, ip}^
    2680:	82500000 	subshi	r0, r0, #0, 0
    2684:	00030000 	andeq	r0, r3, r0
    2688:	00000d68 	andeq	r0, r0, r8, ror #26
    268c:	1905ab02 	stmdbne	r5, {r1, r8, r9, fp, sp, pc}
    2690:	0000297f 	andeq	r2, r0, pc, ror r9
    2694:	00001cde 	ldrdeq	r1, [r0], -lr
    2698:	00001cdc 	ldrdeq	r1, [r0], -ip
    269c:	0029731c 	eoreq	r7, r9, ip, lsl r3
    26a0:	29fa1d00 	ldmibcs	sl!, {r8, sl, fp, ip}^
    26a4:	82500000 	subshi	r0, r0, #0, 0
    26a8:	00050000 	andeq	r0, r5, r0
    26ac:	00000d98 	muleq	r0, r8, sp
    26b0:	f3059d02 	vpadd.f32	d9, d5, d2
    26b4:	1c000022 	stcne	0, cr0, [r0], {34}	; 0x22
    26b8:	00002a07 	andeq	r2, r0, r7, lsl #20
    26bc:	000d981f 	andeq	r9, sp, pc, lsl r8
    26c0:	2a131b00 	bcs	4c92c8 <__bss_end__+0x4bf2d8>
    26c4:	1cf60000 	ldclne	0, cr0, [r6]
    26c8:	1cf40000 	ldclne	0, cr0, [r4]
    26cc:	00000000 	andeq	r0, r0, r0
    26d0:	00298b20 	eoreq	r8, r9, r0, lsr #22
    26d4:	00825000 	addeq	r5, r2, r0
    26d8:	00000400 	andeq	r0, r0, r0, lsl #8
    26dc:	00231200 	eoreq	r1, r3, r0, lsl #4
    26e0:	298c1b00 	stmibcs	ip, {r8, r9, fp, ip}
    26e4:	1d100000 	ldcne	0, cr0, [r0, #-0]
    26e8:	1d0e0000 	stcne	0, cr0, [lr, #-0]
    26ec:	18000000 	stmdane	r0, {}	; <UNPREDICTABLE>
    26f0:	0000299a 	muleq	r0, sl, r9
    26f4:	00008254 	andeq	r8, r0, r4, asr r2
    26f8:	0db00002 	ldceq	0, cr0, [r0, #8]!
    26fc:	9e020000 	cdpls	0, 0, cr0, cr2, cr0, {0}
    2700:	29b31905 	ldmibcs	r3!, {r0, r2, r8, fp, ip}
    2704:	1d250000 	stcne	0, cr0, [r5, #-0]
    2708:	1d230000 	stcne	0, cr0, [r3, #-0]
    270c:	a7190000 	ldrge	r0, [r9, -r0]
    2710:	3d000029 	stccc	0, cr0, [r0, #-164]	; 0xffffff5c
    2714:	3b00001d 	blcc	2790 <__code_start__-0x5870>
    2718:	2100001d 	tstcs	r0, sp, lsl r0
    271c:	0000299a 	muleq	r0, sl, r9
    2720:	00008254 	andeq	r8, r0, r4, asr r2
    2724:	82540004 	subshi	r0, r4, #4, 0
    2728:	00100000 	andseq	r0, r0, r0
    272c:	7f020000 	svcvc	0x00020000
    2730:	29b31914 	ldmibcs	r3!, {r2, r4, r8, fp, ip}
    2734:	1d540000 	ldclne	0, cr0, [r4, #-0]
    2738:	1d500000 	ldclne	0, cr0, [r0, #-0]
    273c:	a7190000 	ldrge	r0, [r9, -r0]
    2740:	7a000029 	bvc	27ec <__code_start__-0x5814>
    2744:	7800001d 	stmdavc	r0, {r0, r2, r3, r4}
    2748:	2200001d 	andcs	r0, r0, #29, 0
    274c:	000029bf 			; <UNDEFINED> instruction: 0x000029bf
    2750:	00008254 	andeq	r8, r0, r4, asr r2
    2754:	00000004 	andeq	r0, r0, r4
    2758:	0029c01b 	eoreq	ip, r9, fp, lsl r0
    275c:	001d8f00 	andseq	r8, sp, r0, lsl #30
    2760:	001d8d00 	andseq	r8, sp, r0, lsl #26
    2764:	00000000 	andeq	r0, r0, r0
    2768:	e41d0000 	ldr	r0, [sp], #-0
    276c:	64000028 	strvs	r0, [r0], #-40	; 0xffffffd8
    2770:	02000082 	andeq	r0, r0, #130, 0	; 0x82
    2774:	000dc800 	andeq	ip, sp, r0, lsl #16
    2778:	09cc0200 	stmibeq	ip, {r9}^
    277c:	00002493 	muleq	r0, r3, r4
    2780:	0028f11c 	eoreq	pc, r8, ip, lsl r1	; <UNPREDICTABLE>
    2784:	29321800 	ldmdbcs	r2!, {fp, ip}
    2788:	82640000 	rsbhi	r0, r4, #0, 0
    278c:	00040000 	andeq	r0, r4, r0
    2790:	00000dd0 	ldrdeq	r0, [r0], -r0	; <UNPREDICTABLE>
    2794:	1905b402 	stmdbne	r5, {r1, sl, ip, sp, pc}
    2798:	0000294b 	andeq	r2, r0, fp, asr #18
    279c:	00001da4 	andeq	r1, r0, r4, lsr #27
    27a0:	00001da2 	andeq	r1, r0, r2, lsr #27
    27a4:	00293f1c 	eoreq	r3, r9, ip, lsl pc
    27a8:	29ce2300 	stmibcs	lr, {r8, r9, sp}^
    27ac:	82640000 	rsbhi	r0, r4, #0, 0
    27b0:	00060000 	andeq	r0, r6, r0
    27b4:	00008264 	andeq	r8, r0, r4, ror #4
    27b8:	00000004 	andeq	r0, r0, r4
    27bc:	f905a502 			; <UNDEFINED> instruction: 0xf905a502
    27c0:	1c000023 	stcne	0, cr0, [r0], {35}	; 0x23
    27c4:	000029db 	ldrdeq	r2, [r0], -fp
    27c8:	0029e71b 	eoreq	lr, r9, fp, lsl r7
    27cc:	001dbb00 	andseq	fp, sp, r0, lsl #22
    27d0:	001db900 	andseq	fp, sp, r0, lsl #18
    27d4:	57200000 	strpl	r0, [r0, -r0]!
    27d8:	68000029 	stmdavs	r0, {r0, r3, r5}
    27dc:	04000082 	streq	r0, [r0], #-130	; 0xffffff7e
    27e0:	18000000 	stmdane	r0, {}	; <UNPREDICTABLE>
    27e4:	1b000024 	blne	287c <__code_start__-0x5784>
    27e8:	00002958 	andeq	r2, r0, r8, asr r9
    27ec:	00001dd5 	ldrdeq	r1, [r0], -r5
    27f0:	00001dd3 	ldrdeq	r1, [r0], -r3
    27f4:	299a1800 	ldmibcs	sl, {fp, ip}
    27f8:	826c0000 	rsbhi	r0, ip, #0, 0
    27fc:	00020000 	andeq	r0, r2, r0
    2800:	00000df8 	strdeq	r0, [r0], -r8
    2804:	1905a602 	stmdbne	r5, {r1, r9, sl, sp, pc}
    2808:	000029b3 			; <UNDEFINED> instruction: 0x000029b3
    280c:	00001dea 	andeq	r1, r0, sl, ror #27
    2810:	00001de8 	andeq	r1, r0, r8, ror #27
    2814:	0029a719 	eoreq	sl, r9, r9, lsl r7
    2818:	001e0100 	andseq	r0, lr, r0, lsl #2
    281c:	001dff00 	andseq	pc, sp, r0, lsl #30
    2820:	299a2100 	ldmibcs	sl, {r8, sp}
    2824:	826c0000 	rsbhi	r0, ip, #0, 0
    2828:	00040000 	andeq	r0, r4, r0
    282c:	0000826c 	andeq	r8, r0, ip, ror #4
    2830:	00000010 	andeq	r0, r0, r0, lsl r0
    2834:	19147f02 	ldmdbne	r4, {r1, r8, r9, sl, fp, ip, sp, lr}
    2838:	000029b3 			; <UNDEFINED> instruction: 0x000029b3
    283c:	00001e18 	andeq	r1, r0, r8, lsl lr
    2840:	00001e14 	andeq	r1, r0, r4, lsl lr
    2844:	0029a719 	eoreq	sl, r9, r9, lsl r7
    2848:	001e3c00 	andseq	r3, lr, r0, lsl #24
    284c:	001e3a00 	andseq	r3, lr, r0, lsl #20
    2850:	29bf2200 	ldmibcs	pc!, {r9, sp}	; <UNPREDICTABLE>
    2854:	826c0000 	rsbhi	r0, ip, #0, 0
    2858:	00040000 	andeq	r0, r4, r0
    285c:	c01b0000 	andsgt	r0, fp, r0
    2860:	51000029 	tstpl	r0, r9, lsr #32
    2864:	4f00001e 	svcmi	0x0000001e
    2868:	0000001e 	andeq	r0, r0, lr, lsl r0
    286c:	00000000 	andeq	r0, r0, r0
    2870:	0028fe1d 	eoreq	pc, r8, sp, lsl lr	; <UNPREDICTABLE>
    2874:	0082c000 	addeq	ip, r2, r0
    2878:	10000100 	andne	r0, r0, r0, lsl #2
    287c:	0200000e 	andeq	r0, r0, #14, 0
    2880:	259909ce 	ldrcs	r0, [r9, #2510]	; 0x9ce
    2884:	0b1c0000 	bleq	70288c <__bss_end__+0x6f889c>
    2888:	18000029 	stmdane	r0, {r0, r3, r5}
    288c:	00002966 	andeq	r2, r0, r6, ror #18
    2890:	000082c0 	andeq	r8, r0, r0, asr #5
    2894:	0e180003 	cdpeq	0, 1, cr0, cr8, cr3, {0}
    2898:	b0020000 	andlt	r0, r2, r0
    289c:	297f1905 	ldmdbcs	pc!, {r0, r2, r8, fp, ip}^	; <UNPREDICTABLE>
    28a0:	1e660000 	cdpne	0, 6, cr0, cr6, cr0, {0}
    28a4:	1e640000 	cdpne	0, 6, cr0, cr4, cr0, {0}
    28a8:	731c0000 	tstvc	ip, #0, 0
    28ac:	23000029 	movwcs	r0, #41	; 0x29
    28b0:	000029fa 	strdeq	r2, [r0], -sl
    28b4:	000082c0 	andeq	r8, r0, r0, asr #5
    28b8:	82c00005 	sbchi	r0, r0, #5, 0
    28bc:	00000000 	andeq	r0, r0, r0
    28c0:	9d020000 	stcls	0, cr0, [r2, #-0]
    28c4:	0024ff05 	eoreq	pc, r4, r5, lsl #30
    28c8:	2a071c00 	bcs	1c98d0 <__bss_end__+0x1bf8e0>
    28cc:	131b0000 	tstne	fp, #0, 0
    28d0:	7d00002a 	stcvc	0, cr0, [r0, #-168]	; 0xffffff58
    28d4:	7b00001e 	blvc	2954 <__code_start__-0x56ac>
    28d8:	0000001e 	andeq	r0, r0, lr, lsl r0
    28dc:	00298b20 	eoreq	r8, r9, r0, lsr #22
    28e0:	0082c000 	addeq	ip, r2, r0
    28e4:	00000400 	andeq	r0, r0, r0, lsl #8
    28e8:	00251e00 	eoreq	r1, r5, r0, lsl #28
    28ec:	298c1b00 	stmibcs	ip, {r8, r9, fp, ip}
    28f0:	1e970000 	cdpne	0, 9, cr0, cr7, cr0, {0}
    28f4:	1e950000 	cdpne	0, 9, cr0, cr5, cr0, {0}
    28f8:	18000000 	stmdane	r0, {}	; <UNPREDICTABLE>
    28fc:	0000299a 	muleq	r0, sl, r9
    2900:	000082c4 	andeq	r8, r0, r4, asr #5
    2904:	0e400002 	cdpeq	0, 4, cr0, cr0, cr2, {0}
    2908:	9e020000 	cdpls	0, 0, cr0, cr2, cr0, {0}
    290c:	29b31905 	ldmibcs	r3!, {r0, r2, r8, fp, ip}
    2910:	1eac0000 	cdpne	0, 10, cr0, cr12, cr0, {0}
    2914:	1eaa0000 	cdpne	0, 10, cr0, cr10, cr0, {0}
    2918:	a7190000 	ldrge	r0, [r9, -r0]
    291c:	c3000029 	movwgt	r0, #41	; 0x29
    2920:	c100001e 	tstgt	r0, lr, lsl r0
    2924:	2100001e 	tstcs	r0, lr, lsl r0
    2928:	0000299a 	muleq	r0, sl, r9
    292c:	000082c4 	andeq	r8, r0, r4, asr #5
    2930:	82c40004 	sbchi	r0, r4, #4, 0
    2934:	00100000 	andseq	r0, r0, r0
    2938:	7f020000 	svcvc	0x00020000
    293c:	29b31914 	ldmibcs	r3!, {r2, r4, r8, fp, ip}
    2940:	1eda0000 	cdpne	0, 13, cr0, cr10, cr0, {0}
    2944:	1ed60000 	cdpne	0, 13, cr0, cr6, cr0, {0}
    2948:	a7190000 	ldrge	r0, [r9, -r0]
    294c:	fe000029 	cdp2	0, 0, cr0, cr0, cr9, {1}
    2950:	fc00001e 	stc2	0, cr0, [r0], {30}
    2954:	2200001e 	andcs	r0, r0, #30, 0
    2958:	000029bf 			; <UNDEFINED> instruction: 0x000029bf
    295c:	000082c4 	andeq	r8, r0, r4, asr #5
    2960:	00000004 	andeq	r0, r0, r4
    2964:	0029c01b 	eoreq	ip, r9, fp, lsl r0
    2968:	001f1300 	andseq	r1, pc, r0, lsl #6
    296c:	001f1100 	andseq	r1, pc, r0, lsl #2
    2970:	00000000 	andeq	r0, r0, r0
    2974:	ca180000 	bgt	60297c <__bss_end__+0x5f898c>
    2978:	d4000028 	strle	r0, [r0], #-40	; 0xffffffd8
    297c:	02000082 	andeq	r0, r0, #130, 0	; 0x82
    2980:	000e5800 	andeq	r5, lr, r0, lsl #16
    2984:	09cf0200 	stmibeq	pc, {r9}^	; <UNPREDICTABLE>
    2988:	0028d71c 	eoreq	sp, r8, ip, lsl r7
    298c:	29321800 	ldmdbcs	r2!, {fp, ip}
    2990:	82d40000 	sbcshi	r0, r4, #0, 0
    2994:	00040000 	andeq	r0, r4, r0
    2998:	00000e60 	andeq	r0, r0, r0, ror #28
    299c:	1905b802 	stmdbne	r5, {r1, fp, ip, sp, pc}
    29a0:	0000294b 	andeq	r2, r0, fp, asr #18
    29a4:	00001f28 	andeq	r1, r0, r8, lsr #30
    29a8:	00001f26 	andeq	r1, r0, r6, lsr #30
    29ac:	00293f1c 	eoreq	r3, r9, ip, lsl pc
    29b0:	29ce2300 	stmibcs	lr, {r8, r9, sp}^
    29b4:	82d40000 	sbcshi	r0, r4, #0, 0
    29b8:	00060000 	andeq	r0, r6, r0
    29bc:	000082d4 	ldrdeq	r8, [r0], -r4
    29c0:	00000004 	andeq	r0, r0, r4
    29c4:	0105a502 	tsteq	r5, r2, lsl #10
    29c8:	1c000026 	stcne	0, cr0, [r0], {38}	; 0x26
    29cc:	000029db 	ldrdeq	r2, [r0], -fp
    29d0:	0029e71b 	eoreq	lr, r9, fp, lsl r7
    29d4:	001f4000 	andseq	r4, pc, r0
    29d8:	001f3e00 	andseq	r3, pc, r0, lsl #28
    29dc:	57200000 	strpl	r0, [r0, -r0]!
    29e0:	d8000029 	stmdale	r0, {r0, r3, r5}
    29e4:	04000082 	streq	r0, [r0], #-130	; 0xffffff7e
    29e8:	20000000 	andcs	r0, r0, r0
    29ec:	1b000026 	blne	2a8c <__code_start__-0x5574>
    29f0:	00002958 	andeq	r2, r0, r8, asr r9
    29f4:	00001f5a 	andeq	r1, r0, sl, asr pc
    29f8:	00001f58 	andeq	r1, r0, r8, asr pc
    29fc:	299a1800 	ldmibcs	sl, {fp, ip}
    2a00:	82dc0000 	sbcshi	r0, ip, #0, 0
    2a04:	00020000 	andeq	r0, r2, r0
    2a08:	00000e88 	andeq	r0, r0, r8, lsl #29
    2a0c:	1905a602 	stmdbne	r5, {r1, r9, sl, sp, pc}
    2a10:	000029b3 			; <UNDEFINED> instruction: 0x000029b3
    2a14:	00001f6f 	andeq	r1, r0, pc, ror #30
    2a18:	00001f6d 	andeq	r1, r0, sp, ror #30
    2a1c:	0029a719 	eoreq	sl, r9, r9, lsl r7
    2a20:	001f8700 	andseq	r8, pc, r0, lsl #14
    2a24:	001f8500 	andseq	r8, pc, r0, lsl #10
    2a28:	299a2100 	ldmibcs	sl, {r8, sp}
    2a2c:	82dc0000 	sbcshi	r0, ip, #0, 0
    2a30:	00040000 	andeq	r0, r4, r0
    2a34:	000082dc 	ldrdeq	r8, [r0], -ip
    2a38:	00000010 	andeq	r0, r0, r0, lsl r0
    2a3c:	19147f02 	ldmdbne	r4, {r1, r8, r9, sl, fp, ip, sp, lr}
    2a40:	000029b3 			; <UNDEFINED> instruction: 0x000029b3
    2a44:	00001f9e 	muleq	r0, lr, pc	; <UNPREDICTABLE>
    2a48:	00001f9a 	muleq	r0, sl, pc	; <UNPREDICTABLE>
    2a4c:	0029a719 	eoreq	sl, r9, r9, lsl r7
    2a50:	001fc400 	andseq	ip, pc, r0, lsl #8
    2a54:	001fc200 	andseq	ip, pc, r0, lsl #4
    2a58:	29bf2200 	ldmibcs	pc!, {r9, sp}	; <UNPREDICTABLE>
    2a5c:	82dc0000 	sbcshi	r0, ip, #0, 0
    2a60:	00040000 	andeq	r0, r4, r0
    2a64:	c01b0000 	andsgt	r0, fp, r0
    2a68:	d9000029 	stmdble	r0, {r0, r3, r5}
    2a6c:	d700001f 	smladle	r0, pc, r0, r0	; <UNPREDICTABLE>
    2a70:	0000001f 	andeq	r0, r0, pc, lsl r0
	...
    2a7c:	961d0000 	ldrls	r0, [sp], -r0
    2a80:	90000028 	andls	r0, r0, r8, lsr #32
    2a84:	01000082 	smlabbeq	r0, r2, r0, r0
    2a88:	000ea000 	andeq	sl, lr, r0
    2a8c:	05230100 	streq	r0, [r3, #-256]!	; 0xffffff00
    2a90:	000027d5 	ldrdeq	r2, [r0], -r5
    2a94:	0028a319 	eoreq	sl, r8, r9, lsl r3
    2a98:	001ff000 	andseq	pc, pc, r0
    2a9c:	001fec00 	andseq	lr, pc, r0, lsl #24
    2aa0:	28b01800 	ldmcs	r0!, {fp, ip}
    2aa4:	82900000 	addshi	r0, r0, #0, 0
    2aa8:	00030000 	andeq	r0, r3, r0
    2aac:	00000f08 	andeq	r0, r0, r8, lsl #30
    2ab0:	1905c502 	stmdbne	r5, {r1, r8, sl, lr, pc}
    2ab4:	000028bd 			; <UNDEFINED> instruction: 0x000028bd
    2ab8:	00002020 	andeq	r2, r0, r0, lsr #32
    2abc:	0000201c 	andeq	r2, r0, ip, lsl r0
    2ac0:	00293218 	eoreq	r3, r9, r8, lsl r2
    2ac4:	00829000 	addeq	r9, r2, r0
    2ac8:	60000500 	andvs	r0, r0, r0, lsl #10
    2acc:	0200000f 	andeq	r0, r0, #15, 0
    2ad0:	4b1905bc 	blmi	6441c8 <__bss_end__+0x63a1d8>
    2ad4:	50000029 	andpl	r0, r0, r9, lsr #32
    2ad8:	4c000020 	stcmi	0, cr0, [r0], {32}
    2adc:	19000020 	stmdbne	r0, {r5}
    2ae0:	0000293f 	andeq	r2, r0, pc, lsr r9
    2ae4:	00002078 	andeq	r2, r0, r8, ror r0
    2ae8:	00002074 	andeq	r2, r0, r4, ror r0
    2aec:	0029ce1d 	eoreq	ip, r9, sp, lsl lr
    2af0:	00829000 	addeq	r9, r2, r0
    2af4:	a8000700 	stmdage	r0, {r8, r9, sl}
    2af8:	0200000f 	andeq	r0, r0, #15, 0
    2afc:	274605a5 	strbcs	r0, [r6, -r5, lsr #11]
    2b00:	db190000 	blle	642b08 <__bss_end__+0x638b18>
    2b04:	a8000029 	stmdage	r0, {r0, r3, r5}
    2b08:	a4000020 	strge	r0, [r0], #-32	; 0xffffffe0
    2b0c:	1f000020 	svcne	0x00000020
    2b10:	00000fa8 	andeq	r0, r0, r8, lsr #31
    2b14:	0029e71b 	eoreq	lr, r9, fp, lsl r7
    2b18:	0020d800 	eoreq	sp, r0, r0, lsl #16
    2b1c:	0020d400 	eoreq	sp, r0, r0, lsl #8
    2b20:	1a000000 	bne	2b28 <__code_start__-0x54d8>
    2b24:	00002957 	andeq	r2, r0, r7, asr r9
    2b28:	00000fc0 	andeq	r0, r0, r0, asr #31
    2b2c:	00002761 	andeq	r2, r0, r1, ror #14
    2b30:	0029581b 	eoreq	r5, r9, fp, lsl r8
    2b34:	00210400 	eoreq	r0, r1, r0, lsl #8
    2b38:	00210000 	eoreq	r0, r1, r0
    2b3c:	9a180000 	bls	602b44 <__bss_end__+0x5f8b54>
    2b40:	9c000029 	stcls	0, cr0, [r0], {41}	; 0x29
    2b44:	02000082 	andeq	r0, r0, #130, 0	; 0x82
    2b48:	000fd800 	andeq	sp, pc, r0, lsl #16
    2b4c:	05a60200 	streq	r0, [r6, #512]!	; 0x200
    2b50:	0029b319 	eoreq	fp, r9, r9, lsl r3
    2b54:	00212600 	eoreq	r2, r1, r0, lsl #12
    2b58:	00212200 	eoreq	r2, r1, r0, lsl #4
    2b5c:	29a71900 	stmibcs	r7!, {r8, fp, ip}
    2b60:	214e0000 	mrscs	r0, (UNDEF: 78)
    2b64:	214a0000 	mrscs	r0, (UNDEF: 74)
    2b68:	9a180000 	bls	602b70 <__bss_end__+0x5f8b80>
    2b6c:	9c000029 	stcls	0, cr0, [r0], {41}	; 0x29
    2b70:	04000082 	streq	r0, [r0], #-130	; 0xffffff7e
    2b74:	00100000 	andseq	r0, r0, r0
    2b78:	147f0200 	ldrbtne	r0, [pc], #-512	; 2b80 <__code_start__-0x5480>
    2b7c:	0029b319 	eoreq	fp, r9, r9, lsl r3
    2b80:	00217400 	eoreq	r7, r1, r0, lsl #8
    2b84:	00216c00 	eoreq	r6, r1, r0, lsl #24
    2b88:	29a71900 	stmibcs	r7!, {r8, fp, ip}
    2b8c:	21b80000 			; <UNDEFINED> instruction: 0x21b80000
    2b90:	21b40000 			; <UNDEFINED> instruction: 0x21b40000
    2b94:	bf1e0000 	svclt	0x001e0000
    2b98:	18000029 	stmdane	r0, {r0, r3, r5}
    2b9c:	1b000010 	blne	2be4 <__code_start__-0x541c>
    2ba0:	000029c0 	andeq	r2, r0, r0, asr #19
    2ba4:	000021da 	ldrdeq	r2, [r0], -sl
    2ba8:	000021d6 	ldrdeq	r2, [r0], -r6
    2bac:	00000000 	andeq	r0, r0, r0
    2bb0:	c0360000 	eorsgt	r0, r6, r0
    2bb4:	eb000082 	bl	2dc4 <__code_start__-0x523c>
    2bb8:	f1000031 			; <UNDEFINED> instruction: 0xf1000031
    2bbc:	33000027 	movwcc	r0, #39	; 0x27
    2bc0:	f3055001 	vhadd.u8	d5, d5, d1
    2bc4:	08235001 	stmdaeq	r3!, {r0, ip, lr}
    2bc8:	01510133 	cmpeq	r1, r3, lsr r1
    2bcc:	a0370030 	eorsge	r0, r7, r0, lsr r0
    2bd0:	eb000083 	bl	2de4 <__code_start__-0x521c>
    2bd4:	33000031 	movwcc	r0, #49	; 0x31
    2bd8:	f3055001 	vhadd.u8	d5, d5, d1
    2bdc:	08235001 	stmdaeq	r3!, {r0, ip, lr}
    2be0:	01510133 	cmpeq	r1, r3, lsr r1
    2be4:	38000030 	stmdacc	r0, {r4, r5}
    2be8:	000002d5 	ldrdeq	r0, [r0], -r5
    2bec:	0314df02 	tsteq	r4, #2, 30
    2bf0:	00002842 	andeq	r2, r0, r2, asr #16
    2bf4:	6e697029 	cdpvs	0, 6, cr7, cr9, cr9, {1}
    2bf8:	2bdf0200 	blcs	ff7c3400 <__bss_end__+0xff7b9410>
    2bfc:	0000002c 	andeq	r0, r0, ip, lsr #32
    2c00:	02007229 	andeq	r7, r0, #-1879048190	; 0x90000002
    2c04:	005938df 	ldrsbeq	r3, [r9], #-143	; 0xffffff71
    2c08:	67290000 	strvs	r0, [r9, -r0]!
    2c0c:	43df0200 	bicsmi	r0, pc, #0, 4
    2c10:	00000059 	andeq	r0, r0, r9, asr r0
    2c14:	02006229 	andeq	r6, r0, #-1879048190	; 0x90000002
    2c18:	00594edf 	ldrsbeq	r4, [r9], #-239	; 0xffffff11
    2c1c:	38000000 	stmdacc	r0, {}	; <UNPREDICTABLE>
    2c20:	0000025c 	andeq	r0, r0, ip, asr r2
    2c24:	010dd802 	tsteq	sp, r2, lsl #16
    2c28:	00002872 	andeq	r2, r0, r2, ror r8
    2c2c:	6e697029 	cdpvs	0, 6, cr7, cr9, cr9, {1}
    2c30:	23d80200 	bicscs	r0, r8, #0, 4
    2c34:	0000002c 	andeq	r0, r0, ip, lsr #32
    2c38:	02006229 	andeq	r6, r0, #-1879048190	; 0x90000002
    2c3c:	005930d8 	ldrsbeq	r3, [r9], #-8
    2c40:	2b2a0000 	blcs	a82c48 <__bss_end__+0xa78c58>
    2c44:	d9020069 	stmdble	r2, {r0, r3, r5, r6}
    2c48:	0000250e 	andeq	r2, r0, lr, lsl #10
    2c4c:	38000000 	stmdacc	r0, {}	; <UNPREDICTABLE>
    2c50:	00000235 	andeq	r0, r0, r5, lsr r2
    2c54:	0314c902 	tsteq	r4, #32768	; 0x8000
    2c58:	00002896 	muleq	r0, r6, r8
    2c5c:	6e697029 	cdpvs	0, 6, cr7, cr9, cr9, {1}
    2c60:	29c90200 	stmibcs	r9, {r9}^
    2c64:	0000002c 	andeq	r0, r0, ip, lsr #32
    2c68:	02006229 	andeq	r6, r0, #-1879048190	; 0x90000002
    2c6c:	005936c9 	subseq	r3, r9, r9, asr #13
    2c70:	38000000 	stmdacc	r0, {}	; <UNPREDICTABLE>
    2c74:	00000083 	andeq	r0, r0, r3, lsl #1
    2c78:	0314c402 	tsteq	r4, #33554432	; 0x2000000
    2c7c:	000028b0 			; <UNDEFINED> instruction: 0x000028b0
    2c80:	6e697029 	cdpvs	0, 6, cr7, cr9, cr9, {1}
    2c84:	27c40200 	strbcs	r0, [r4, r0, lsl #4]
    2c88:	0000002c 	andeq	r0, r0, ip, lsr #32
    2c8c:	02213800 	eoreq	r3, r1, #0, 16
    2c90:	bb020000 	bllt	82c98 <__bss_end__+0x78ca8>
    2c94:	28ca0314 	stmiacs	sl, {r2, r4, r8, r9}^
    2c98:	70290000 	eorvc	r0, r9, r0
    2c9c:	02006e69 	andeq	r6, r0, #1680	; 0x690
    2ca0:	002c24bb 	strhteq	r2, [ip], -fp
    2ca4:	39000000 	stmdbcc	r0, {}	; <UNPREDICTABLE>
    2ca8:	006c3074 	rsbeq	r3, ip, r4, ror r0
    2cac:	0314b702 	tsteq	r4, #524288	; 0x80000
    2cb0:	000028e4 	andeq	r2, r0, r4, ror #17
    2cb4:	6e697029 	cdpvs	0, 6, cr7, cr9, cr9, {1}
    2cb8:	21b70200 			; <UNDEFINED> instruction: 0x21b70200
    2cbc:	0000002c 	andeq	r0, r0, ip, lsr #32
    2cc0:	31743900 	cmncc	r4, r0, lsl #18
    2cc4:	b302006c 	movwlt	r0, #8300	; 0x206c
    2cc8:	28fe0314 	ldmcs	lr!, {r2, r4, r8, r9}^
    2ccc:	70290000 	eorvc	r0, r9, r0
    2cd0:	02006e69 	andeq	r6, r0, #1680	; 0x690
    2cd4:	002c21b3 	strhteq	r2, [ip], -r3
    2cd8:	39000000 	stmdbcc	r0, {}	; <UNPREDICTABLE>
    2cdc:	00683074 	rsbeq	r3, r8, r4, ror r0
    2ce0:	0314af02 	tsteq	r4, #2, 30
    2ce4:	00002918 	andeq	r2, r0, r8, lsl r9
    2ce8:	6e697029 	cdpvs	0, 6, cr7, cr9, cr9, {1}
    2cec:	21af0200 			; <UNDEFINED> instruction: 0x21af0200
    2cf0:	0000002c 	andeq	r0, r0, ip, lsr #32
    2cf4:	31743900 	cmncc	r4, r0, lsl #18
    2cf8:	aa020068 	bge	82ea0 <__bss_end__+0x78eb0>
    2cfc:	29320314 	ldmdbcs	r2!, {r2, r4, r8, r9}
    2d00:	70290000 	eorvc	r0, r9, r0
    2d04:	02006e69 	andeq	r6, r0, #1680	; 0x690
    2d08:	002c21aa 	eoreq	r2, ip, sl, lsr #3
    2d0c:	38000000 	stmdacc	r0, {}	; <UNPREDICTABLE>
    2d10:	000001f0 	strdeq	r0, [r0], -r0	; <UNPREDICTABLE>
    2d14:	0314a302 	tsteq	r4, #134217728	; 0x8000000
    2d18:	00002966 	andeq	r2, r0, r6, ror #18
    2d1c:	6e697029 	cdpvs	0, 6, cr7, cr9, cr9, {1}
    2d20:	25a30200 	strcs	r0, [r3, #512]!	; 0x200
    2d24:	0000002c 	andeq	r0, r0, ip, lsr #32
    2d28:	0002473a 	andeq	r4, r2, sl, lsr r7
    2d2c:	33a30200 			; <UNDEFINED> instruction: 0x33a30200
    2d30:	0000002c 	andeq	r0, r0, ip, lsr #32
    2d34:	02143b2a 	andseq	r3, r4, #43008	; 0xa800
    2d38:	a6020000 	strge	r0, [r2], -r0
    2d3c:	00002c13 	andeq	r2, r0, r3, lsl ip
    2d40:	38000000 	stmdacc	r0, {}	; <UNPREDICTABLE>
    2d44:	000001f8 	strdeq	r0, [r0], -r8
    2d48:	03149b02 	tsteq	r4, #2048	; 0x800
    2d4c:	0000299a 	muleq	r0, sl, r9
    2d50:	6e697029 	cdpvs	0, 6, cr7, cr9, cr9, {1}
    2d54:	259b0200 	ldrcs	r0, [fp, #512]	; 0x200
    2d58:	0000002c 	andeq	r0, r0, ip, lsr #32
    2d5c:	0002473a 	andeq	r4, r2, sl, lsr r7
    2d60:	339b0200 	orrscc	r0, fp, #0, 4
    2d64:	0000002c 	andeq	r0, r0, ip, lsr #32
    2d68:	02143b2a 	andseq	r3, r4, #43008	; 0xa800
    2d6c:	9e020000 	cdpls	0, 0, cr0, cr2, cr0, {0}
    2d70:	00002c13 	andeq	r2, r0, r3, lsl ip
    2d74:	38000000 	stmdacc	r0, {}	; <UNPREDICTABLE>
    2d78:	00000241 	andeq	r0, r0, r1, asr #4
    2d7c:	03147f02 	tsteq	r4, #2, 30
    2d80:	000029ce 	andeq	r2, r0, lr, asr #19
    2d84:	00020a3a 	andeq	r0, r2, sl, lsr sl
    2d88:	2b7f0200 	blcs	1fc3590 <__bss_end__+0x1fb95a0>
    2d8c:	0000002c 	andeq	r0, r0, ip, lsr #32
    2d90:	0002563a 	andeq	r5, r2, sl, lsr r6
    2d94:	3f7f0200 	svccc	0x007f0200
    2d98:	0000002c 	andeq	r0, r0, ip, lsr #32
    2d9c:	02143b2a 	andseq	r3, r4, #43008	; 0xa800
    2da0:	83020000 	movwhi	r0, #8192	; 0x2000
    2da4:	00002c0c 	andeq	r2, r0, ip, lsl #24
    2da8:	38000000 	stmdacc	r0, {}	; <UNPREDICTABLE>
    2dac:	000002bb 			; <UNDEFINED> instruction: 0x000002bb
    2db0:	03147902 	tsteq	r4, #32768	; 0x8000
    2db4:	000029f4 	strdeq	r2, [r0], -r4
    2db8:	6e697029 	cdpvs	0, 6, cr7, cr9, cr9, {1}
    2dbc:	2e790200 	cdpcs	2, 7, cr0, cr9, cr0, {0}
    2dc0:	0000002c 	andeq	r0, r0, ip, lsr #32
    2dc4:	0002e83b 	andeq	lr, r2, fp, lsr r8
    2dc8:	187a0200 	ldmdane	sl!, {r9}^
    2dcc:	000029f4 	strdeq	r2, [r0], -r4
    2dd0:	38040a00 	stmdacc	r4, {r9, fp}
    2dd4:	38000000 	stmdacc	r0, {}	; <UNPREDICTABLE>
    2dd8:	00000296 	muleq	r0, r6, r2
    2ddc:	03147402 	tsteq	r4, #33554432	; 0x2000000
    2de0:	00002a20 	andeq	r2, r0, r0, lsr #20
    2de4:	6e697029 	cdpvs	0, 6, cr7, cr9, cr9, {1}
    2de8:	2d740200 	lfmcs	f0, 2, [r4, #-0]
    2dec:	0000002c 	andeq	r0, r0, ip, lsr #32
    2df0:	0002f23b 	andeq	pc, r2, fp, lsr r2	; <UNPREDICTABLE>
    2df4:	18750200 	ldmdane	r5!, {r9}^
    2df8:	000029f4 	strdeq	r2, [r0], -r4
    2dfc:	09d73c00 	ldmibeq	r7, {sl, fp, ip, sp}^
    2e00:	85a00000 	strhi	r0, [r0, #0]!
    2e04:	00f00000 	rscseq	r0, r0, r0
    2e08:	9c010000 	stcls	0, cr0, [r1], {-0}
    2e0c:	000031d3 	ldrdeq	r3, [r0], -r3	; <UNPREDICTABLE>
    2e10:	0009e419 	andeq	lr, r9, r9, lsl r4
    2e14:	00220000 	eoreq	r0, r2, r0
    2e18:	0021f800 	eoreq	pc, r1, r0, lsl #16
    2e1c:	09ee1900 	stmibeq	lr!, {r8, fp, ip}^
    2e20:	22420000 	subcs	r0, r2, #0, 0
    2e24:	223a0000 	eorscs	r0, sl, #0, 0
    2e28:	f81a0000 			; <UNDEFINED> instruction: 0xf81a0000
    2e2c:	c8000009 	stmdagt	r0, {r0, r3}
    2e30:	c000001b 	andgt	r0, r0, fp, lsl r0
    2e34:	1b000031 	blne	2f00 <__code_start__-0x5100>
    2e38:	000009f9 	strdeq	r0, [r0], -r9
    2e3c:	00002282 	andeq	r2, r0, r2, lsl #5
    2e40:	0000227c 	andeq	r2, r0, ip, ror r2
    2e44:	00280a18 	eoreq	r0, r8, r8, lsl sl
    2e48:	0085c000 	addeq	ip, r5, r0
    2e4c:	e0000200 	and	r0, r0, r0, lsl #4
    2e50:	0100001c 	tsteq	r0, ip, lsl r0
    2e54:	3719093c 			; <UNDEFINED> instruction: 0x3719093c
    2e58:	af000028 	svcge	0x00000028
    2e5c:	ad000022 	stcge	0, cr0, [r0, #-136]	; 0xffffff78
    2e60:	19000022 	stmdbne	r0, {r1, r5}
    2e64:	0000282d 	andeq	r2, r0, sp, lsr #16
    2e68:	000022af 	andeq	r2, r0, pc, lsr #5
    2e6c:	000022ad 	andeq	r2, r0, sp, lsr #5
    2e70:	00282319 	eoreq	r2, r8, r9, lsl r3
    2e74:	0022af00 	eoreq	sl, r2, r0, lsl #30
    2e78:	0022ad00 	eoreq	sl, r2, r0, lsl #26
    2e7c:	28171c00 	ldmdacs	r7, {sl, fp, ip}
    2e80:	421d0000 	andsmi	r0, sp, #0, 0
    2e84:	c0000028 	andgt	r0, r0, r8, lsr #32
    2e88:	04000085 	streq	r0, [r0], #-133	; 0xffffff7b
    2e8c:	001e0800 	andseq	r0, lr, r0, lsl #16
    2e90:	05e40200 	strbeq	r0, [r4, #512]!	; 0x200
    2e94:	00002d14 	andeq	r2, r0, r4, lsl sp
    2e98:	00285b19 	eoreq	r5, r8, r9, lsl fp
    2e9c:	0022c500 	eoreq	ip, r2, r0, lsl #10
    2ea0:	0022c300 	eoreq	ip, r2, r0, lsl #6
    2ea4:	284f1c00 	stmdacs	pc, {sl, fp, ip}^	; <UNPREDICTABLE>
    2ea8:	651e0000 	ldrvs	r0, [lr, #-0]
    2eac:	88000028 	stmdahi	r0, {r3, r5}
    2eb0:	1b00001e 	blne	2f30 <__code_start__-0x50d0>
    2eb4:	00002866 	andeq	r2, r0, r6, ror #16
    2eb8:	000022db 	ldrdeq	r2, [r0], -fp
    2ebc:	000022d9 	ldrdeq	r2, [r0], -r9
    2ec0:	00287218 	eoreq	r7, r8, r8, lsl r2
    2ec4:	0085c400 	addeq	ip, r5, r0, lsl #8
    2ec8:	00000100 	andeq	r0, r0, r0, lsl #2
    2ecc:	0200001f 	andeq	r0, r0, #31, 0
    2ed0:	8b1909da 	blhi	645640 <__bss_end__+0x63b650>
    2ed4:	f1000028 			; <UNDEFINED> instruction: 0xf1000028
    2ed8:	ef000022 	svc	0x00000022
    2edc:	1c000022 	stcne	0, cr0, [r0], {34}	; 0x22
    2ee0:	0000287f 	andeq	r2, r0, pc, ror r8
    2ee4:	0028fe1d 	eoreq	pc, r8, sp, lsl lr	; <UNPREDICTABLE>
    2ee8:	0085c400 	addeq	ip, r5, r0, lsl #8
    2eec:	70000400 	andvc	r0, r0, r0, lsl #8
    2ef0:	0200001f 	andeq	r0, r0, #31, 0
    2ef4:	2c0f09ce 			; <UNDEFINED> instruction: 0x2c0f09ce
    2ef8:	0b1c0000 	bleq	702f00 <__bss_end__+0x6f8f10>
    2efc:	18000029 	stmdane	r0, {r0, r3, r5}
    2f00:	00002966 	andeq	r2, r0, r6, ror #18
    2f04:	000085c4 	andeq	r8, r0, r4, asr #11
    2f08:	1fb00006 	svcne	0x00b00006
    2f0c:	b0020000 	andlt	r0, r2, r0
    2f10:	297f1905 	ldmdbcs	pc!, {r0, r2, r8, fp, ip}^	; <UNPREDICTABLE>
    2f14:	23070000 	movwcs	r0, #28672	; 0x7000
    2f18:	23050000 	movwcs	r0, #20480	; 0x5000
    2f1c:	731c0000 	tstvc	ip, #0, 0
    2f20:	1d000029 	stcne	0, cr0, [r0, #-164]	; 0xffffff5c
    2f24:	000029fa 	strdeq	r2, [r0], -sl
    2f28:	000085c4 	andeq	r8, r0, r4, asr #11
    2f2c:	1fe80008 	svcne	0x00e80008
    2f30:	9d020000 	stcls	0, cr0, [r2, #-0]
    2f34:	002b7505 	eoreq	r7, fp, r5, lsl #10
    2f38:	2a071c00 	bcs	1c9f40 <__bss_end__+0x1bff50>
    2f3c:	e81f0000 	ldmda	pc, {}	; <UNPREDICTABLE>
    2f40:	1b00001f 	blne	2fc4 <__code_start__-0x503c>
    2f44:	00002a13 	andeq	r2, r0, r3, lsl sl
    2f48:	0000231e 	andeq	r2, r0, lr, lsl r3
    2f4c:	0000231c 	andeq	r2, r0, ip, lsl r3
    2f50:	8b200000 	blhi	802f58 <__bss_end__+0x7f8f68>
    2f54:	c8000029 	stmdagt	r0, {r0, r3, r5}
    2f58:	04000085 	streq	r0, [r0], #-133	; 0xffffff7b
    2f5c:	94000000 	strls	r0, [r0], #-0
    2f60:	1b00002b 	blne	3014 <__code_start__-0x4fec>
    2f64:	0000298c 	andeq	r2, r0, ip, lsl #19
    2f68:	00002338 	andeq	r2, r0, r8, lsr r3
    2f6c:	00002336 	andeq	r2, r0, r6, lsr r3
    2f70:	299a1800 	ldmibcs	sl, {fp, ip}
    2f74:	85cc0000 	strbhi	r0, [ip]
    2f78:	00020000 	andeq	r0, r2, r0
    2f7c:	00002008 	andeq	r2, r0, r8
    2f80:	19059e02 	stmdbne	r5, {r1, r9, sl, fp, ip, pc}
    2f84:	000029b3 			; <UNDEFINED> instruction: 0x000029b3
    2f88:	0000234d 	andeq	r2, r0, sp, asr #6
    2f8c:	0000234b 	andeq	r2, r0, fp, asr #6
    2f90:	0029a719 	eoreq	sl, r9, r9, lsl r7
    2f94:	00236400 	eoreq	r6, r3, r0, lsl #8
    2f98:	00236200 	eoreq	r6, r3, r0, lsl #4
    2f9c:	299a2100 	ldmibcs	sl, {r8, sp}
    2fa0:	85cc0000 	strbhi	r0, [ip]
    2fa4:	00040000 	andeq	r0, r4, r0
    2fa8:	000085cc 	andeq	r8, r0, ip, asr #11
    2fac:	00000010 	andeq	r0, r0, r0, lsl r0
    2fb0:	19147f02 	ldmdbne	r4, {r1, r8, r9, sl, fp, ip, sp, lr}
    2fb4:	000029b3 			; <UNDEFINED> instruction: 0x000029b3
    2fb8:	0000237b 	andeq	r2, r0, fp, ror r3
    2fbc:	00002377 	andeq	r2, r0, r7, ror r3
    2fc0:	0029a719 	eoreq	sl, r9, r9, lsl r7
    2fc4:	00239f00 	eoreq	r9, r3, r0, lsl #30
    2fc8:	00239d00 	eoreq	r9, r3, r0, lsl #26
    2fcc:	29bf2200 	ldmibcs	pc!, {r9, sp}	; <UNPREDICTABLE>
    2fd0:	85cc0000 	strbhi	r0, [ip]
    2fd4:	00040000 	andeq	r0, r4, r0
    2fd8:	c01b0000 	andsgt	r0, fp, r0
    2fdc:	b4000029 	strlt	r0, [r0], #-41	; 0xffffffd7
    2fe0:	b2000023 	andlt	r0, r0, #35, 0	; 0x23
    2fe4:	00000023 	andeq	r0, r0, r3, lsr #32
    2fe8:	00000000 	andeq	r0, r0, r0
    2fec:	0028ca18 	eoreq	ip, r8, r8, lsl sl
    2ff0:	0085dc00 	addeq	sp, r5, r0, lsl #24
    2ff4:	40000200 	andmi	r0, r0, r0, lsl #4
    2ff8:	0200001f 	andeq	r0, r0, #31, 0
    2ffc:	d71c09cf 	ldrle	r0, [ip, -pc, asr #19]
    3000:	18000028 	stmdane	r0, {r3, r5}
    3004:	00002932 	andeq	r2, r0, r2, lsr r9
    3008:	000085dc 	ldrdeq	r8, [r0], -ip
    300c:	1f480004 	svcne	0x00480004
    3010:	b8020000 	stmdalt	r2, {}	; <UNPREDICTABLE>
    3014:	294b1905 	stmdbcs	fp, {r0, r2, r8, fp, ip}^
    3018:	23c90000 	biccs	r0, r9, #0, 0
    301c:	23c70000 	biccs	r0, r7, #0, 0
    3020:	3f1c0000 	svccc	0x001c0000
    3024:	23000029 	movwcs	r0, #41	; 0x29
    3028:	000029ce 	andeq	r2, r0, lr, asr #19
    302c:	000085dc 	ldrdeq	r8, [r0], -ip
    3030:	85dc0006 	ldrbhi	r0, [ip, #6]
    3034:	00040000 	andeq	r0, r4, r0
    3038:	a5020000 	strge	r0, [r2, #-0]
    303c:	002c7705 	eoreq	r7, ip, r5, lsl #14
    3040:	29db1c00 	ldmibcs	fp, {sl, fp, ip}^
    3044:	e71b0000 	ldr	r0, [fp, -r0]
    3048:	e1000029 	tst	r0, r9, lsr #32
    304c:	df000023 	svcle	0x00000023
    3050:	00000023 	andeq	r0, r0, r3, lsr #32
    3054:	00295720 	eoreq	r5, r9, r0, lsr #14
    3058:	0085e000 	addeq	lr, r5, r0
    305c:	00000400 	andeq	r0, r0, r0, lsl #8
    3060:	002c9600 	eoreq	r9, ip, r0, lsl #12
    3064:	29581b00 	ldmdbcs	r8, {r8, r9, fp, ip}^
    3068:	23fb0000 	mvnscs	r0, #0, 0
    306c:	23f90000 	mvnscs	r0, #0, 0
    3070:	18000000 	stmdane	r0, {}	; <UNPREDICTABLE>
    3074:	0000299a 	muleq	r0, sl, r9
    3078:	000085e4 	andeq	r8, r0, r4, ror #11
    307c:	20200002 	eorcs	r0, r0, r2
    3080:	a6020000 	strge	r0, [r2], -r0
    3084:	29b31905 	ldmibcs	r3!, {r0, r2, r8, fp, ip}
    3088:	24100000 	ldrcs	r0, [r0], #-0
    308c:	240e0000 	strcs	r0, [lr], #-0
    3090:	a7190000 	ldrge	r0, [r9, -r0]
    3094:	28000029 	stmdacs	r0, {r0, r3, r5}
    3098:	26000024 	strcs	r0, [r0], -r4, lsr #32
    309c:	21000024 	tstcs	r0, r4, lsr #32
    30a0:	0000299a 	muleq	r0, sl, r9
    30a4:	000085e4 	andeq	r8, r0, r4, ror #11
    30a8:	85e40004 	strbhi	r0, [r4, #4]!
    30ac:	00100000 	andseq	r0, r0, r0
    30b0:	7f020000 	svcvc	0x00020000
    30b4:	29b31914 	ldmibcs	r3!, {r2, r4, r8, fp, ip}
    30b8:	243f0000 	ldrtcs	r0, [pc], #-0	; 30c0 <__code_start__-0x4f40>
    30bc:	243b0000 	ldrtcs	r0, [fp], #-0
    30c0:	a7190000 	ldrge	r0, [r9, -r0]
    30c4:	65000029 	strvs	r0, [r0, #-41]	; 0xffffffd7
    30c8:	63000024 	movwvs	r0, #36	; 0x24
    30cc:	22000024 	andcs	r0, r0, #36, 0	; 0x24
    30d0:	000029bf 			; <UNDEFINED> instruction: 0x000029bf
    30d4:	000085e4 	andeq	r8, r0, r4, ror #11
    30d8:	00000004 	andeq	r0, r0, r4
    30dc:	0029c01b 	eoreq	ip, r9, fp, lsl r0
    30e0:	00247a00 	eoreq	r7, r4, r0, lsl #20
    30e4:	00247800 	eoreq	r7, r4, r0, lsl #16
	...
    30f0:	28422400 	stmdacs	r2, {sl, sp}^
    30f4:	20380000 	eorscs	r0, r8, r0
    30f8:	e5020000 	str	r0, [r2, #-0]
    30fc:	002f6b05 	eoreq	r6, pc, r5, lsl #22
    3100:	285b1c00 	ldmdacs	fp, {sl, fp, ip}^
    3104:	4f1c0000 	svcmi	0x001c0000
    3108:	1e000028 	cdpne	0, 0, cr0, cr0, cr8, {1}
    310c:	00002865 	andeq	r2, r0, r5, ror #16
    3110:	00002038 	andeq	r2, r0, r8, lsr r0
    3114:	00286625 	eoreq	r6, r8, r5, lsr #12
    3118:	28721800 	ldmdacs	r2!, {fp, ip}^
    311c:	86000000 	strhi	r0, [r0], -r0
    3120:	00020000 	andeq	r0, r2, r0
    3124:	00002098 	muleq	r0, r8, r0
    3128:	1909da02 	stmdbne	r9, {r1, r9, fp, ip, lr, pc}
    312c:	0000288b 	andeq	r2, r0, fp, lsl #17
    3130:	0000248f 	andeq	r2, r0, pc, lsl #9
    3134:	0000248d 	andeq	r2, r0, sp, lsl #9
    3138:	00287f1c 	eoreq	r7, r8, ip, lsl pc
    313c:	28fe1d00 	ldmcs	lr!, {r8, sl, fp, ip}^
    3140:	86000000 	strhi	r0, [r0], -r0
    3144:	00050000 	andeq	r0, r5, r0
    3148:	000020f8 	strdeq	r2, [r0], -r8
    314c:	6609ce02 	strvs	ip, [r9], -r2, lsl #28
    3150:	1c00002e 	stcne	0, cr0, [r0], {46}	; 0x2e
    3154:	0000290b 	andeq	r2, r0, fp, lsl #18
    3158:	00296618 	eoreq	r6, r9, r8, lsl r6
    315c:	00860000 	addeq	r0, r6, r0
    3160:	00000700 	andeq	r0, r0, r0, lsl #14
    3164:	02000021 	andeq	r0, r0, #33, 0	; 0x21
    3168:	7f1905b0 	svcvc	0x001905b0
    316c:	a5000029 	strge	r0, [r0, #-41]	; 0xffffffd7
    3170:	a3000024 	movwge	r0, #36	; 0x24
    3174:	1c000024 	stcne	0, cr0, [r0], {36}	; 0x24
    3178:	00002973 	andeq	r2, r0, r3, ror r9
    317c:	0029fa23 	eoreq	pc, r9, r3, lsr #20
    3180:	00860000 	addeq	r0, r6, r0
    3184:	00000900 	andeq	r0, r0, r0, lsl #18
    3188:	04000086 	streq	r0, [r0], #-134	; 0xffffff7a
    318c:	02000000 	andeq	r0, r0, #0, 0
    3190:	2dcc059d 	cfstr64cs	mvdx0, [ip, #628]	; 0x274
    3194:	071c0000 	ldreq	r0, [ip, -r0]
    3198:	1b00002a 	blne	3248 <__code_start__-0x4db8>
    319c:	00002a13 	andeq	r2, r0, r3, lsl sl
    31a0:	000024bc 			; <UNDEFINED> instruction: 0x000024bc
    31a4:	000024ba 			; <UNDEFINED> instruction: 0x000024ba
    31a8:	298b2000 	stmibcs	fp, {sp}
    31ac:	86040000 	strhi	r0, [r4], -r0
    31b0:	00040000 	andeq	r0, r4, r0
    31b4:	2deb0000 	stclcs	0, cr0, [fp]
    31b8:	8c1b0000 	ldchi	0, cr0, [fp], {-0}
    31bc:	d6000029 	strle	r0, [r0], -r9, lsr #32
    31c0:	d4000024 	strle	r0, [r0], #-36	; 0xffffffdc
    31c4:	00000024 	andeq	r0, r0, r4, lsr #32
    31c8:	00299a18 	eoreq	r9, r9, r8, lsl sl
    31cc:	00860800 	addeq	r0, r6, r0, lsl #16
    31d0:	28000200 	stmdacs	r0, {r9}
    31d4:	02000021 	andeq	r0, r0, #33, 0	; 0x21
    31d8:	b319059e 	tstlt	r9, #662700032	; 0x27800000
    31dc:	eb000029 	bl	3288 <__code_start__-0x4d78>
    31e0:	e9000024 	stmdb	r0, {r2, r5}
    31e4:	19000024 	stmdbne	r0, {r2, r5}
    31e8:	000029a7 	andeq	r2, r0, r7, lsr #19
    31ec:	00002502 	andeq	r2, r0, r2, lsl #10
    31f0:	00002500 	andeq	r2, r0, r0, lsl #10
    31f4:	00299a21 	eoreq	r9, r9, r1, lsr #20
    31f8:	00860800 	addeq	r0, r6, r0, lsl #16
    31fc:	08000400 	stmdaeq	r0, {sl}
    3200:	10000086 	andne	r0, r0, r6, lsl #1
    3204:	02000000 	andeq	r0, r0, #0, 0
    3208:	b319147f 	tstlt	r9, #2130706432	; 0x7f000000
    320c:	19000029 	stmdbne	r0, {r0, r3, r5}
    3210:	15000025 	strne	r0, [r0, #-37]	; 0xffffffdb
    3214:	19000025 	stmdbne	r0, {r0, r2, r5}
    3218:	000029a7 	andeq	r2, r0, r7, lsr #19
    321c:	0000253d 	andeq	r2, r0, sp, lsr r5
    3220:	0000253b 	andeq	r2, r0, fp, lsr r5
    3224:	0029bf22 	eoreq	fp, r9, r2, lsr #30
    3228:	00860800 	addeq	r0, r6, r0, lsl #16
    322c:	00000400 	andeq	r0, r0, r0, lsl #8
    3230:	29c01b00 	stmibcs	r0, {r8, r9, fp, ip}^
    3234:	25520000 	ldrbcs	r0, [r2, #-0]
    3238:	25500000 	ldrbcs	r0, [r0, #-0]
    323c:	00000000 	andeq	r0, r0, r0
    3240:	18000000 	stmdane	r0, {}	; <UNPREDICTABLE>
    3244:	000028ca 	andeq	r2, r0, sl, asr #17
    3248:	00008618 	andeq	r8, r0, r8, lsl r6
    324c:	20c80002 	sbccs	r0, r8, r2
    3250:	cf020000 	svcgt	0x00020000
    3254:	28d71c09 	ldmcs	r7, {r0, r3, sl, fp, ip}^
    3258:	32180000 	andscc	r0, r8, #0, 0
    325c:	18000029 	stmdane	r0, {r0, r3, r5}
    3260:	04000086 	streq	r0, [r0], #-134	; 0xffffff7a
    3264:	0020d000 	eoreq	sp, r0, r0
    3268:	05b80200 	ldreq	r0, [r8, #512]!	; 0x200
    326c:	00294b19 	eoreq	r4, r9, r9, lsl fp
    3270:	00256700 	eoreq	r6, r5, r0, lsl #14
    3274:	00256500 	eoreq	r6, r5, r0, lsl #10
    3278:	293f1c00 	ldmdbcs	pc!, {sl, fp, ip}	; <UNPREDICTABLE>
    327c:	ce230000 	cdpgt	0, 2, cr0, cr3, cr0, {0}
    3280:	18000029 	stmdane	r0, {r0, r3, r5}
    3284:	06000086 	streq	r0, [r0], -r6, lsl #1
    3288:	00861800 	addeq	r1, r6, r0, lsl #16
    328c:	00000400 	andeq	r0, r0, r0, lsl #8
    3290:	05a50200 	streq	r0, [r5, #512]!	; 0x200
    3294:	00002ece 	andeq	r2, r0, lr, asr #29
    3298:	0029db1c 	eoreq	sp, r9, ip, lsl fp
    329c:	29e71b00 	stmibcs	r7!, {r8, r9, fp, ip}^
    32a0:	257f0000 	ldrbcs	r0, [pc, #-0]!	; 32a8 <__code_start__-0x4d58>
    32a4:	257d0000 	ldrbcs	r0, [sp, #-0]!
    32a8:	20000000 	andcs	r0, r0, r0
    32ac:	00002957 	andeq	r2, r0, r7, asr r9
    32b0:	0000861c 	andeq	r8, r0, ip, lsl r6
    32b4:	00000004 	andeq	r0, r0, r4
    32b8:	00002eed 	andeq	r2, r0, sp, ror #29
    32bc:	0029581b 	eoreq	r5, r9, fp, lsl r8
    32c0:	00259900 	eoreq	r9, r5, r0, lsl #18
    32c4:	00259700 	eoreq	r9, r5, r0, lsl #14
    32c8:	9a180000 	bls	6032d0 <__bss_end__+0x5f92e0>
    32cc:	20000029 	andcs	r0, r0, r9, lsr #32
    32d0:	02000086 	andeq	r0, r0, #134, 0	; 0x86
    32d4:	00214000 	eoreq	r4, r1, r0
    32d8:	05a60200 	streq	r0, [r6, #512]!	; 0x200
    32dc:	0029b319 	eoreq	fp, r9, r9, lsl r3
    32e0:	0025ae00 	eoreq	sl, r5, r0, lsl #28
    32e4:	0025ac00 	eoreq	sl, r5, r0, lsl #24
    32e8:	29a71900 	stmibcs	r7!, {r8, fp, ip}
    32ec:	25c60000 	strbcs	r0, [r6]
    32f0:	25c40000 	strbcs	r0, [r4]
    32f4:	9a210000 	bls	8432fc <__bss_end__+0x83930c>
    32f8:	20000029 	andcs	r0, r0, r9, lsr #32
    32fc:	04000086 	streq	r0, [r0], #-134	; 0xffffff7a
    3300:	00862000 	addeq	r2, r6, r0
    3304:	00001000 	andeq	r1, r0, r0
    3308:	147f0200 	ldrbtne	r0, [pc], #-512	; 3310 <__code_start__-0x4cf0>
    330c:	0029b319 	eoreq	fp, r9, r9, lsl r3
    3310:	0025dd00 	eoreq	sp, r5, r0, lsl #26
    3314:	0025d900 	eoreq	sp, r5, r0, lsl #18
    3318:	29a71900 	stmibcs	r7!, {r8, fp, ip}
    331c:	26030000 	strcs	r0, [r3], -r0
    3320:	26010000 	strcs	r0, [r1], -r0
    3324:	bf220000 	svclt	0x00220000
    3328:	20000029 	andcs	r0, r0, r9, lsr #32
    332c:	04000086 	streq	r0, [r0], #-134	; 0xffffff7a
    3330:	1b000000 	blne	3338 <__code_start__-0x4cc8>
    3334:	000029c0 	andeq	r2, r0, r0, asr #19
    3338:	00002618 	andeq	r2, r0, r8, lsl r6
    333c:	00002616 	andeq	r2, r0, r6, lsl r6
	...
    3348:	00284226 	eoreq	r4, r8, r6, lsr #4
    334c:	00215800 	eoreq	r5, r1, r0, lsl #16
    3350:	05e60200 	strbeq	r0, [r6, #512]!	; 0x200
    3354:	00285b1c 	eoreq	r5, r8, ip, lsl fp
    3358:	284f1c00 	stmdacs	pc, {sl, fp, ip}^	; <UNPREDICTABLE>
    335c:	651e0000 	ldrvs	r0, [lr, #-0]
    3360:	58000028 	stmdapl	r0, {r3, r5}
    3364:	25000021 	strcs	r0, [r0, #-33]	; 0xffffffdf
    3368:	00002866 	andeq	r2, r0, r6, ror #16
    336c:	00287218 	eoreq	r7, r8, r8, lsl r2
    3370:	00863c00 	addeq	r3, r6, r0, lsl #24
    3374:	b8000100 	stmdalt	r0, {r8}
    3378:	02000021 	andeq	r0, r0, #33, 0	; 0x21
    337c:	8b1909da 	blhi	645aec <__bss_end__+0x63bafc>
    3380:	2d000028 	stccs	0, cr0, [r0, #-160]	; 0xffffff60
    3384:	2b000026 	blcs	3424 <__code_start__-0x4bdc>
    3388:	1c000026 	stcne	0, cr0, [r0], {38}	; 0x26
    338c:	0000287f 	andeq	r2, r0, pc, ror r8
    3390:	0028fe1d 	eoreq	pc, r8, sp, lsl lr	; <UNPREDICTABLE>
    3394:	00863c00 	addeq	r3, r6, r0, lsl #24
    3398:	18000400 	stmdane	r0, {sl}
    339c:	02000022 	andeq	r0, r0, #34, 0	; 0x22
    33a0:	30b909ce 	adcscc	r0, r9, lr, asr #19
    33a4:	0b1c0000 	bleq	7033ac <__bss_end__+0x6f93bc>
    33a8:	18000029 	stmdane	r0, {r0, r3, r5}
    33ac:	00002966 	andeq	r2, r0, r6, ror #18
    33b0:	0000863c 	andeq	r8, r0, ip, lsr r6
    33b4:	22200006 	eorcs	r0, r0, #6, 0
    33b8:	b0020000 	andlt	r0, r2, r0
    33bc:	297f1905 	ldmdbcs	pc!, {r0, r2, r8, fp, ip}^	; <UNPREDICTABLE>
    33c0:	26430000 	strbcs	r0, [r3], -r0
    33c4:	26410000 	strbcs	r0, [r1], -r0
    33c8:	731c0000 	tstvc	ip, #0, 0
    33cc:	23000029 	movwcs	r0, #41	; 0x29
    33d0:	000029fa 	strdeq	r2, [r0], -sl
    33d4:	0000863c 	andeq	r8, r0, ip, lsr r6
    33d8:	863c0008 	ldrthi	r0, [ip], -r8
    33dc:	00040000 	andeq	r0, r4, r0
    33e0:	9d020000 	stcls	0, cr0, [r2, #-0]
    33e4:	00301f05 	eorseq	r1, r0, r5, lsl #30
    33e8:	2a071c00 	bcs	1ca3f0 <__bss_end__+0x1c0400>
    33ec:	131b0000 	tstne	fp, #0, 0
    33f0:	5a00002a 	bpl	34a0 <__code_start__-0x4b60>
    33f4:	58000026 	stmdapl	r0, {r1, r2, r5}
    33f8:	00000026 	andeq	r0, r0, r6, lsr #32
    33fc:	00298b20 	eoreq	r8, r9, r0, lsr #22
    3400:	00864000 	addeq	r4, r6, r0
    3404:	00000400 	andeq	r0, r0, r0, lsl #8
    3408:	00303e00 	eorseq	r3, r0, r0, lsl #28
    340c:	298c1b00 	stmibcs	ip, {r8, r9, fp, ip}
    3410:	26740000 	ldrbtcs	r0, [r4], -r0
    3414:	26720000 	ldrbtcs	r0, [r2], -r0
    3418:	18000000 	stmdane	r0, {}	; <UNPREDICTABLE>
    341c:	0000299a 	muleq	r0, sl, r9
    3420:	00008644 	andeq	r8, r0, r4, asr #12
    3424:	22480002 	subcs	r0, r8, #2, 0
    3428:	9e020000 	cdpls	0, 0, cr0, cr2, cr0, {0}
    342c:	29b31905 	ldmibcs	r3!, {r0, r2, r8, fp, ip}
    3430:	26890000 	strcs	r0, [r9], r0
    3434:	26870000 	strcs	r0, [r7], r0
    3438:	a7190000 	ldrge	r0, [r9, -r0]
    343c:	a0000029 	andge	r0, r0, r9, lsr #32
    3440:	9e000026 	cdpls	0, 0, cr0, cr0, cr6, {1}
    3444:	21000026 	tstcs	r0, r6, lsr #32
    3448:	0000299a 	muleq	r0, sl, r9
    344c:	00008644 	andeq	r8, r0, r4, asr #12
    3450:	86440004 	strbhi	r0, [r4], -r4
    3454:	00100000 	andseq	r0, r0, r0
    3458:	7f020000 	svcvc	0x00020000
    345c:	29b31914 	ldmibcs	r3!, {r2, r4, r8, fp, ip}
    3460:	26b70000 	ldrtcs	r0, [r7], r0
    3464:	26b30000 	ldrtcs	r0, [r3], r0
    3468:	a7190000 	ldrge	r0, [r9, -r0]
    346c:	db000029 	blle	3518 <__code_start__-0x4ae8>
    3470:	d9000026 	stmdble	r0, {r1, r2, r5}
    3474:	22000026 	andcs	r0, r0, #38, 0	; 0x26
    3478:	000029bf 			; <UNDEFINED> instruction: 0x000029bf
    347c:	00008644 	andeq	r8, r0, r4, asr #12
    3480:	00000004 	andeq	r0, r0, r4
    3484:	0029c01b 	eoreq	ip, r9, fp, lsl r0
    3488:	0026f000 	eoreq	pc, r6, r0
    348c:	0026ee00 	eoreq	lr, r6, r0, lsl #28
    3490:	00000000 	andeq	r0, r0, r0
    3494:	ca180000 	bgt	60349c <__bss_end__+0x5f94ac>
    3498:	54000028 	strpl	r0, [r0], #-40	; 0xffffffd8
    349c:	02000086 	andeq	r0, r0, #134, 0	; 0x86
    34a0:	0021e800 	eoreq	lr, r1, r0, lsl #16
    34a4:	09cf0200 	stmibeq	pc, {r9}^	; <UNPREDICTABLE>
    34a8:	0028d71c 	eoreq	sp, r8, ip, lsl r7
    34ac:	29321800 	ldmdbcs	r2!, {fp, ip}
    34b0:	86540000 	ldrbhi	r0, [r4], -r0
    34b4:	00040000 	andeq	r0, r4, r0
    34b8:	000021f0 	strdeq	r2, [r0], -r0
    34bc:	1905b802 	stmdbne	r5, {r1, fp, ip, sp, pc}
    34c0:	0000294b 	andeq	r2, r0, fp, asr #18
    34c4:	00002705 	andeq	r2, r0, r5, lsl #14
    34c8:	00002703 	andeq	r2, r0, r3, lsl #14
    34cc:	00293f1c 	eoreq	r3, r9, ip, lsl pc
    34d0:	29ce2300 	stmibcs	lr, {r8, r9, sp}^
    34d4:	86540000 	ldrbhi	r0, [r4], -r0
    34d8:	00060000 	andeq	r0, r6, r0
    34dc:	00008654 	andeq	r8, r0, r4, asr r6
    34e0:	00000004 	andeq	r0, r0, r4
    34e4:	2105a502 	tstcs	r5, r2, lsl #10
    34e8:	1c000031 	stcne	0, cr0, [r0], {49}	; 0x31
    34ec:	000029db 	ldrdeq	r2, [r0], -fp
    34f0:	0029e71b 	eoreq	lr, r9, fp, lsl r7
    34f4:	00271d00 	eoreq	r1, r7, r0, lsl #26
    34f8:	00271b00 	eoreq	r1, r7, r0, lsl #22
    34fc:	57200000 	strpl	r0, [r0, -r0]!
    3500:	58000029 	stmdapl	r0, {r0, r3, r5}
    3504:	04000086 	streq	r0, [r0], #-134	; 0xffffff7a
    3508:	40000000 	andmi	r0, r0, r0
    350c:	1b000031 	blne	35d8 <__code_start__-0x4a28>
    3510:	00002958 	andeq	r2, r0, r8, asr r9
    3514:	00002737 	andeq	r2, r0, r7, lsr r7
    3518:	00002735 	andeq	r2, r0, r5, lsr r7
    351c:	299a1800 	ldmibcs	sl, {fp, ip}
    3520:	865c0000 	ldrbhi	r0, [ip], -r0
    3524:	00020000 	andeq	r0, r2, r0
    3528:	00002260 	andeq	r2, r0, r0, ror #4
    352c:	1905a602 	stmdbne	r5, {r1, r9, sl, sp, pc}
    3530:	000029b3 			; <UNDEFINED> instruction: 0x000029b3
    3534:	0000274c 	andeq	r2, r0, ip, asr #14
    3538:	0000274a 	andeq	r2, r0, sl, asr #14
    353c:	0029a719 	eoreq	sl, r9, r9, lsl r7
    3540:	00276400 	eoreq	r6, r7, r0, lsl #8
    3544:	00276200 	eoreq	r6, r7, r0, lsl #4
    3548:	299a2100 	ldmibcs	sl, {r8, sp}
    354c:	865c0000 	ldrbhi	r0, [ip], -r0
    3550:	00040000 	andeq	r0, r4, r0
    3554:	0000865c 	andeq	r8, r0, ip, asr r6
    3558:	00000010 	andeq	r0, r0, r0, lsl r0
    355c:	19147f02 	ldmdbne	r4, {r1, r8, r9, sl, fp, ip, sp, lr}
    3560:	000029b3 			; <UNDEFINED> instruction: 0x000029b3
    3564:	0000277b 	andeq	r2, r0, fp, ror r7
    3568:	00002777 	andeq	r2, r0, r7, ror r7
    356c:	0029a719 	eoreq	sl, r9, r9, lsl r7
    3570:	0027a100 	eoreq	sl, r7, r0, lsl #2
    3574:	00279f00 	eoreq	r9, r7, r0, lsl #30
    3578:	29bf2200 	ldmibcs	pc!, {r9, sp}	; <UNPREDICTABLE>
    357c:	865c0000 	ldrbhi	r0, [ip], -r0
    3580:	00040000 	andeq	r0, r4, r0
    3584:	c01b0000 	andsgt	r0, fp, r0
    3588:	b6000029 	strlt	r0, [r0], -r9, lsr #32
    358c:	b4000027 	strlt	r0, [r0], #-39	; 0xffffffd9
    3590:	00000027 	andeq	r0, r0, r7, lsr #32
	...
    359c:	86882700 	strhi	r2, [r8], r0, lsl #14
    35a0:	18b10000 	ldmne	r1!, {}	; <UNPREDICTABLE>
    35a4:	8c270000 	stchi	0, cr0, [r7], #-0
    35a8:	b1000086 	smlabblt	r0, r6, r0, r0
    35ac:	00000018 	andeq	r0, r0, r8, lsl r0
    35b0:	0002a63d 	andeq	sl, r2, sp, lsr r6
    35b4:	0002a600 	andeq	sl, r2, r0, lsl #12
    35b8:	06850400 	streq	r0, [r5], r0, lsl #8
    35bc:	0002b33d 	andeq	fp, r2, sp, lsr r3
    35c0:	0002b300 	andeq	fp, r2, r0, lsl #6
    35c4:	077b0400 	ldrbeq	r0, [fp, -r0, lsl #8]!
    35c8:	00024f3d 	andeq	r4, r2, sp, lsr pc
    35cc:	00024f00 	andeq	r4, r2, r0, lsl #30
    35d0:	07f40400 	ldrbeq	r0, [r4, r0, lsl #8]!
    35d4:	00008d3d 	andeq	r8, r0, sp, lsr sp
    35d8:	00008d00 	andeq	r8, r0, r0, lsl #26
    35dc:	061d0600 	ldreq	r0, [sp], -r0, lsl #12
    35e0:	0003f200 	andeq	pc, r3, r0, lsl #4
    35e4:	f6000400 			; <UNDEFINED> instruction: 0xf6000400
    35e8:	04000004 	streq	r0, [r0], #-4
    35ec:	00041b01 	andeq	r1, r4, r1, lsl #22
    35f0:	038d0c00 	orreq	r0, sp, #0, 24
    35f4:	03d10000 	bicseq	r0, r1, #0, 0
    35f8:	87a40000 	strhi	r0, [r4, r0]!
    35fc:	011c0000 	tsteq	ip, r0
    3600:	13da0000 	bicsne	r0, sl, #0, 0
    3604:	04020000 	streq	r0, [r2], #-0
    3608:	746e6905 	strbtvc	r6, [lr], #-2309	; 0xfffff6fb
    360c:	07040300 	streq	r0, [r4, -r0, lsl #6]
    3610:	00000167 	andeq	r0, r0, r7, ror #2
    3614:	00002c04 	andeq	r2, r0, r4, lsl #24
    3618:	06010300 	streq	r0, [r1], -r0, lsl #6
    361c:	00000058 	andeq	r0, r0, r8, asr r0
    3620:	94050203 	strls	r0, [r5], #-515	; 0xfffffdfd
    3624:	03000001 	movweq	r0, #1
    3628:	017f0504 	cmneq	pc, r4, lsl #10
    362c:	08030000 	stmdaeq	r3, {}	; <UNPREDICTABLE>
    3630:	00017a05 	andeq	r7, r1, r5, lsl #20
    3634:	08010300 	stmdaeq	r1, {r8, r9}
    3638:	00000056 	andeq	r0, r0, r6, asr r0
    363c:	6d070203 	sfmvs	f0, 4, [r7, #-12]
    3640:	05000000 	streq	r0, [r0, #-0]
    3644:	00000269 	andeq	r0, r0, r9, ror #4
    3648:	6e193403 	cfmulsvs	mvf3, mvf9, mvf3
    364c:	03000000 	movweq	r0, #0
    3650:	01620704 	cmneq	r2, r4, lsl #14
    3654:	08030000 	stmdaeq	r3, {}	; <UNPREDICTABLE>
    3658:	00015d07 	andeq	r5, r1, r7, lsl #26
    365c:	00250600 	eoreq	r0, r5, r0, lsl #12
    3660:	008b0000 	addeq	r0, fp, r0
    3664:	25070000 	strcs	r0, [r7, #-0]
    3668:	00000000 	andeq	r0, r0, r0
    366c:	00018808 	andeq	r8, r1, r8, lsl #16
    3670:	0e1c0200 	cdpeq	2, 1, cr0, cr12, cr0, {0}
    3674:	00000097 	muleq	r0, r7, r0
    3678:	007c0409 	rsbseq	r0, ip, r9, lsl #8
    367c:	25060000 	strcs	r0, [r6, #-0]
    3680:	ac000000 	stcge	0, cr0, [r0], {-0}
    3684:	07000000 	streq	r0, [r0, -r0]
    3688:	000000ac 	andeq	r0, r0, ip, lsr #1
    368c:	b9040900 	stmdblt	r4, {r8, fp}
    3690:	03000000 	movweq	r0, #0
    3694:	005f0801 	subseq	r0, pc, r1, lsl #16
    3698:	b2040000 	andlt	r0, r4, #0, 0
    369c:	08000000 	stmdaeq	r0, {}	; <UNPREDICTABLE>
    36a0:	000006a2 	andeq	r0, r0, r2, lsr #13
    36a4:	ca0e2102 	bgt	38bab4 <__bss_end__+0x381ac4>
    36a8:	09000000 	stmdbeq	r0, {}	; <UNPREDICTABLE>
    36ac:	00009d04 	andeq	r9, r0, r4, lsl #26
    36b0:	01070a00 	tsteq	r7, r0, lsl #20
    36b4:	00000054 	andeq	r0, r0, r4, asr r0
    36b8:	0f0e0c04 	svceq	0x000e0c04
    36bc:	0b000001 	bleq	36c8 <__code_start__-0x4938>
    36c0:	000004d0 	ldrdeq	r0, [r0], -r0	; <UNPREDICTABLE>
    36c4:	03020b00 	movweq	r0, #11008	; 0x2b00
    36c8:	0b010000 	bleq	436d0 <__bss_end__+0x396e0>
    36cc:	00000342 	andeq	r0, r0, r2, asr #6
    36d0:	03510b04 	cmpeq	r1, #4, 22	; 0x1000
    36d4:	0b050000 	bleq	1436dc <__bss_end__+0x1396ec>
    36d8:	00000360 	andeq	r0, r0, r0, ror #6
    36dc:	036f0b06 	cmneq	pc, #6144	; 0x1800
    36e0:	0b070000 	bleq	1c36e8 <__bss_end__+0x1b96f8>
    36e4:	0000031d 	andeq	r0, r0, sp, lsl r3
    36e8:	037e0b03 	cmneq	lr, #3072	; 0xc00
    36ec:	00020000 	andeq	r0, r2, r0
    36f0:	0003bb05 	andeq	fp, r3, r5, lsl #22
    36f4:	03150400 	tsteq	r5, #0, 8
    36f8:	000000d0 	ldrdeq	r0, [r0], -r0	; <UNPREDICTABLE>
    36fc:	0002ed0c 	andeq	lr, r2, ip, lsl #26
    3700:	171d0100 	ldrne	r0, [sp, -r0, lsl #2]
    3704:	00000033 	andeq	r0, r0, r3, lsr r0
    3708:	2020001c 	eorcs	r0, r0, ip, lsl r0
    370c:	0002e30c 	andeq	lr, r2, ip, lsl #6
    3710:	171e0100 	ldrne	r0, [lr, -r0, lsl #2]
    3714:	00000033 	andeq	r0, r0, r3, lsr r0
    3718:	20200028 	eorcs	r0, r0, r8, lsr #32
    371c:	0003c70c 	andeq	ip, r3, ip, lsl #14
    3720:	171f0100 	ldrne	r0, [pc, -r0, lsl #2]
    3724:	00000033 	andeq	r0, r0, r3, lsr r0
    3728:	20200034 	eorcs	r0, r0, r4, lsr r0
    372c:	0003320d 	andeq	r3, r3, sp, lsl #4
    3730:	05550100 	ldrbeq	r0, [r5, #-256]	; 0xffffff00
    3734:	00000025 	andeq	r0, r0, r5, lsr #32
    3738:	0000888c 	andeq	r8, r0, ip, lsl #17
    373c:	00000034 	andeq	r0, r0, r4, lsr r0
    3740:	01bb9c01 			; <UNDEFINED> instruction: 0x01bb9c01
    3744:	700e0000 	andvc	r0, lr, r0
    3748:	01006e69 	tsteq	r0, r9, ror #28
    374c:	002c1855 	eoreq	r1, ip, r5, asr r8
    3750:	27d10000 	ldrbcs	r0, [r1, r0]
    3754:	27c90000 	strbcs	r0, [r9, r0]
    3758:	160f0000 	strne	r0, [pc], -r0
    375c:	01000004 	tsteq	r0, r4
    3760:	002c0e58 	eoreq	r0, ip, r8, asr lr
    3764:	28110000 	ldmdacs	r1, {}	; <UNPREDICTABLE>
    3768:	280b0000 	stmdacs	fp, {}	; <UNPREDICTABLE>
    376c:	6f100000 	svcvs	0x00100000
    3770:	01006666 	tsteq	r0, r6, ror #12
    3774:	002c0e59 	eoreq	r0, ip, r9, asr lr
    3778:	28510000 	ldmdacs	r1, {}^	; <UNPREDICTABLE>
    377c:	284f0000 	stmdacs	pc, {}^	; <UNPREDICTABLE>
    3780:	a8110000 	ldmdage	r1, {}	; <UNPREDICTABLE>
    3784:	dd000088 	stcle	0, cr0, [r0, #-544]	; 0xfffffde0
    3788:	12000003 	andne	r0, r0, #3, 0
    378c:	f30b5001 	vhadd.u8	d5, d11, d1
    3790:	25355001 	ldrcs	r5, [r5, #-1]!
    3794:	8080b423 	addhi	fp, r0, r3, lsr #8
    3798:	00000281 	andeq	r0, r0, r1, lsl #5
    379c:	0002f713 	andeq	pc, r2, r3, lsl r7	; <UNPREDICTABLE>
    37a0:	064e0100 	strbeq	r0, [lr], -r0, lsl #2
    37a4:	00008870 	andeq	r8, r0, r0, ror r8
    37a8:	0000001c 	andeq	r0, r0, ip, lsl r0
    37ac:	02169c01 	andseq	r9, r6, #256	; 0x100
    37b0:	700e0000 	andvc	r0, lr, r0
    37b4:	01006e69 	tsteq	r0, r9, ror #28
    37b8:	002c1a4e 	eoreq	r1, ip, lr, asr #20
    37bc:	286c0000 	stmdacs	ip!, {}^	; <UNPREDICTABLE>
    37c0:	28640000 	stmdacs	r4!, {}^	; <UNPREDICTABLE>
    37c4:	760e0000 	strvc	r0, [lr], -r0
    37c8:	284e0100 	stmdacs	lr, {r8}^
    37cc:	0000002c 	andeq	r0, r0, ip, lsr #32
    37d0:	000028ae 	andeq	r2, r0, lr, lsr #17
    37d4:	000028a6 	andeq	r2, r0, r6, lsr #17
    37d8:	00888014 	addeq	r8, r8, r4, lsl r0
    37dc:	00029e00 	andeq	r9, r2, r0, lsl #28
    37e0:	00020c00 	andeq	r0, r2, r0, lsl #24
    37e4:	50011200 	andpl	r1, r1, r0, lsl #4
    37e8:	5001f303 	andpl	pc, r1, r3, lsl #6
    37ec:	88881500 	stmhi	r8, {r8, sl, ip}
    37f0:	02570000 	subseq	r0, r7, #0, 0
    37f4:	13000000 	movwne	r0, #0
    37f8:	0000039a 	muleq	r0, sl, r3
    37fc:	60064901 	andvs	r4, r6, r1, lsl #18
    3800:	10000088 	andne	r0, r0, r8, lsl #1
    3804:	01000000 	mrseq	r0, (UNDEF: 0)
    3808:	0002579c 	muleq	r2, ip, r7
    380c:	69700e00 	ldmdbvs	r0!, {r9, sl, fp}^
    3810:	4901006e 	stmdbmi	r1, {r1, r2, r3, r5, r6}
    3814:	00002c1e 	andeq	r2, r0, lr, lsl ip
    3818:	0028ec00 	eoreq	lr, r8, r0, lsl #24
    381c:	0028e800 	eoreq	lr, r8, r0, lsl #16
    3820:	886c1100 	stmdahi	ip!, {r8, ip}^
    3824:	03260000 			; <UNDEFINED> instruction: 0x03260000
    3828:	01120000 	tsteq	r2, r0
    382c:	01f30350 	mvnseq	r0, r0, asr r3
    3830:	51011250 	tstpl	r1, r0, asr r2
    3834:	00003001 	andeq	r3, r0, r1
    3838:	0003a913 	andeq	sl, r3, r3, lsl r9
    383c:	06420100 	strbeq	r0, [r2], -r0, lsl #2
    3840:	0000883c 	andeq	r8, r0, ip, lsr r8
    3844:	00000024 	andeq	r0, r0, r4, lsr #32
    3848:	029e9c01 	addseq	r9, lr, #256	; 0x100
    384c:	700e0000 	andvc	r0, lr, r0
    3850:	01006e69 	tsteq	r0, r9, ror #28
    3854:	002c1c42 	eoreq	r1, ip, r2, asr #24
    3858:	29110000 	ldmdbcs	r1, {}	; <UNPREDICTABLE>
    385c:	290d0000 	stmdbcs	sp, {}	; <UNPREDICTABLE>
    3860:	58110000 	ldmdapl	r1, {}	; <UNPREDICTABLE>
    3864:	e9000088 	stmdb	r0, {r3, r7}
    3868:	12000003 	andne	r0, r0, #3, 0
    386c:	0c055001 	stceq	0, cr5, [r5], {1}
    3870:	20200028 	eorcs	r0, r0, r8, lsr #32
    3874:	05510112 	ldrbeq	r0, [r1, #-274]	; 0xfffffeee
    3878:	5001f331 	andpl	pc, r1, r1, lsr r3	; <UNPREDICTABLE>
    387c:	13000024 	movwne	r0, #36	; 0x24
    3880:	000004f2 	strdeq	r0, [r0], -r2
    3884:	18063b01 	stmdane	r6, {r0, r8, r9, fp, ip, sp}
    3888:	24000088 	strcs	r0, [r0], #-136	; 0xffffff78
    388c:	01000000 	mrseq	r0, (UNDEF: 0)
    3890:	0002e59c 	muleq	r2, ip, r5
    3894:	69700e00 	ldmdbvs	r0!, {r9, sl, fp}^
    3898:	3b01006e 	blcc	43a58 <__bss_end__+0x39a68>
    389c:	00002c1b 	andeq	r2, r0, fp, lsl ip
    38a0:	00293600 	eoreq	r3, r9, r0, lsl #12
    38a4:	00293200 	eoreq	r3, r9, r0, lsl #4
    38a8:	88341100 	ldmdahi	r4!, {r8, ip}
    38ac:	03e90000 	mvneq	r0, #0, 0
    38b0:	01120000 	tsteq	r2, r0
    38b4:	1c0c0550 	cfstr32ne	mvfx0, [ip], {80}	; 0x50
    38b8:	12202000 	eorne	r2, r0, #0, 0
    38bc:	31055101 	tstcc	r5, r1, lsl #2
    38c0:	245001f3 	ldrbcs	r0, [r0], #-499	; 0xfffffe0d
    38c4:	8d130000 	ldchi	0, cr0, [r3, #-0]
    38c8:	01000000 	mrseq	r0, (UNDEF: 0)
    38cc:	88080636 	stmdahi	r8, {r1, r2, r4, r5, r9, sl}
    38d0:	00100000 	andseq	r0, r0, r0
    38d4:	9c010000 	stcls	0, cr0, [r1], {-0}
    38d8:	00000326 	andeq	r0, r0, r6, lsr #6
    38dc:	6e69700e 	cdpvs	0, 6, cr7, cr9, cr14, {0}
    38e0:	1f360100 	svcne	0x00360100
    38e4:	0000002c 	andeq	r0, r0, ip, lsr #32
    38e8:	0000295b 	andeq	r2, r0, fp, asr r9
    38ec:	00002957 	andeq	r2, r0, r7, asr r9
    38f0:	00881411 	addeq	r1, r8, r1, lsl r4
    38f4:	00032600 	andeq	r2, r3, r0, lsl #12
    38f8:	50011200 	andpl	r1, r1, r0, lsl #4
    38fc:	5001f303 	andpl	pc, r1, r3, lsl #6
    3900:	01510112 	cmpeq	r1, r2, lsl r1
    3904:	13000031 	movwne	r0, #49	; 0x31
    3908:	000004e0 	andeq	r0, r0, r0, ror #9
    390c:	a4062801 	strge	r2, [r6], #-2049	; 0xfffff7ff
    3910:	64000087 	strvs	r0, [r0], #-135	; 0xffffff79
    3914:	01000000 	mrseq	r0, (UNDEF: 0)
    3918:	0003c19c 	muleq	r3, ip, r1
    391c:	69700e00 	ldmdbvs	r0!, {r9, sl, fp}^
    3920:	2801006e 	stmdacs	r1, {r1, r2, r3, r5, r6}
    3924:	00002c21 	andeq	r2, r0, r1, lsr #24
    3928:	00298000 	eoreq	r8, r9, r0
    392c:	00297c00 	eoreq	r7, r9, r0, lsl #24
    3930:	03b61600 			; <UNDEFINED> instruction: 0x03b61600
    3934:	28010000 	stmdacs	r1, {}	; <UNPREDICTABLE>
    3938:	00010f32 	andeq	r0, r1, r2, lsr pc
    393c:	0029a500 	eoreq	sl, r9, r0, lsl #10
    3940:	0029a100 	eoreq	sl, r9, r0, lsl #2
    3944:	666f1000 	strbtvs	r1, [pc], -r0
    3948:	2d010066 	stccs	0, cr0, [r1, #-408]	; 0xfffffe68
    394c:	00002c0e 	andeq	r2, r0, lr, lsl #24
    3950:	0029c800 	eoreq	ip, r9, r0, lsl #16
    3954:	0029c600 	eoreq	ip, r9, r0, lsl #12
    3958:	00671000 	rsbeq	r1, r7, r0
    395c:	2c0e2e01 	stccs	14, cr2, [lr], {1}
    3960:	dd000000 	stcle	0, cr0, [r0, #-0]
    3964:	db000029 	blle	3a10 <__code_start__-0x45f0>
    3968:	10000029 	andne	r0, r0, r9, lsr #32
    396c:	30010076 	andcc	r0, r1, r6, ror r0
    3970:	00002c0e 	andeq	r2, r0, lr, lsl #24
    3974:	0029f800 	eoreq	pc, r9, r0, lsl #16
    3978:	0029f000 	eoreq	pc, r9, r0
    397c:	87ec1400 	strbhi	r1, [ip, r0, lsl #8]!
    3980:	03dd0000 	bicseq	r0, sp, #0, 0
    3984:	03b00000 	movseq	r0, #0, 0
    3988:	01120000 	tsteq	r2, r0
    398c:	00760250 	rsbseq	r0, r6, r0, asr r2
    3990:	88001100 	stmdahi	r0, {r8, ip}
    3994:	03e90000 	mvneq	r0, #0, 0
    3998:	01120000 	tsteq	r2, r0
    399c:	00760250 	rsbseq	r0, r6, r0, asr r2
    39a0:	13170000 	tstne	r7, #0, 0
    39a4:	02000003 	andeq	r0, r0, #3, 0
    39a8:	006218b3 	strhteq	r1, [r2], #-131	; 0xffffff7d
    39ac:	dd030000 	stcle	0, cr0, [r3, #-0]
    39b0:	18000003 	stmdane	r0, {r0, r1}
    39b4:	b3020078 	movwlt	r0, #8312	; 0x2078
    39b8:	0000622b 	andeq	r6, r0, fp, lsr #4
    39bc:	3c190000 	ldccc	0, cr0, [r9], {-0}
    39c0:	3c000003 	stccc	0, cr0, [r0], {3}
    39c4:	02000003 	andeq	r0, r0, #3, 0
    39c8:	2c190ac4 			; <UNDEFINED> instruction: 0x2c190ac4
    39cc:	2c000003 	stccs	0, cr0, [r0], {3}
    39d0:	02000003 	andeq	r0, r0, #3, 0
    39d4:	7a0006af 	bvc	5498 <__code_start__-0x2b68>
    39d8:	04000007 	streq	r0, [r0], #-7
    39dc:	00068100 	andeq	r8, r6, r0, lsl #2
    39e0:	1b010400 	blne	449e8 <__bss_end__+0x3a9f8>
    39e4:	0c000004 	stceq	0, cr0, [r0], {4}
    39e8:	00000520 	andeq	r0, r0, r0, lsr #10
    39ec:	000003d1 	ldrdeq	r0, [r0], -r1
    39f0:	000088c0 	andeq	r8, r0, r0, asr #17
    39f4:	00000330 	andeq	r0, r0, r0, lsr r3
    39f8:	000015c3 	andeq	r1, r0, r3, asr #11
    39fc:	69050402 	stmdbvs	r5, {r1, sl}
    3a00:	0300746e 	movweq	r7, #1134	; 0x46e
    3a04:	01670704 	cmneq	r7, r4, lsl #14
    3a08:	01030000 	mrseq	r0, (UNDEF: 3)
    3a0c:	00005806 	andeq	r5, r0, r6, lsl #16
    3a10:	05020300 	streq	r0, [r2, #-768]	; 0xfffffd00
    3a14:	00000194 	muleq	r0, r4, r1
    3a18:	7f050403 	svcvc	0x00050403
    3a1c:	03000001 	movweq	r0, #1
    3a20:	017a0508 	cmneq	sl, r8, lsl #10
    3a24:	01030000 	mrseq	r0, (UNDEF: 3)
    3a28:	00005608 	andeq	r5, r0, r8, lsl #12
    3a2c:	07020300 	streq	r0, [r2, -r0, lsl #6]
    3a30:	0000006d 	andeq	r0, r0, sp, rrx
    3a34:	62070403 	andvs	r0, r7, #50331648	; 0x3000000
    3a38:	03000001 	movweq	r0, #1
    3a3c:	015d0708 	cmpeq	sp, r8, lsl #14
    3a40:	25040000 	strcs	r0, [r4, #-0]
    3a44:	7a000000 	bvc	3a4c <__code_start__-0x45b4>
    3a48:	05000000 	streq	r0, [r0, #-0]
    3a4c:	00000025 	andeq	r0, r0, r5, lsr #32
    3a50:	01880600 	orreq	r0, r8, r0, lsl #12
    3a54:	1c020000 	stcne	0, cr0, [r2], {-0}
    3a58:	0000860e 	andeq	r8, r0, lr, lsl #12
    3a5c:	6b040700 	blvs	105664 <__bss_end__+0xfb674>
    3a60:	04000000 	streq	r0, [r0], #-0
    3a64:	00000025 	andeq	r0, r0, r5, lsr #32
    3a68:	0000009b 	muleq	r0, fp, r0
    3a6c:	00009b05 	andeq	r9, r0, r5, lsl #22
    3a70:	04070000 	streq	r0, [r7], #-0
    3a74:	000000a8 	andeq	r0, r0, r8, lsr #1
    3a78:	5f080103 	svcpl	0x00080103
    3a7c:	08000000 	stmdaeq	r0, {}	; <UNPREDICTABLE>
    3a80:	000000a1 	andeq	r0, r0, r1, lsr #1
    3a84:	0006a206 	andeq	sl, r6, r6, lsl #4
    3a88:	0e210200 	cdpeq	2, 2, cr0, cr1, cr0, {0}
    3a8c:	000000b9 	strheq	r0, [r0], -r9
    3a90:	008c0407 	addeq	r0, ip, r7, lsl #8
    3a94:	ea060000 	b	183a9c <__bss_end__+0x179aac>
    3a98:	01000005 	tsteq	r0, r5
    3a9c:	00a10d04 	adceq	r0, r1, r4, lsl #26
    3aa0:	93090000 	movwls	r0, #36864	; 0x9000
    3aa4:	01000005 	tsteq	r0, r5
    3aa8:	00250c07 	eoreq	r0, r5, r7, lsl #24
    3aac:	03050000 	movweq	r0, #20480	; 0x5000
    3ab0:	00009bdc 	ldrdeq	r9, [r0], -ip
    3ab4:	0005bf09 	andeq	fp, r5, r9, lsl #30
    3ab8:	110a0100 	mrsne	r0, (UNDEF: 26)
    3abc:	0000002c 	andeq	r0, r0, ip, lsr #32
    3ac0:	9be80305 	blls	ffa046dc <__bss_end__+0xff9fa6ec>
    3ac4:	e1090000 	mrs	r0, (UNDEF: 9)
    3ac8:	01000005 	tsteq	r0, r5
    3acc:	002c110b 	eoreq	r1, ip, fp, lsl #2
    3ad0:	03050000 	movweq	r0, #20480	; 0x5000
    3ad4:	00009be0 	andeq	r9, r0, r0, ror #23
    3ad8:	00054209 	andeq	r4, r5, r9, lsl #4
    3adc:	110c0100 	mrsne	r0, (UNDEF: 28)
    3ae0:	0000002c 	andeq	r0, r0, ip, lsr #32
    3ae4:	9be40305 	blls	ff904700 <__bss_end__+0xff8fa710>
    3ae8:	08030000 	stmdaeq	r3, {}	; <UNPREDICTABLE>
    3aec:	00057f04 	andeq	r7, r5, r4, lsl #30
    3af0:	0b040a00 	bleq	1062f8 <__bss_end__+0xfc308>
    3af4:	000005d9 	ldrdeq	r0, [r0], -r9
    3af8:	1a078901 	bne	1e5f04 <__bss_end__+0x1dbf14>
    3afc:	e0000001 	and	r0, r0, r1
    3b00:	1000008b 	andne	r0, r0, fp, lsl #1
    3b04:	01000000 	mrseq	r0, (UNDEF: 0)
    3b08:	053a0b9c 	ldreq	r0, [sl, #-2972]!	; 0xfffff464
    3b0c:	80010000 	andhi	r0, r1, r0
    3b10:	00011a07 	andeq	r1, r1, r7, lsl #20
    3b14:	008bd000 	addeq	sp, fp, r0
    3b18:	00001000 	andeq	r1, r0, r0
    3b1c:	0b9c0100 	bleq	fe703f24 <__bss_end__+0xfe6f9f34>
    3b20:	000005b7 			; <UNDEFINED> instruction: 0x000005b7
    3b24:	1a077c01 	bne	1e2b30 <__bss_end__+0x1d8b40>
    3b28:	c0000001 	andgt	r0, r0, r1
    3b2c:	1000008b 	andne	r0, r0, fp, lsl #1
    3b30:	01000000 	mrseq	r0, (UNDEF: 0)
    3b34:	05300c9c 	ldreq	r0, [r0, #-3228]!	; 0xfffff364
    3b38:	78010000 	stmdavc	r1, {}	; <UNPREDICTABLE>
    3b3c:	008bac06 	addeq	sl, fp, r6, lsl #24
    3b40:	00001400 	andeq	r1, r0, r0, lsl #8
    3b44:	0d9c0100 	ldfeqs	f0, [ip]
    3b48:	000002a6 	andeq	r0, r0, r6, lsr #5
    3b4c:	80066901 	andhi	r6, r6, r1, lsl #18
    3b50:	2c00008b 	stccs	0, cr0, [r0], {139}	; 0x8b
    3b54:	01000000 	mrseq	r0, (UNDEF: 0)
    3b58:	0001989c 	muleq	r1, ip, r8
    3b5c:	8ba00e00 	blhi	fe807364 <__bss_end__+0xfe7fd374>
    3b60:	01980000 	orrseq	r0, r8, r0
    3b64:	010f0000 	mrseq	r0, CPSR
    3b68:	48400351 	stmdami	r0, {r0, r4, r6, r8, r9}^
    3b6c:	0d000024 	stceq	0, cr0, [r0, #-144]	; 0xffffff70
    3b70:	00000509 	andeq	r0, r0, r9, lsl #10
    3b74:	08065601 	stmdaeq	r6, {r0, r9, sl, ip, lr}
    3b78:	7800008b 	stmdavc	r0, {r0, r1, r3, r7}
    3b7c:	01000000 	mrseq	r0, (UNDEF: 0)
    3b80:	0002669c 	muleq	r2, ip, r6
    3b84:	06061000 	streq	r1, [r6], -r0
    3b88:	56010000 	strpl	r0, [r1], -r0
    3b8c:	00002c26 	andeq	r2, r0, r6, lsr #24
    3b90:	002a3c00 	eoreq	r3, sl, r0, lsl #24
    3b94:	002a3400 	eoreq	r3, sl, r0, lsl #8
    3b98:	05531000 	ldrbeq	r1, [r3, #-0]
    3b9c:	56010000 	strpl	r0, [r1], -r0
    3ba0:	00002c36 	andeq	r2, r0, r6, lsr ip
    3ba4:	002a7a00 	eoreq	r7, sl, r0, lsl #20
    3ba8:	002a7600 	eoreq	r7, sl, r0, lsl #12
    3bac:	05861100 	streq	r1, [r6, #256]	; 0x100
    3bb0:	02760000 	rsbseq	r0, r6, #0, 0
    3bb4:	03050000 	movweq	r0, #20480	; 0x5000
    3bb8:	00009a48 	andeq	r9, r0, r8, asr #20
    3bbc:	0006e212 	andeq	lr, r6, r2, lsl r2
    3bc0:	008b2400 	addeq	r2, fp, r0, lsl #8
    3bc4:	2a680100 	bcs	1a03fcc <__bss_end__+0x19f9fdc>
    3bc8:	59010000 	stmdbpl	r1, {}	; <UNPREDICTABLE>
    3bcc:	00021a12 	andeq	r1, r2, r2, lsl sl
    3bd0:	06fd1300 	ldrbteq	r1, [sp], r0, lsl #6
    3bd4:	2a9d0000 	bcs	fe743bdc <__bss_end__+0xfe739bec>
    3bd8:	2a9b0000 	bcs	fe6c3be0 <__bss_end__+0xfe6b9bf0>
    3bdc:	f3130000 	vhadd.u16	d0, d3, d0
    3be0:	b3000006 	movwlt	r0, #6
    3be4:	b100002a 	tstlt	r0, sl, lsr #32
    3be8:	1400002a 	strne	r0, [r0], #-42	; 0xffffffd6
    3bec:	00002a68 	andeq	r2, r0, r8, ror #20
    3bf0:	8b4c1500 	blhi	1308ff8 <__bss_end__+0x12ff008>
    3bf4:	07590000 	ldrbeq	r0, [r9, -r0]
    3bf8:	68160000 	ldmdavs	r6, {}	; <UNPREDICTABLE>
    3bfc:	6500008b 	strvs	r0, [r0, #-139]	; 0xffffff75
    3c00:	5c000007 	stcpl	0, cr0, [r0], {7}
    3c04:	0f000002 	svceq	0x00000002
    3c08:	03055001 	movweq	r5, #20481	; 0x5001
    3c0c:	000099ec 	andeq	r9, r0, ip, ror #19
    3c10:	0551010f 	ldrbeq	r0, [r1, #-271]	; 0xfffffef1
    3c14:	00986c03 	addseq	r6, r8, r3, lsl #24
    3c18:	52010f00 	andpl	r0, r1, #0, 30
    3c1c:	9a480305 	bls	1204838 <__bss_end__+0x11fa848>
    3c20:	010f0000 	mrseq	r0, CPSR
    3c24:	57080253 	smlsdpl	r8, r3, r2, r0
    3c28:	007d020f 	rsbseq	r0, sp, pc, lsl #4
    3c2c:	9a200305 	bls	804848 <__bss_end__+0x7fa858>
    3c30:	15000000 	strne	r0, [r0, #-0]
    3c34:	00008b6c 	andeq	r8, r0, ip, ror #22
    3c38:	00000771 	andeq	r0, r0, r1, ror r7
    3c3c:	00a81700 	adceq	r1, r8, r0, lsl #14
    3c40:	02760000 	rsbseq	r0, r6, #0, 0
    3c44:	2c180000 	ldccs	0, cr0, [r8], {-0}
    3c48:	16000000 	strne	r0, [r0], -r0
    3c4c:	02660800 	rsbeq	r0, r6, #0, 16
    3c50:	a7190000 	ldrge	r0, [r9, -r0]
    3c54:	01000005 	tsteq	r0, r5
    3c58:	011a0745 	tsteq	sl, r5, asr #14
    3c5c:	89d00000 	ldmibhi	r0, {}^	; <UNPREDICTABLE>
    3c60:	01380000 	teqeq	r8, r0
    3c64:	9c010000 	stcls	0, cr0, [r1], {-0}
    3c68:	000004c6 	andeq	r0, r0, r6, asr #9
    3c6c:	0005d210 	andeq	sp, r5, r0, lsl r2
    3c70:	20450100 	subcs	r0, r5, r0, lsl #2
    3c74:	0000002c 	andeq	r0, r0, ip, lsr #32
    3c78:	00002ae2 	andeq	r2, r0, r2, ror #21
    3c7c:	00002ac6 	andeq	r2, r0, r6, asr #21
    3c80:	00055e10 	andeq	r5, r5, r0, lsl lr
    3c84:	31450100 	mrscc	r0, (UNDEF: 85)
    3c88:	0000002c 	andeq	r0, r0, ip, lsr #32
    3c8c:	00002bb7 			; <UNDEFINED> instruction: 0x00002bb7
    3c90:	00002b99 	muleq	r0, r9, fp
    3c94:	00058611 	andeq	r8, r5, r1, lsl r6
    3c98:	0004d600 	andeq	sp, r4, r0, lsl #12
    3c9c:	30030500 	andcc	r0, r3, r0, lsl #10
    3ca0:	1a00009a 	bne	3f10 <__code_start__-0x40f0>
    3ca4:	00000717 	andeq	r0, r0, r7, lsl r7
    3ca8:	000089f0 	strdeq	r8, [r0], -r0
    3cac:	0089f003 	addeq	pc, r9, r3
    3cb0:	00000400 	andeq	r0, r0, r0, lsl #8
    3cb4:	05480100 	strbeq	r0, [r8, #-256]	; 0xffffff00
    3cb8:	000002f3 	strdeq	r0, [r0], -r3
    3cbc:	00072813 	andeq	r2, r7, r3, lsl r8
    3cc0:	002c7e00 	eoreq	r7, ip, r0, lsl #28
    3cc4:	002c7c00 	eoreq	r7, ip, r0, lsl #24
    3cc8:	331a0000 	tstcc	sl, #0, 0
    3ccc:	0c000007 	stceq	0, cr0, [r0], {7}
    3cd0:	0000008a 	andeq	r0, r0, sl, lsl #1
    3cd4:	00008a0c 	andeq	r8, r0, ip, lsl #20
    3cd8:	00000004 	andeq	r0, r0, r4
    3cdc:	27084b01 	strcs	r4, [r8, -r1, lsl #22]
    3ce0:	13000003 	movwne	r0, #3
    3ce4:	0000074e 	andeq	r0, r0, lr, asr #14
    3ce8:	00002c93 	muleq	r0, r3, ip
    3cec:	00002c91 	muleq	r0, r1, ip
    3cf0:	00074413 	andeq	r4, r7, r3, lsl r4
    3cf4:	002ca800 	eoreq	sl, ip, r0, lsl #16
    3cf8:	002ca600 	eoreq	sl, ip, r0, lsl #12
    3cfc:	e2120000 	ands	r0, r2, #0, 0
    3d00:	18000006 	stmdane	r0, {r1, r2}
    3d04:	0100008a 	smlabbeq	r0, sl, r0, r0
    3d08:	00002a50 	andeq	r2, r0, r0, asr sl
    3d0c:	c6104e01 	ldrgt	r4, [r0], -r1, lsl #28
    3d10:	13000003 	movwne	r0, #3
    3d14:	000006fd 	strdeq	r0, [r0], -sp
    3d18:	00002cc3 	andeq	r2, r0, r3, asr #25
    3d1c:	00002cbb 			; <UNDEFINED> instruction: 0x00002cbb
    3d20:	0006f313 	andeq	pc, r6, r3, lsl r3	; <UNPREDICTABLE>
    3d24:	002d0300 	eoreq	r0, sp, r0, lsl #6
    3d28:	002cfd00 	eoreq	pc, ip, r0, lsl #26
    3d2c:	2a501b00 	bcs	140a934 <__bss_end__+0x1400944>
    3d30:	171a0000 	ldrne	r0, [sl, -r0]
    3d34:	18000007 	stmdane	r0, {r0, r1, r2}
    3d38:	0400008a 	streq	r0, [r0], #-138	; 0xffffff76
    3d3c:	00008a18 	andeq	r8, r0, r8, lsl sl
    3d40:	00000004 	andeq	r0, r0, r4
    3d44:	82052401 	andhi	r2, r5, #16777216	; 0x1000000
    3d48:	13000003 	movwne	r0, #3
    3d4c:	00000728 	andeq	r0, r0, r8, lsr #14
    3d50:	00002d32 	andeq	r2, r0, r2, lsr sp
    3d54:	00002d30 	andeq	r2, r0, r0, lsr sp
    3d58:	8ad81600 	bhi	ff609560 <__bss_end__+0xff5ff570>
    3d5c:	07650000 	strbeq	r0, [r5, -r0]!
    3d60:	03bb0000 			; <UNDEFINED> instruction: 0x03bb0000
    3d64:	010f0000 	mrseq	r0, CPSR
    3d68:	7c030550 	cfstr32vc	mvfx0, [r3], {80}	; 0x50
    3d6c:	0f000098 	svceq	0x00000098
    3d70:	03055101 	movweq	r5, #20737	; 0x5101
    3d74:	0000986c 	andeq	r9, r0, ip, ror #16
    3d78:	0552010f 	ldrbeq	r0, [r2, #-271]	; 0xfffffef1
    3d7c:	009a4003 	addseq	r4, sl, r3
    3d80:	53010f00 	movwpl	r0, #7936	; 0x1f00
    3d84:	0f240802 	svceq	0x00240802
    3d88:	05007d02 	streq	r7, [r0, #-3330]	; 0xfffff2fe
    3d8c:	0099e003 	addseq	lr, r9, r3
    3d90:	dc150000 	ldcle	0, cr0, [r5], {-0}
    3d94:	7100008a 	smlabbvc	r0, sl, r0, r0
    3d98:	00000007 	andeq	r0, r0, r7
    3d9c:	8a3c1600 	bhi	f095a4 <__bss_end__+0xeff5b4>
    3da0:	04db0000 	ldrbeq	r0, [fp], #0
    3da4:	03db0000 	bicseq	r0, fp, #0, 0
    3da8:	010f0000 	mrseq	r0, CPSR
    3dac:	01f30350 	mvnseq	r0, r0, asr r3
    3db0:	60160050 	andsvs	r0, r6, r0, asr r0
    3db4:	6500008a 	strvs	r0, [r0, #-138]	; 0xffffff76
    3db8:	14000007 	strne	r0, [r0], #-7
    3dbc:	0f000004 	svceq	0x00000004
    3dc0:	03055001 	movweq	r5, #20481	; 0x5001
    3dc4:	0000987c 	andeq	r9, r0, ip, ror r8
    3dc8:	0551010f 	ldrbeq	r0, [r1, #-271]	; 0xfffffef1
    3dcc:	00986c03 	addseq	r6, r8, r3, lsl #24
    3dd0:	52010f00 	andpl	r0, r1, #0, 30
    3dd4:	9a300305 	bls	c049f0 <__bss_end__+0xbfaa00>
    3dd8:	010f0000 	mrseq	r0, CPSR
    3ddc:	46080253 			; <UNDEFINED> instruction: 0x46080253
    3de0:	007d020f 	rsbseq	r0, sp, pc, lsl #4
    3de4:	98900305 	ldmls	r0, {r0, r2, r8, r9}
    3de8:	15000000 	strne	r0, [r0, #-0]
    3dec:	00008a64 	andeq	r8, r0, r4, ror #20
    3df0:	00000771 	andeq	r0, r0, r1, ror r7
    3df4:	008a6815 	addeq	r6, sl, r5, lsl r8
    3df8:	00075900 	andeq	r5, r7, r0, lsl #18
    3dfc:	8a841600 	bhi	fe109604 <__bss_end__+0xfe0ff614>
    3e00:	07650000 	strbeq	r0, [r5, -r0]!
    3e04:	045f0000 	ldrbeq	r0, [pc], #-0	; 3e0c <__code_start__-0x41f4>
    3e08:	010f0000 	mrseq	r0, CPSR
    3e0c:	98030550 	stmdals	r3, {r4, r6, r8, sl}
    3e10:	0f000098 	svceq	0x00000098
    3e14:	03055101 	movweq	r5, #20737	; 0x5101
    3e18:	0000986c 	andeq	r9, r0, ip, ror #16
    3e1c:	0552010f 	ldrbeq	r0, [r2, #-271]	; 0xfffffef1
    3e20:	009a3003 	addseq	r3, sl, r3
    3e24:	53010f00 	movwpl	r0, #7936	; 0x1f00
    3e28:	0f470802 	svceq	0x00470802
    3e2c:	05007d02 	streq	r7, [r0, #-3330]	; 0xfffff2fe
    3e30:	0098d403 	addseq	sp, r8, r3, lsl #8
    3e34:	88150000 	ldmdahi	r5, {}	; <UNPREDICTABLE>
    3e38:	7100008a 	smlabbvc	r0, sl, r0, r0
    3e3c:	15000007 	strne	r0, [r0, #-7]
    3e40:	00008a8c 	andeq	r8, r0, ip, lsl #21
    3e44:	00000759 	andeq	r0, r0, r9, asr r7
    3e48:	008aa816 	addeq	sl, sl, r6, lsl r8
    3e4c:	00076500 	andeq	r6, r7, r0, lsl #10
    3e50:	0004aa00 	andeq	sl, r4, r0, lsl #20
    3e54:	50010f00 	andpl	r0, r1, r0, lsl #30
    3e58:	99980305 	ldmibls	r8, {r0, r2, r8, r9}
    3e5c:	010f0000 	mrseq	r0, CPSR
    3e60:	6c030551 	cfstr32vs	mvfx0, [r3], {81}	; 0x51
    3e64:	0f000098 	svceq	0x00000098
    3e68:	03055201 	movweq	r5, #20993	; 0x5201
    3e6c:	00009a30 	andeq	r9, r0, r0, lsr sl
    3e70:	0253010f 	subseq	r0, r3, #-1073741821	; 0xc0000003
    3e74:	020f4808 	andeq	r4, pc, #8, 16	; 0x80000
    3e78:	0305007d 	movweq	r0, #20605	; 0x507d
    3e7c:	000099cc 	andeq	r9, r0, ip, asr #19
    3e80:	8aac1500 	bhi	feb09288 <__bss_end__+0xfeaff298>
    3e84:	07710000 	ldrbeq	r0, [r1, -r0]!
    3e88:	b0150000 	andslt	r0, r5, r0
    3e8c:	db00008a 	blle	40bc <__code_start__-0x3f44>
    3e90:	15000004 	strne	r0, [r0, #-4]
    3e94:	00008ab8 			; <UNDEFINED> instruction: 0x00008ab8
    3e98:	000004db 	ldrdeq	r0, [r0], -fp
    3e9c:	00a81700 	adceq	r1, r8, r0, lsl #14
    3ea0:	04d60000 	ldrbeq	r0, [r6], #0
    3ea4:	2c180000 	ldccs	0, cr0, [r8], {-0}
    3ea8:	0f000000 	svceq	0x00000000
    3eac:	04c60800 	strbeq	r0, [r6], #2048	; 0x800
    3eb0:	b3190000 	tstlt	r9, #0, 0
    3eb4:	01000002 	tsteq	r0, r2
    3eb8:	011a0735 	tsteq	sl, r5, lsr r7
    3ebc:	88c00000 	stmiahi	r0, {}^	; <UNPREDICTABLE>
    3ec0:	01100000 	tsteq	r0, r0
    3ec4:	9c010000 	stcls	0, cr0, [r1], {-0}
    3ec8:	000006cd 	andeq	r0, r0, sp, asr #13
    3ecc:	0005d210 	andeq	sp, r5, r0, lsl r2
    3ed0:	18350100 	ldmdane	r5!, {r8}
    3ed4:	0000002c 	andeq	r0, r0, ip, lsr #32
    3ed8:	00002d53 	andeq	r2, r0, r3, asr sp
    3edc:	00002d45 	andeq	r2, r0, r5, asr #26
    3ee0:	00058611 	andeq	r8, r5, r1, lsl r6
    3ee4:	0006dd00 	andeq	sp, r6, r0, lsl #26
    3ee8:	28030500 	stmdacs	r3, {r8, sl}
    3eec:	1c00009a 	stcne	0, cr0, [r0], {154}	; 0x9a
    3ef0:	000005ca 	andeq	r0, r0, sl, asr #11
    3ef4:	2c0e3801 	stccs	8, cr3, [lr], {1}
    3ef8:	bb000000 	bllt	3f00 <__code_start__-0x4100>
    3efc:	b300002d 	movwlt	r0, #45	; 0x2d
    3f00:	1c00002d 	stcne	0, cr0, [r0], {45}	; 0x2d
    3f04:	000005f9 	strdeq	r0, [r0], -r9
    3f08:	1a0b3a01 	bne	2d2714 <__bss_end__+0x2c8724>
    3f0c:	03000001 	movweq	r0, #1
    3f10:	ff00002e 			; <UNDEFINED> instruction: 0xff00002e
    3f14:	1200002d 	andne	r0, r0, #45, 0	; 0x2d
    3f18:	000006e2 	andeq	r0, r0, r2, ror #13
    3f1c:	000088e0 	andeq	r8, r0, r0, ror #17
    3f20:	002a3802 	eoreq	r3, sl, r2, lsl #16
    3f24:	1f380100 	svcne	0x00380100
    3f28:	00000575 	andeq	r0, r0, r5, ror r5
    3f2c:	0006fd13 	andeq	pc, r6, r3, lsl sp	; <UNPREDICTABLE>
    3f30:	002e2300 	eoreq	r2, lr, r0, lsl #6
    3f34:	002e2100 	eoreq	r2, lr, r0, lsl #2
    3f38:	06f31300 	ldrbteq	r1, [r3], r0, lsl #6
    3f3c:	2e3b0000 	cdpcs	0, 3, cr0, cr11, cr0, {0}
    3f40:	2e370000 	cdpcs	0, 3, cr0, cr7, cr0, {0}
    3f44:	38140000 	ldmdacc	r4, {}	; <UNPREDICTABLE>
    3f48:	0000002a 	andeq	r0, r0, sl, lsr #32
    3f4c:	0007331a 	andeq	r3, r7, sl, lsl r3
    3f50:	0088f000 	addeq	pc, r8, r0
    3f54:	88f00000 	ldmhi	r0!, {}^	; <UNPREDICTABLE>
    3f58:	00000000 	andeq	r0, r0, r0
    3f5c:	39010000 	stmdbcc	r1, {}	; <UNPREDICTABLE>
    3f60:	0005a905 	andeq	sl, r5, r5, lsl #18
    3f64:	074e1300 	strbeq	r1, [lr, -r0, lsl #6]
    3f68:	2e5d0000 	cdpcs	0, 5, cr0, cr13, cr0, {0}
    3f6c:	2e5b0000 	cdpcs	0, 5, cr0, cr11, cr0, {0}
    3f70:	44130000 	ldrmi	r0, [r3], #-0
    3f74:	73000007 	movwvc	r0, #7
    3f78:	7100002e 	tstvc	r0, lr, lsr #32
    3f7c:	0000002e 	andeq	r0, r0, lr, lsr #32
    3f80:	00893416 	addeq	r3, r9, r6, lsl r4
    3f84:	00076500 	andeq	r6, r7, r0, lsl #10
    3f88:	0005e200 	andeq	lr, r5, r0, lsl #4
    3f8c:	50010f00 	andpl	r0, r1, r0, lsl #30
    3f90:	987c0305 	ldmdals	ip!, {r0, r2, r8, r9}^
    3f94:	010f0000 	mrseq	r0, CPSR
    3f98:	6c030551 	cfstr32vs	mvfx0, [r3], {81}	; 0x51
    3f9c:	0f000098 	svceq	0x00000098
    3fa0:	03055201 	movweq	r5, #20993	; 0x5201
    3fa4:	00009a28 	andeq	r9, r0, r8, lsr #20
    3fa8:	0253010f 	subseq	r0, r3, #-1073741821	; 0xc0000003
    3fac:	020f3608 	andeq	r3, pc, #8, 12	; 0x800000
    3fb0:	0305007d 	movweq	r0, #20605	; 0x507d
    3fb4:	00009890 	muleq	r0, r0, r8
    3fb8:	89381500 	ldmdbhi	r8!, {r8, sl, ip}
    3fbc:	07710000 	ldrbeq	r0, [r1, -r0]!
    3fc0:	3c150000 	ldccc	0, cr0, [r5], {-0}
    3fc4:	59000089 	stmdbpl	r0, {r0, r3, r7}
    3fc8:	16000007 	strne	r0, [r0], -r7
    3fcc:	00008958 	andeq	r8, r0, r8, asr r9
    3fd0:	00000765 	andeq	r0, r0, r5, ror #14
    3fd4:	0000062d 	andeq	r0, r0, sp, lsr #12
    3fd8:	0550010f 	ldrbeq	r0, [r0, #-271]	; 0xfffffef1
    3fdc:	00989803 	addseq	r9, r8, r3, lsl #16
    3fe0:	51010f00 	tstpl	r1, r0, lsl #30
    3fe4:	986c0305 	stmdals	ip!, {r0, r2, r8, r9}^
    3fe8:	010f0000 	mrseq	r0, CPSR
    3fec:	28030552 	stmdacs	r3, {r1, r4, r6, r8, sl}
    3ff0:	0f00009a 	svceq	0x0000009a
    3ff4:	08025301 	stmdaeq	r2, {r0, r8, r9, ip, lr}
    3ff8:	7d020f37 	stcvc	15, cr0, [r2, #-220]	; 0xffffff24
    3ffc:	d4030500 	strle	r0, [r3], #-1280	; 0xfffffb00
    4000:	00000098 	muleq	r0, r8, r0
    4004:	00895c15 	addeq	r5, r9, r5, lsl ip
    4008:	00077100 	andeq	r7, r7, r0, lsl #2
    400c:	89601500 	stmdbhi	r0!, {r8, sl, ip}^
    4010:	07590000 	ldrbeq	r0, [r9, -r0]
    4014:	7c160000 	ldcvc	0, cr0, [r6], {-0}
    4018:	65000089 	strvs	r0, [r0, #-137]	; 0xffffff77
    401c:	78000007 	stmdavc	r0, {r0, r1, r2}
    4020:	0f000006 	svceq	0x00000006
    4024:	03055001 	movweq	r5, #20481	; 0x5001
    4028:	000098dc 	ldrdeq	r9, [r0], -ip
    402c:	0551010f 	ldrbeq	r0, [r1, #-271]	; 0xfffffef1
    4030:	00986c03 	addseq	r6, r8, r3, lsl #24
    4034:	52010f00 	andpl	r0, r1, #0, 30
    4038:	9a280305 	bls	a04c54 <__bss_end__+0x9fac64>
    403c:	010f0000 	mrseq	r0, CPSR
    4040:	39080253 	stmdbcc	r8, {r0, r1, r4, r6, r9}
    4044:	007d020f 	rsbseq	r0, sp, pc, lsl #4
    4048:	99240305 	stmdbls	r4!, {r0, r2, r8, r9}
    404c:	15000000 	strne	r0, [r0, #-0]
    4050:	00008980 	andeq	r8, r0, r0, lsl #19
    4054:	00000771 	andeq	r0, r0, r1, ror r7
    4058:	00898415 	addeq	r8, r9, r5, lsl r4
    405c:	00075900 	andeq	r5, r7, r0, lsl #18
    4060:	89a01600 	stmibhi	r0!, {r9, sl, ip}
    4064:	07650000 	strbeq	r0, [r5, -r0]!
    4068:	06c30000 	strbeq	r0, [r3], r0
    406c:	010f0000 	mrseq	r0, CPSR
    4070:	3c030550 	cfstr32cc	mvfx0, [r3], {80}	; 0x50
    4074:	0f000099 	svceq	0x00000099
    4078:	03055101 	movweq	r5, #20737	; 0x5101
    407c:	0000986c 	andeq	r9, r0, ip, ror #16
    4080:	0552010f 	ldrbeq	r0, [r2, #-271]	; 0xfffffef1
    4084:	009a2803 	addseq	r2, sl, r3, lsl #16
    4088:	53010f00 	movwpl	r0, #7936	; 0x1f00
    408c:	0f3c0802 	svceq	0x003c0802
    4090:	05007d02 	streq	r7, [r0, #-3330]	; 0xfffff2fe
    4094:	00998003 	addseq	r8, r9, r3
    4098:	a4150000 	ldrge	r0, [r5], #-0
    409c:	71000089 	smlabbvc	r0, r9, r0, r0
    40a0:	00000007 	andeq	r0, r0, r7
    40a4:	0000a817 	andeq	sl, r0, r7, lsl r8
    40a8:	0006dd00 	andeq	sp, r6, r0, lsl #26
    40ac:	002c1800 	eoreq	r1, ip, r0, lsl #16
    40b0:	00070000 	andeq	r0, r7, r0
    40b4:	0006cd08 	andeq	ip, r6, r8, lsl #26
    40b8:	05771d00 	ldrbeq	r1, [r7, #-3328]!	; 0xfffff300
    40bc:	23010000 	movwcs	r0, #4096	; 0x1000
    40c0:	00002c18 	andeq	r2, r0, r8, lsl ip
    40c4:	07170300 	ldreq	r0, [r7, -r0, lsl #6]
    40c8:	781e0000 	ldmdavc	lr, {}	; <UNPREDICTABLE>
    40cc:	29230100 	stmdbcs	r3!, {r8}
    40d0:	0000002c 	andeq	r0, r0, ip, lsr #32
    40d4:	01006e1e 	tsteq	r0, lr, lsl lr
    40d8:	002c3523 	eoreq	r3, ip, r3, lsr #10
    40dc:	86110000 	ldrhi	r0, [r1], -r0
    40e0:	dd000005 	stcle	0, cr0, [r0, #-20]	; 0xffffffec
    40e4:	05000006 	streq	r0, [r0, #-6]
    40e8:	009a4003 	addseq	r4, sl, r3
    40ec:	4b1d0000 	blmi	7440f4 <__bss_end__+0x73a104>
    40f0:	01000005 	tsteq	r0, r5
    40f4:	002c1820 	eoreq	r1, ip, r0, lsr #16
    40f8:	33030000 	movwcc	r0, #12288	; 0x3000
    40fc:	1e000007 	cdpne	0, 0, cr0, cr0, cr7, {0}
    4100:	20010078 	andcs	r0, r1, r8, ror r0
    4104:	00002c29 	andeq	r2, r0, r9, lsr #24
    4108:	fe1d0000 	cdp2	0, 1, cr0, cr13, cr0, {0}
    410c:	01000004 	tsteq	r0, r4
    4110:	002c181a 	eoreq	r1, ip, sl, lsl r8
    4114:	59030000 	stmdbpl	r3, {}	; <UNPREDICTABLE>
    4118:	1e000007 	cdpne	0, 0, cr0, cr0, cr7, {0}
    411c:	1a010078 	bne	44304 <__bss_end__+0x3a314>
    4120:	00002c2c 	andeq	r2, r0, ip, lsr #24
    4124:	006e1e00 	rsbeq	r1, lr, r0, lsl #28
    4128:	2c381a01 			; <UNDEFINED> instruction: 0x2c381a01
    412c:	00000000 	andeq	r0, r0, r0
    4130:	0005681f 	andeq	r6, r5, pc, lsl r8
    4134:	00056800 	andeq	r6, r5, r0, lsl #16
    4138:	061d0200 	ldreq	r0, [sp], -r0, lsl #4
    413c:	00062b1f 	andeq	r2, r6, pc, lsl fp
    4140:	00062b00 	andeq	r2, r6, r0, lsl #22
    4144:	06280200 	strteq	r0, [r8], -r0, lsl #4
    4148:	00059a1f 	andeq	r9, r5, pc, lsl sl
    414c:	00059a00 	andeq	r9, r5, r0, lsl #20
    4150:	066e0200 	strbteq	r0, [lr], -r0, lsl #4
    4154:	00013a00 	andeq	r3, r1, r0, lsl #20
    4158:	5d000400 	cfstrspl	mvf0, [r0, #-0]
    415c:	04000008 	streq	r0, [r0], #-8
    4160:	00041b01 	andeq	r1, r4, r1, lsl #22
    4164:	06130c00 	ldreq	r0, [r3], -r0, lsl #24
    4168:	03d10000 	bicseq	r0, r1, #0, 0
    416c:	8bf00000 	blhi	ffc04174 <__bss_end__+0xffbfa184>
    4170:	00180000 	andseq	r0, r8, r0
    4174:	19110000 	ldmdbne	r1, {}	; <UNPREDICTABLE>
    4178:	04020000 	streq	r0, [r2], #-0
    417c:	746e6905 	strbtvc	r6, [lr], #-2309	; 0xfffff6fb
    4180:	060c0300 	streq	r0, [ip], -r0, lsl #6
    4184:	d1030000 	mrsle	r0, (UNDEF: 3)
    4188:	00003817 	andeq	r3, r0, r7, lsl r8
    418c:	07040400 	streq	r0, [r4, -r0, lsl #8]
    4190:	00000167 	andeq	r0, r0, r7, ror #2
    4194:	58060104 	stmdapl	r6, {r2, r8}
    4198:	04000000 	streq	r0, [r0], #-0
    419c:	01940502 	orrseq	r0, r4, r2, lsl #10
    41a0:	04040000 	streq	r0, [r4], #-0
    41a4:	00017f05 	andeq	r7, r1, r5, lsl #30
    41a8:	05080400 	streq	r0, [r8, #-1024]	; 0xfffffc00
    41ac:	0000017a 	andeq	r0, r0, sl, ror r1
    41b0:	56080104 	strpl	r0, [r8], -r4, lsl #2
    41b4:	04000000 	streq	r0, [r0], #-0
    41b8:	006d0702 	rsbeq	r0, sp, r2, lsl #14
    41bc:	04040000 	streq	r0, [r4], #-0
    41c0:	00016207 	andeq	r6, r1, r7, lsl #4
    41c4:	07080400 	streq	r0, [r8, -r0, lsl #8]
    41c8:	0000015d 	andeq	r0, r0, sp, asr r1
    41cc:	00002505 	andeq	r2, r0, r5, lsl #10
    41d0:	00008600 	andeq	r8, r0, r0, lsl #12
    41d4:	00250600 	eoreq	r0, r5, r0, lsl #12
    41d8:	07000000 	streq	r0, [r0, -r0]
    41dc:	00000188 	andeq	r0, r0, r8, lsl #3
    41e0:	920e1c02 	andls	r1, lr, #512	; 0x200
    41e4:	08000000 	stmdaeq	r0, {}	; <UNPREDICTABLE>
    41e8:	00007704 	andeq	r7, r0, r4, lsl #14
    41ec:	00250500 	eoreq	r0, r5, r0, lsl #10
    41f0:	00a70000 	adceq	r0, r7, r0
    41f4:	a7060000 	strge	r0, [r6, -r0]
    41f8:	00000000 	andeq	r0, r0, r0
    41fc:	00b40408 	adcseq	r0, r4, r8, lsl #8
    4200:	01040000 	mrseq	r0, (UNDEF: 4)
    4204:	00005f08 	andeq	r5, r0, r8, lsl #30
    4208:	00ad0900 	adceq	r0, sp, r0, lsl #18
    420c:	a2070000 	andge	r0, r7, #0, 0
    4210:	02000006 	andeq	r0, r0, #6, 0
    4214:	00c50e21 	sbceq	r0, r5, r1, lsr #28
    4218:	04080000 	streq	r0, [r8], #-0
    421c:	00000098 	muleq	r0, r8, r0
    4220:	00024f0a 	andeq	r4, r2, sl, lsl #30
    4224:	07040100 	streq	r0, [r4, -r0, lsl #2]
    4228:	00000135 	andeq	r0, r0, r5, lsr r1
    422c:	00008bf0 	strdeq	r8, [r0], -r0
    4230:	00000018 	andeq	r0, r0, r8, lsl r0
    4234:	01359c01 	teqeq	r5, r1, lsl #24
    4238:	5f0b0000 	svcpl	0x000b0000
    423c:	04010070 	streq	r0, [r1], #-112	; 0xffffff90
    4240:	00013514 	andeq	r3, r1, r4, lsl r5
    4244:	0b500100 	bleq	140464c <__bss_end__+0x13fa65c>
    4248:	04010063 	streq	r0, [r1], #-99	; 0xffffff9d
    424c:	0000251c 	andeq	r2, r0, ip, lsl r5
    4250:	0c510100 	ldfeqe	f0, [r1], {-0}
    4254:	0401006e 	streq	r0, [r1], #-110	; 0xffffff92
    4258:	00002c26 	andeq	r2, r0, r6, lsr #24
    425c:	002e8a00 	eoreq	r8, lr, r0, lsl #20
    4260:	002e8600 	eoreq	r8, lr, r0, lsl #12
    4264:	00700d00 	rsbseq	r0, r0, r0, lsl #26
    4268:	370b0501 	strcc	r0, [fp, -r1, lsl #10]
    426c:	b3000001 	movwlt	r0, #1
    4270:	ab00002e 	blge	4330 <__code_start__-0x3cd0>
    4274:	0d00002e 	stceq	0, cr0, [r0, #-184]	; 0xffffff48
    4278:	05010065 	streq	r0, [r1, #-101]	; 0xffffff9b
    427c:	00013714 	andeq	r3, r1, r4, lsl r7
    4280:	002eeb00 	eoreq	lr, lr, r0, lsl #22
    4284:	002ee900 	eoreq	lr, lr, r0, lsl #18
    4288:	040e0000 	streq	r0, [lr], #-0
    428c:	00ad0408 	adceq	r0, sp, r8, lsl #8
    4290:	9d000000 	stcls	0, cr0, [r0, #-0]
    4294:	04000001 	streq	r0, [r0], #-1
    4298:	00092900 	andeq	r2, r9, r0, lsl #18
    429c:	1b010400 	blne	452a4 <__bss_end__+0x3b2b4>
    42a0:	0c000004 	stceq	0, cr0, [r0], {4}
    42a4:	00000646 	andeq	r0, r0, r6, asr #12
    42a8:	000003d1 	ldrdeq	r0, [r0], -r1
    42ac:	00008c08 	andeq	r8, r0, r8, lsl #24
    42b0:	00000058 	andeq	r0, r0, r8, asr r0
    42b4:	00001a23 	andeq	r1, r0, r3, lsr #20
    42b8:	00063202 	andeq	r3, r6, r2, lsl #4
    42bc:	1b280200 	blne	a04ac4 <__bss_end__+0x9faad4>
    42c0:	00000031 	andeq	r0, r0, r1, lsr r0
    42c4:	00065603 	andeq	r5, r6, r3, lsl #12
    42c8:	00040400 	andeq	r0, r4, r0, lsl #8
    42cc:	00000048 	andeq	r0, r0, r8, asr #32
    42d0:	00064104 	andeq	r4, r6, r4, lsl #2
    42d4:	00004800 	andeq	r4, r0, r0, lsl #16
    42d8:	05000000 	streq	r0, [r0, #-0]
    42dc:	06580204 	ldrbeq	r0, [r8], -r4, lsl #4
    42e0:	63020000 	movwvs	r0, #8192	; 0x2000
    42e4:	00002518 	andeq	r2, r0, r8, lsl r5
    42e8:	05040600 	streq	r0, [r4, #-1536]	; 0xfffffa00
    42ec:	00746e69 	rsbseq	r6, r4, r9, ror #28
    42f0:	67070407 	strvs	r0, [r7, -r7, lsl #8]
    42f4:	07000001 	streq	r0, [r0, -r1]
    42f8:	00580601 	subseq	r0, r8, r1, lsl #12
    42fc:	02070000 	andeq	r0, r7, #0, 0
    4300:	00019405 	andeq	r9, r1, r5, lsl #8
    4304:	05040700 	streq	r0, [r4, #-1792]	; 0xfffff900
    4308:	0000017f 	andeq	r0, r0, pc, ror r1
    430c:	7a050807 	bvc	146330 <__bss_end__+0x13c340>
    4310:	07000001 	streq	r0, [r0, -r1]
    4314:	00560801 	subseq	r0, r6, r1, lsl #16
    4318:	02070000 	andeq	r0, r7, #0, 0
    431c:	00006d07 	andeq	r6, r0, r7, lsl #26
    4320:	07040700 	streq	r0, [r4, -r0, lsl #14]
    4324:	00000162 	andeq	r0, r0, r2, ror #2
    4328:	5d070807 	stcpl	8, cr0, [r7, #-28]	; 0xffffffe4
    432c:	08000001 	stmdaeq	r0, {r0}
    4330:	00000056 	andeq	r0, r0, r6, asr r0
    4334:	000000ab 	andeq	r0, r0, fp, lsr #1
    4338:	00005609 	andeq	r5, r0, r9, lsl #12
    433c:	880a0000 	stmdahi	sl, {}	; <UNPREDICTABLE>
    4340:	03000001 	movweq	r0, #1
    4344:	00b70e1c 	adcseq	r0, r7, ip, lsl lr
    4348:	040b0000 	streq	r0, [fp], #-0
    434c:	0000009c 	muleq	r0, ip, r0
    4350:	00005608 	andeq	r5, r0, r8, lsl #12
    4354:	0000cc00 	andeq	ip, r0, r0, lsl #24
    4358:	00cc0900 	sbceq	r0, ip, r0, lsl #18
    435c:	0b000000 	bleq	4364 <__code_start__-0x3c9c>
    4360:	0000d904 	andeq	sp, r0, r4, lsl #18
    4364:	08010700 	stmdaeq	r1, {r8, r9, sl}
    4368:	0000005f 	andeq	r0, r0, pc, asr r0
    436c:	0000d20c 	andeq	sp, r0, ip, lsl #4
    4370:	06a20a00 	strteq	r0, [r2], r0, lsl #20
    4374:	21030000 	mrscs	r0, (UNDEF: 3)
    4378:	0000ea0e 	andeq	lr, r0, lr, lsl #20
    437c:	bd040b00 	vstrlt	d0, [r4, #-0]
    4380:	0d000000 	stceq	0, cr0, [r0, #-0]
    4384:	0000062b 	andeq	r0, r0, fp, lsr #12
    4388:	56050601 	strpl	r0, [r5], -r1, lsl #12
    438c:	08000000 	stmdaeq	r0, {}	; <UNPREDICTABLE>
    4390:	5800008c 	stmdapl	r0, {r2, r3, r7}
    4394:	01000000 	mrseq	r0, (UNDEF: 0)
    4398:	0001839c 	muleq	r1, ip, r3
    439c:	6d660e00 	stclvs	14, cr0, [r6, #-0]
    43a0:	06010074 			; <UNDEFINED> instruction: 0x06010074
    43a4:	0000cc18 	andeq	ip, r0, r8, lsl ip
    43a8:	70910200 	addsvc	r0, r1, r0, lsl #4
    43ac:	7562100f 	strbvc	r1, [r2, #-15]!
    43b0:	08010066 	stmdaeq	r1, {r1, r2, r5, r6}
    43b4:	00018311 	andeq	r8, r1, r1, lsl r3
    43b8:	ec030500 	cfstr32	mvfx0, [r3], {-0}
    43bc:	1100009b 	swpne	r0, fp, [r0]	; <UNPREDICTABLE>
    43c0:	00000623 	andeq	r0, r0, r3, lsr #12
    43c4:	4a0d0901 	bmi	3467d0 <__bss_end__+0x33c7e0>
    43c8:	02000000 	andeq	r0, r0, #0, 0
    43cc:	73125c91 	tstvc	r2, #37120	; 0x9100
    43d0:	0c01007a 	stceq	0, cr0, [r1], {122}	; 0x7a
    43d4:	0000560d 	andeq	r5, r0, sp, lsl #12
    43d8:	002f0400 	eoreq	r0, pc, r0, lsl #8
    43dc:	002efe00 	eoreq	pc, lr, r0, lsl #28
    43e0:	8c301300 	ldchi	3, cr1, [r0], #-0
    43e4:	01940000 	orrseq	r0, r4, r0
    43e8:	01760000 	cmneq	r6, r0
    43ec:	01140000 	tsteq	r4, r0
    43f0:	00750250 	rsbseq	r0, r5, r0, asr r2
    43f4:	03510114 	cmpeq	r1, #5
    43f8:	1404000a 	strne	r0, [r4], #-10
    43fc:	91035201 	tstls	r3, r1, lsl #4
    4400:	01140648 	tsteq	r4, r8, asr #12
    4404:	4c910253 	lfmmi	f0, 4, [r1], {83}	; 0x53
    4408:	8c441500 	cfstr64hi	mvdx1, [r4], {-0}
    440c:	01140000 	tsteq	r4, r0
    4410:	00750250 	rsbseq	r0, r5, r0, asr r2
    4414:	d2160000 	andsle	r0, r6, #0, 0
    4418:	94000000 	strls	r0, [r0], #-0
    441c:	17000001 	strne	r0, [r0, -r1]
    4420:	0000005d 	andeq	r0, r0, sp, asr r0
    4424:	180003ff 	stmdane	r0, {r0, r1, r2, r3, r4, r5, r6, r7, r8, r9}
    4428:	00000628 	andeq	r0, r0, r8, lsr #12
    442c:	00000628 	andeq	r0, r0, r8, lsr #12
    4430:	00050205 	andeq	r0, r5, r5, lsl #4
    4434:	00000149 	andeq	r0, r0, r9, asr #2
    4438:	0a6b0004 	beq	1ac4450 <__bss_end__+0x1aba460>
    443c:	01040000 	mrseq	r0, (UNDEF: 4)
    4440:	0000041b 	andeq	r0, r0, fp, lsl r4
    4444:	00067e0c 	andeq	r7, r6, ip, lsl #28
    4448:	0003d100 	andeq	sp, r3, r0, lsl #2
    444c:	008c6000 	addeq	r6, ip, r0
    4450:	00003c00 	andeq	r3, r0, r0, lsl #24
    4454:	001b5400 	andseq	r5, fp, r0, lsl #8
    4458:	05040200 	streq	r0, [r4, #-512]	; 0xfffffe00
    445c:	00746e69 	rsbseq	r6, r4, r9, ror #28
    4460:	67070403 	strvs	r0, [r7, -r3, lsl #8]
    4464:	03000001 	movweq	r0, #1
    4468:	00580601 	subseq	r0, r8, r1, lsl #12
    446c:	02030000 	andeq	r0, r3, #0, 0
    4470:	00019405 	andeq	r9, r1, r5, lsl #8
    4474:	05040300 	streq	r0, [r4, #-768]	; 0xfffffd00
    4478:	0000017f 	andeq	r0, r0, pc, ror r1
    447c:	7a050803 	bvc	146490 <__bss_end__+0x13c4a0>
    4480:	03000001 	movweq	r0, #1
    4484:	00560801 	subseq	r0, r6, r1, lsl #16
    4488:	02030000 	andeq	r0, r3, #0, 0
    448c:	00006d07 	andeq	r6, r0, r7, lsl #26
    4490:	07040300 	streq	r0, [r4, -r0, lsl #6]
    4494:	00000162 	andeq	r0, r0, r2, ror #2
    4498:	5d070803 	stcpl	8, cr0, [r7, #-12]
    449c:	04000001 	streq	r0, [r0], #-1
    44a0:	00000025 	andeq	r0, r0, r5, lsr #32
    44a4:	0000007a 	andeq	r0, r0, sl, ror r0
    44a8:	00002505 	andeq	r2, r0, r5, lsl #10
    44ac:	88060000 	stmdahi	r6, {}	; <UNPREDICTABLE>
    44b0:	02000001 	andeq	r0, r0, #1, 0
    44b4:	00860e1c 	addeq	r0, r6, ip, lsl lr
    44b8:	04070000 	streq	r0, [r7], #-0
    44bc:	0000006b 	andeq	r0, r0, fp, rrx
    44c0:	00002504 	andeq	r2, r0, r4, lsl #10
    44c4:	00009b00 	andeq	r9, r0, r0, lsl #22
    44c8:	009b0500 	addseq	r0, fp, r0, lsl #10
    44cc:	07000000 	streq	r0, [r0, -r0]
    44d0:	0000a804 	andeq	sl, r0, r4, lsl #16
    44d4:	08010300 	stmdaeq	r1, {r8, r9}
    44d8:	0000005f 	andeq	r0, r0, pc, asr r0
    44dc:	0000a108 	andeq	sl, r0, r8, lsl #2
    44e0:	06a20600 	strteq	r0, [r2], r0, lsl #12
    44e4:	21020000 	mrscs	r0, (UNDEF: 2)
    44e8:	0000b90e 	andeq	fp, r0, lr, lsl #18
    44ec:	8c040700 	stchi	7, cr0, [r4], {-0}
    44f0:	09000000 	stmdbeq	r0, {}	; <UNPREDICTABLE>
    44f4:	0000007a 	andeq	r0, r0, sl, ror r0
    44f8:	05070601 	streq	r0, [r7, #-1537]	; 0xfffff9ff
    44fc:	009bd403 	addseq	sp, fp, r3, lsl #8
    4500:	06710a00 	ldrbteq	r0, [r1], -r0, lsl #20
    4504:	0b010000 	bleq	4450c <__bss_end__+0x3a51c>
    4508:	008c8c06 	addeq	r8, ip, r6, lsl #24
    450c:	00001000 	andeq	r1, r0, r0
    4510:	f19c0100 			; <UNDEFINED> instruction: 0xf19c0100
    4514:	0b000000 	bleq	451c <__code_start__-0x3ae4>
    4518:	01007066 	tsteq	r0, r6, rrx
    451c:	0086190b 	addeq	r1, r6, fp, lsl #18
    4520:	50010000 	andpl	r0, r1, r0
    4524:	05680c00 	strbeq	r0, [r8, #-3072]!	; 0xfffff400
    4528:	08010000 	stmdaeq	r1, {}	; <UNPREDICTABLE>
    452c:	008c7406 	addeq	r7, ip, r6, lsl #8
    4530:	00001800 	andeq	r1, r0, r0, lsl #16
    4534:	0d9c0100 	ldfeqs	f0, [ip]
    4538:	00000660 	andeq	r0, r0, r0, ror #12
    453c:	250c0301 	strcs	r0, [ip, #-769]	; 0xfffffcff
    4540:	60000000 	andvs	r0, r0, r0
    4544:	1400008c 	strne	r0, [r0], #-140	; 0xffffff74
    4548:	01000000 	mrseq	r0, (UNDEF: 0)
    454c:	0001409c 	muleq	r1, ip, r0
    4550:	00630e00 	rsbeq	r0, r3, r0, lsl #28
    4554:	25210301 	strcs	r0, [r1, #-769]!	; 0xfffffcff
    4558:	31000000 	mrscc	r0, (UNDEF: 0)
    455c:	2d00002f 	stccs	0, cr0, [r0, #-188]	; 0xffffff44
    4560:	0f00002f 	svceq	0x0000002f
    4564:	00008c6c 	andeq	r8, r0, ip, ror #24
    4568:	00000140 	andeq	r0, r0, r0, asr #2
    456c:	02500110 	subseq	r0, r0, #4
    4570:	00000074 	andeq	r0, r0, r4, ror r0
    4574:	00068f11 	andeq	r8, r6, r1, lsl pc
    4578:	00068f00 	andeq	r8, r6, r0, lsl #30
    457c:	06420200 	strbeq	r0, [r2], -r0, lsl #4
    4580:	0000f300 	andeq	pc, r0, r0, lsl #6
    4584:	7a000400 	bvc	558c <__code_start__-0x2a74>
    4588:	0400000b 	streq	r0, [r0], #-11
    458c:	00041b01 	andeq	r1, r4, r1, lsl #22
    4590:	06a70c00 	strteq	r0, [r7], r0, lsl #24
    4594:	03d10000 	bicseq	r0, r1, #0, 0
    4598:	8c9c0000 	ldchi	0, cr0, [ip], {0}
    459c:	00340000 	eorseq	r0, r4, r0
    45a0:	1c130000 	ldcne	0, cr0, [r3], {-0}
    45a4:	04020000 	streq	r0, [r2], #-0
    45a8:	746e6905 	strbtvc	r6, [lr], #-2309	; 0xfffff6fb
    45ac:	07040300 	streq	r0, [r4, -r0, lsl #6]
    45b0:	00000167 	andeq	r0, r0, r7, ror #2
    45b4:	58060103 	stmdapl	r6, {r0, r1, r8}
    45b8:	03000000 	movweq	r0, #0
    45bc:	01940502 	orrseq	r0, r4, r2, lsl #10
    45c0:	04030000 	streq	r0, [r3], #-0
    45c4:	00017f05 	andeq	r7, r1, r5, lsl #30
    45c8:	05080300 	streq	r0, [r8, #-768]	; 0xfffffd00
    45cc:	0000017a 	andeq	r0, r0, sl, ror r1
    45d0:	56080103 	strpl	r0, [r8], -r3, lsl #2
    45d4:	03000000 	movweq	r0, #0
    45d8:	006d0702 	rsbeq	r0, sp, r2, lsl #14
    45dc:	04030000 	streq	r0, [r3], #-0
    45e0:	00016207 	andeq	r6, r1, r7, lsl #4
    45e4:	07080300 	streq	r0, [r8, -r0, lsl #6]
    45e8:	0000015d 	andeq	r0, r0, sp, asr r1
    45ec:	00002504 	andeq	r2, r0, r4, lsl #10
    45f0:	00007a00 	andeq	r7, r0, r0, lsl #20
    45f4:	00250500 	eoreq	r0, r5, r0, lsl #10
    45f8:	06000000 	streq	r0, [r0], -r0
    45fc:	00000188 	andeq	r0, r0, r8, lsl #3
    4600:	860e1c02 	strhi	r1, [lr], -r2, lsl #24
    4604:	07000000 	streq	r0, [r0, -r0]
    4608:	00006b04 	andeq	r6, r0, r4, lsl #22
    460c:	00250400 	eoreq	r0, r5, r0, lsl #8
    4610:	009b0000 	addseq	r0, fp, r0
    4614:	9b050000 	blls	14461c <__bss_end__+0x13a62c>
    4618:	00000000 	andeq	r0, r0, r0
    461c:	00a80407 	adceq	r0, r8, r7, lsl #8
    4620:	01030000 	mrseq	r0, (UNDEF: 3)
    4624:	00005f08 	andeq	r5, r0, r8, lsl #30
    4628:	00a10800 	adceq	r0, r1, r0, lsl #16
    462c:	a2060000 	andge	r0, r6, #0, 0
    4630:	02000006 	andeq	r0, r0, #6, 0
    4634:	00b90e21 	adcseq	r0, r9, r1, lsr #28
    4638:	04070000 	streq	r0, [r7], #-0
    463c:	0000008c 	andeq	r0, r0, ip, lsl #1
    4640:	0000ad09 	andeq	sl, r0, r9, lsl #26
    4644:	070c0100 	streq	r0, [ip, -r0, lsl #2]
    4648:	9bd80305 	blls	ff605264 <__bss_end__+0xff5fb274>
    464c:	990a0000 	stmdbls	sl, {}	; <UNPREDICTABLE>
    4650:	01000006 	tsteq	r0, r6
    4654:	00250504 	eoreq	r0, r5, r4, lsl #10
    4658:	8c9c0000 	ldchi	0, cr0, [ip], {0}
    465c:	00340000 	eorseq	r0, r4, r0
    4660:	9c010000 	stcls	0, cr0, [r1], {-0}
    4664:	0100700b 	tsteq	r0, fp
    4668:	009b1f04 	addseq	r1, fp, r4, lsl #30
    466c:	2f530000 	svccs	0x00530000
    4670:	2f4f0000 	svccs	0x004f0000
    4674:	00000000 	andeq	r0, r0, r0
    4678:	00000ad7 	ldrdeq	r0, [r0], -r7
    467c:	0c180004 	ldceq	0, cr0, [r8], {4}
    4680:	01040000 	mrseq	r0, (UNDEF: 4)
    4684:	0000041b 	andeq	r0, r0, fp, lsl r4
    4688:	0006c60c 	andeq	ip, r6, ip, lsl #12
    468c:	0003d100 	andeq	sp, r3, r0, lsl #2
    4690:	008cd000 	addeq	sp, ip, r0
    4694:	00074000 	andeq	r4, r7, r0
    4698:	001cdf00 	andseq	sp, ip, r0, lsl #30
    469c:	05040200 	streq	r0, [r4, #-512]	; 0xfffffe00
    46a0:	00746e69 	rsbseq	r6, r4, r9, ror #28
    46a4:	67070403 	strvs	r0, [r7, -r3, lsl #8]
    46a8:	03000001 	movweq	r0, #1
    46ac:	00580601 	subseq	r0, r8, r1, lsl #12
    46b0:	02030000 	andeq	r0, r3, #0, 0
    46b4:	00019405 	andeq	r9, r1, r5, lsl #8
    46b8:	05040300 	streq	r0, [r4, #-768]	; 0xfffffd00
    46bc:	0000017f 	andeq	r0, r0, pc, ror r1
    46c0:	7a050803 	bvc	1466d4 <__bss_end__+0x13c6e4>
    46c4:	03000001 	movweq	r0, #1
    46c8:	00560801 	subseq	r0, r6, r1, lsl #16
    46cc:	02030000 	andeq	r0, r3, #0, 0
    46d0:	00006d07 	andeq	r6, r0, r7, lsl #26
    46d4:	02690400 	rsbeq	r0, r9, #0, 8
    46d8:	34020000 	strcc	r0, [r2], #-0
    46dc:	00006919 	andeq	r6, r0, r9, lsl r9
    46e0:	07040300 	streq	r0, [r4, -r0, lsl #6]
    46e4:	00000162 	andeq	r0, r0, r2, ror #2
    46e8:	0006bd04 	andeq	fp, r6, r4, lsl #26
    46ec:	19370200 	ldmdbne	r7!, {r9}
    46f0:	0000007c 	andeq	r0, r0, ip, ror r0
    46f4:	5d070803 	stcpl	8, cr0, [r7, #-12]
    46f8:	05000001 	streq	r0, [r0, #-1]
    46fc:	00000025 	andeq	r0, r0, r5, lsr #32
    4700:	00000092 	muleq	r0, r2, r0
    4704:	00002506 	andeq	r2, r0, r6, lsl #10
    4708:	88070000 	stmdahi	r7, {}	; <UNPREDICTABLE>
    470c:	03000001 	movweq	r0, #1
    4710:	009e0e1c 	addseq	r0, lr, ip, lsl lr
    4714:	04080000 	streq	r0, [r8], #-0
    4718:	00000083 	andeq	r0, r0, r3, lsl #1
    471c:	00002505 	andeq	r2, r0, r5, lsl #10
    4720:	0000b300 	andeq	fp, r0, r0, lsl #6
    4724:	00b30600 	adcseq	r0, r3, r0, lsl #12
    4728:	08000000 	stmdaeq	r0, {}	; <UNPREDICTABLE>
    472c:	0000c004 	andeq	ip, r0, r4
    4730:	08010300 	stmdaeq	r1, {r8, r9}
    4734:	0000005f 	andeq	r0, r0, pc, asr r0
    4738:	0000b909 	andeq	fp, r0, r9, lsl #18
    473c:	06a20700 	strteq	r0, [r2], r0, lsl #14
    4740:	21030000 	mrscs	r0, (UNDEF: 3)
    4744:	0000d10e 	andeq	sp, r0, lr, lsl #2
    4748:	a4040800 	strge	r0, [r4], #-2048	; 0xfffff800
    474c:	07000000 	streq	r0, [r0, -r0]
    4750:	000006d9 	ldrdeq	r0, [r0], -r9
    4754:	b90d0b04 	stmdblt	sp, {r2, r8, r9, fp}
    4758:	07000000 	streq	r0, [r0, -r0]
    475c:	0000074a 	andeq	r0, r0, sl, asr #14
    4760:	b90d0c04 	stmdblt	sp, {r2, sl, fp}
    4764:	07000000 	streq	r0, [r0, -r0]
    4768:	000006e8 	andeq	r0, r0, r8, ror #13
    476c:	b90d0d04 	stmdblt	sp, {r2, r8, sl, fp}
    4770:	07000000 	streq	r0, [r0, -r0]
    4774:	00000711 	andeq	r0, r0, r1, lsl r7
    4778:	b90d0e04 	stmdblt	sp, {r2, r9, sl, fp}
    477c:	07000000 	streq	r0, [r0, -r0]
    4780:	00000773 	andeq	r0, r0, r3, ror r7
    4784:	b90d0f04 	stmdblt	sp, {r2, r8, r9, sl, fp}
    4788:	07000000 	streq	r0, [r0, -r0]
    478c:	000006fc 	strdeq	r0, [r0], -ip
    4790:	b90d1004 	stmdblt	sp, {r2, ip}
    4794:	07000000 	streq	r0, [r0, -r0]
    4798:	00000782 	andeq	r0, r0, r2, lsl #15
    479c:	b90d1104 	stmdblt	sp, {r2, r8, ip}
    47a0:	07000000 	streq	r0, [r0, -r0]
    47a4:	000005ea 	andeq	r0, r0, sl, ror #11
    47a8:	b90d1204 	stmdblt	sp, {r2, r9, ip}
    47ac:	04000000 	streq	r0, [r0], #-0
    47b0:	00000632 	andeq	r0, r0, r2, lsr r6
    47b4:	431b2805 	tstmi	fp, #327680	; 0x50000
    47b8:	0a000001 	beq	47c4 <__code_start__-0x383c>
    47bc:	00000656 	andeq	r0, r0, r6, asr r6
    47c0:	5a000604 	bpl	5fd8 <__code_start__-0x2028>
    47c4:	0b000001 	bleq	47d0 <__code_start__-0x3830>
    47c8:	00000641 	andeq	r0, r0, r1, asr #12
    47cc:	0000015a 	andeq	r0, r0, sl, asr r1
    47d0:	040c0000 	streq	r0, [ip], #-0
    47d4:	00065804 	andeq	r5, r6, r4, lsl #16
    47d8:	18630500 	stmdane	r3!, {r8, sl}^
    47dc:	00000137 	andeq	r0, r0, r7, lsr r1
    47e0:	0006280d 	andeq	r2, r6, sp, lsl #16
    47e4:	05810100 	streq	r0, [r1, #256]	; 0x100
    47e8:	00000025 	andeq	r0, r0, r5, lsr #32
    47ec:	00008f58 	andeq	r8, r0, r8, asr pc
    47f0:	000004b8 			; <UNDEFINED> instruction: 0x000004b8
    47f4:	07179c01 	ldreq	r9, [r7, -r1, lsl #24]
    47f8:	620e0000 	andvs	r0, lr, #0, 0
    47fc:	01006675 	tsteq	r0, r5, ror r6
    4800:	07171581 	ldreq	r1, [r7, -r1, lsl #11]
    4804:	2f770000 	svccs	0x00770000
    4808:	2f710000 	svccs	0x00710000
    480c:	6e0e0000 	cdpvs	0, 0, cr0, cr14, cr0, {0}
    4810:	1e810100 	rmfnes	f0, f1, f0
    4814:	00000025 	andeq	r0, r0, r5, lsr #32
    4818:	00002fa9 	andeq	r2, r0, r9, lsr #31
    481c:	00002fa3 	andeq	r2, r0, r3, lsr #31
    4820:	746d660e 	strbtvc	r6, [sp], #-1550	; 0xfffff9f2
    4824:	2d810100 	stfcss	f0, [r1]
    4828:	000000b3 	strheq	r0, [r0], -r3
    482c:	00002fe3 	andeq	r2, r0, r3, ror #31
    4830:	00002fd7 	ldrdeq	r2, [r0], -r7
    4834:	0006230f 	andeq	r2, r6, pc, lsl #6
    4838:	3a810100 	bcc	fe044c40 <__bss_end__+0xfe03ac50>
    483c:	0000015c 	andeq	r0, r0, ip, asr r1
    4840:	7dd49103 	ldfvcp	f1, [r4, #12]
    4844:	01007010 	tsteq	r0, r0, lsl r0
    4848:	07170882 	ldreq	r0, [r7, -r2, lsl #17]
    484c:	30410000 	subcc	r0, r1, r0
    4850:	302d0000 	eorcc	r0, sp, r0
    4854:	65100000 	ldrvs	r0, [r0, #-0]
    4858:	12820100 	addne	r0, r2, #0
    485c:	00000717 	andeq	r0, r0, r7, lsl r7
    4860:	000030c3 	andeq	r3, r0, r3, asr #1
    4864:	000030bf 	strheq	r3, [r0], -pc	; <UNPREDICTABLE>
    4868:	00307810 	eorseq	r7, r0, r0, lsl r8
    486c:	5d0e8301 	stcpl	3, cr8, [lr, #-4]
    4870:	f0000000 			; <UNDEFINED> instruction: 0xf0000000
    4874:	ea000030 	b	493c <__code_start__-0x36c4>
    4878:	10000030 	andne	r0, r0, r0, lsr r0
    487c:	01003178 	tsteq	r0, r8, ror r1
    4880:	005d1183 	subseq	r1, sp, r3, lsl #3
    4884:	311d0000 	tstcc	sp, r0
    4888:	31190000 	tstcc	r9, r0
    488c:	2c110000 	ldccs	0, cr0, [r1], {-0}
    4890:	01000007 	tsteq	r0, r7
    4894:	00b31186 	adcseq	r1, r3, r6, lsl #3
    4898:	313f0000 	teqcc	pc, r0
    489c:	313b0000 	teqcc	fp, r0
    48a0:	86120000 	ldrhi	r0, [r2], -r0
    48a4:	2d000005 	stccs	0, cr0, [r0, #-20]	; 0xffffffec
    48a8:	05000007 	streq	r0, [r0, #-7]
    48ac:	009bbc03 	addseq	fp, fp, r3, lsl #24
    48b0:	8fc01300 	svchi	0x00c01300
    48b4:	04000000 	streq	r0, [r0], #-0
    48b8:	73100000 	tstvc	r0, #0, 0
    48bc:	0a910100 	beq	fe444cc4 <__bss_end__+0xfe43acd4>
    48c0:	00000717 	andeq	r0, r0, r7, lsl r7
    48c4:	00003175 	andeq	r3, r0, r5, ror r1
    48c8:	0000315f 	andeq	r3, r0, pc, asr r1
    48cc:	6d756e14 	ldclvs	14, cr6, [r5, #-80]!	; 0xffffffb0
    48d0:	0d910100 	ldfeqs	f0, [r1]
    48d4:	00000732 	andeq	r0, r0, r2, lsr r7
    48d8:	7dd89103 	ldfvcp	f1, [r8, #12]
    48dc:	00078f15 	andeq	r8, r7, r5, lsl pc
    48e0:	17910100 	ldrne	r0, [r1, r0, lsl #2]
    48e4:	00000732 	andeq	r0, r0, r2, lsr r7
    48e8:	7ed89103 	atnvce	f1, f3
    48ec:	0006f611 	andeq	pc, r6, r1, lsl r6	; <UNPREDICTABLE>
    48f0:	0d920100 	ldfeqs	f0, [r2]
    48f4:	0000002c 	andeq	r0, r0, ip, lsr #32
    48f8:	000031fc 	strdeq	r3, [r0], -ip
    48fc:	000031f6 	strdeq	r3, [r0], -r6
    4900:	00908816 	addseq	r8, r0, r6, lsl r8
    4904:	0001a400 	andeq	sl, r1, r0, lsl #8
    4908:	00053900 	andeq	r3, r5, r0, lsl #18
    490c:	79741000 	ldmdbvc	r4!, {ip}^
    4910:	1d9e0100 	ldfnes	f0, [lr]
    4914:	000000b3 	strheq	r0, [r0], -r3
    4918:	00003230 	andeq	r3, r0, r0, lsr r2
    491c:	00003226 	andeq	r3, r0, r6, lsr #4
    4920:	00787817 	rsbseq	r7, r8, r7, lsl r8
    4924:	701aa201 	andsvc	sl, sl, r1, lsl #4
    4928:	18000000 	stmdane	r0, {}	; <UNPREDICTABLE>
    492c:	00009098 	muleq	r0, r8, r0
    4930:	00000a92 	muleq	r0, r2, sl
    4934:	000002d5 	ldrdeq	r0, [r0], -r5
    4938:	02500119 	subseq	r0, r0, #1073741830	; 0x40000006
    493c:	01190076 	tsteq	r9, r6, ror r0
    4940:	b0030551 	andlt	r0, r3, r1, asr r5
    4944:	1900009a 	stmdbne	r0, {r1, r3, r4, r7}
    4948:	33015201 	movwcc	r5, #4609	; 0x1201
    494c:	90b01800 	adcsls	r1, r0, r0, lsl #16
    4950:	0a920000 	beq	fe484958 <__bss_end__+0xfe47a968>
    4954:	02f70000 	rscseq	r0, r7, #0, 0
    4958:	01190000 	tsteq	r9, r0
    495c:	00760250 	rsbseq	r0, r6, r0, asr r2
    4960:	05510119 	ldrbeq	r0, [r1, #-281]	; 0xfffffee7
    4964:	009ab403 	addseq	fp, sl, r3, lsl #8
    4968:	52011900 	andpl	r1, r1, #0, 18
    496c:	18003301 	stmdane	r0, {r0, r8, r9, ip, sp}
    4970:	000090e4 	andeq	r9, r0, r4, ror #1
    4974:	00000a9e 	muleq	r0, lr, sl
    4978:	00000314 	andeq	r0, r0, r4, lsl r3
    497c:	05500119 	ldrbeq	r0, [r0, #-281]	; 0xfffffee7
    4980:	009ab803 	addseq	fp, sl, r3, lsl #16
    4984:	51011900 	tstpl	r1, r0, lsl #18
    4988:	00007702 	andeq	r7, r0, r2, lsl #14
    498c:	0090f018 	addseq	pc, r0, r8, lsl r0	; <UNPREDICTABLE>
    4990:	000a9e00 	andeq	r9, sl, r0, lsl #28
    4994:	00033100 	andeq	r3, r3, r0, lsl #2
    4998:	50011900 	andpl	r1, r1, r0, lsl #18
    499c:	9ac00305 	bls	ff0055b8 <__bss_end__+0xfeffb5c8>
    49a0:	01190000 	tsteq	r9, r0
    49a4:	007a0251 	rsbseq	r0, sl, r1, asr r2
    49a8:	91001800 	tstls	r0, r0, lsl #16
    49ac:	0a920000 	beq	fe4849b4 <__bss_end__+0xfe47a9c4>
    49b0:	03530000 	cmpeq	r3, #0, 0
    49b4:	01190000 	tsteq	r9, r0
    49b8:	00760250 	rsbseq	r0, r6, r0, asr r2
    49bc:	05510119 	ldrbeq	r0, [r1, #-281]	; 0xfffffee7
    49c0:	009ab003 	addseq	fp, sl, r3
    49c4:	52011900 	andpl	r1, r1, #0, 18
    49c8:	18003301 	stmdane	r0, {r0, r8, r9, ip, sp}
    49cc:	00009118 	andeq	r9, r0, r8, lsl r1
    49d0:	00000a92 	muleq	r0, r2, sl
    49d4:	00000375 	andeq	r0, r0, r5, ror r3
    49d8:	02500119 	subseq	r0, r0, #1073741830	; 0x40000006
    49dc:	01190076 	tsteq	r9, r6, ror r0
    49e0:	b4030551 	strlt	r0, [r3], #-1361	; 0xfffffaaf
    49e4:	1900009a 	stmdbne	r0, {r1, r3, r4, r7}
    49e8:	33015201 	movwcc	r5, #4609	; 0x1201
    49ec:	91401800 	cmpls	r0, r0, lsl #16
    49f0:	07420000 	strbeq	r0, [r2, -r0]
    49f4:	03a90000 			; <UNDEFINED> instruction: 0x03a90000
    49f8:	01190000 	tsteq	r9, r0
    49fc:	193a0150 	ldmdbne	sl!, {r4, r6, r8}
    4a00:	91035101 	tstls	r3, r1, lsl #2
    4a04:	01197dd0 			; <UNDEFINED> instruction: 0x01197dd0
    4a08:	80080252 	andhi	r0, r8, r2, asr r2
    4a0c:	02530119 	subseq	r0, r3, #1073741830	; 0x40000006
    4a10:	02190077 	andseq	r0, r9, #119, 0	; 0x77
    4a14:	7502007d 	strvc	r0, [r2, #-125]	; 0xffffff83
    4a18:	7d021900 	vstrvc.16	s2, [r2, #-0]	; <UNPREDICTABLE>
    4a1c:	00760204 	rsbseq	r0, r6, r4, lsl #4
    4a20:	91601800 	cmnls	r0, r0, lsl #16
    4a24:	07420000 	strbeq	r0, [r2, -r0]
    4a28:	03dd0000 	bicseq	r0, sp, #0, 0
    4a2c:	01190000 	tsteq	r9, r0
    4a30:	193a0150 	ldmdbne	sl!, {r4, r6, r8}
    4a34:	91035101 	tstls	r3, r1, lsl #2
    4a38:	01197ed0 			; <UNDEFINED> instruction: 0x01197ed0
    4a3c:	80080252 	andhi	r0, r8, r2, asr r2
    4a40:	02530119 	subseq	r0, r3, #1073741830	; 0x40000006
    4a44:	0219007a 	andseq	r0, r9, #122, 0	; 0x7a
    4a48:	7502007d 	strvc	r0, [r2, #-125]	; 0xffffff83
    4a4c:	7d021900 	vstrvc.16	s2, [r2, #-0]	; <UNPREDICTABLE>
    4a50:	00760204 	rsbseq	r0, r6, r4, lsl #4
    4a54:	916c1800 	cmnls	ip, r0, lsl #16
    4a58:	0aaa0000 	beq	fea84a60 <__bss_end__+0xfea7aa70>
    4a5c:	03fb0000 	mvnseq	r0, #0, 0
    4a60:	01190000 	tsteq	r9, r0
    4a64:	d0910350 	addsle	r0, r1, r0, asr r3
    4a68:	5101197d 	tstpl	r1, sp, ror r9
    4a6c:	9a740305 	bls	1d05688 <__bss_end__+0x1cfb698>
    4a70:	18000000 	stmdane	r0, {}	; <UNPREDICTABLE>
    4a74:	00009180 	andeq	r9, r0, r0, lsl #3
    4a78:	00000ab6 			; <UNDEFINED> instruction: 0x00000ab6
    4a7c:	00000417 	andeq	r0, r0, r7, lsl r4
    4a80:	03500119 	cmpeq	r0, #1073741830	; 0x40000006
    4a84:	197dd091 	ldmdbne	sp!, {r0, r4, r7, ip, lr, pc}^
    4a88:	91035101 	tstls	r3, r1, lsl #2
    4a8c:	18007ed0 	stmdane	r0, {r4, r6, r7, r9, sl, fp, ip, sp, lr}
    4a90:	000091a4 	andeq	r9, r0, r4, lsr #3
    4a94:	00000a9e 	muleq	r0, lr, sl
    4a98:	00000450 	andeq	r0, r0, r0, asr r4
    4a9c:	05500119 	ldrbeq	r0, [r0, #-281]	; 0xfffffee7
    4aa0:	00987c03 	addseq	r7, r8, r3, lsl #24
    4aa4:	51011900 	tstpl	r1, r0, lsl #18
    4aa8:	9a600305 	bls	18056c4 <__bss_end__+0x17fb6d4>
    4aac:	01190000 	tsteq	r9, r0
    4ab0:	bc030552 	cfstr32lt	mvfx0, [r3], {82}	; 0x52
    4ab4:	1900009b 	stmdbne	r0, {r0, r1, r3, r4, r7}
    4ab8:	08025301 	stmdaeq	r2, {r0, r8, r9, ip, lr}
    4abc:	7d02199f 	vstrvc.16	s2, [r2, #-318]	; 0xfffffec2	; <UNPREDICTABLE>
    4ac0:	c8030500 	stmdagt	r3, {r8, sl}
    4ac4:	0000009a 	muleq	r0, sl, r0
    4ac8:	0091a81a 	addseq	sl, r1, sl, lsl r8
    4acc:	000ac200 	andeq	ip, sl, r0, lsl #4
    4ad0:	91c81800 	bicls	r1, r8, r0, lsl #16
    4ad4:	07420000 	strbeq	r0, [r2, -r0]
    4ad8:	048d0000 	streq	r0, [sp], #0
    4adc:	01190000 	tsteq	r9, r0
    4ae0:	19400150 	stmdbne	r0, {r4, r6, r8}^
    4ae4:	91035101 	tstls	r3, r1, lsl #2
    4ae8:	01197dd0 			; <UNDEFINED> instruction: 0x01197dd0
    4aec:	80080252 	andhi	r0, r8, r2, asr r2
    4af0:	02530119 	subseq	r0, r3, #1073741830	; 0x40000006
    4af4:	02190077 	andseq	r0, r9, #119, 0	; 0x77
    4af8:	7502007d 	strvc	r0, [r2, #-125]	; 0xffffff83
    4afc:	7d021900 	vstrvc.16	s2, [r2, #-0]	; <UNPREDICTABLE>
    4b00:	00760204 	rsbseq	r0, r6, r4, lsl #4
    4b04:	91e81800 	mvnls	r1, r0, lsl #16
    4b08:	07420000 	strbeq	r0, [r2, -r0]
    4b0c:	04c10000 	strbeq	r0, [r1], #0
    4b10:	01190000 	tsteq	r9, r0
    4b14:	19400150 	stmdbne	r0, {r4, r6, r8}^
    4b18:	91035101 	tstls	r3, r1, lsl #2
    4b1c:	01197ed0 			; <UNDEFINED> instruction: 0x01197ed0
    4b20:	80080252 	andhi	r0, r8, r2, asr r2
    4b24:	02530119 	subseq	r0, r3, #1073741830	; 0x40000006
    4b28:	0219007a 	andseq	r0, r9, #122, 0	; 0x7a
    4b2c:	7502007d 	strvc	r0, [r2, #-125]	; 0xffffff83
    4b30:	7d021900 	vstrvc.16	s2, [r2, #-0]	; <UNPREDICTABLE>
    4b34:	00760204 	rsbseq	r0, r6, r4, lsl #4
    4b38:	91f41800 	mvnsls	r1, r0, lsl #16
    4b3c:	0ace0000 	beq	ff384b44 <__bss_end__+0xff37ab54>
    4b40:	04dd0000 	ldrbeq	r0, [sp], #0
    4b44:	01190000 	tsteq	r9, r0
    4b48:	d0910350 	addsle	r0, r1, r0, asr r3
    4b4c:	5101197d 	tstpl	r1, sp, ror r9
    4b50:	7ed29103 	atnvcs	f1, f3
    4b54:	92081800 	andls	r1, r8, #0, 16
    4b58:	0ace0000 	beq	ff384b60 <__bss_end__+0xff37ab70>
    4b5c:	04f90000 	ldrbteq	r0, [r9], #0
    4b60:	01190000 	tsteq	r9, r0
    4b64:	d0910350 	addsle	r0, r1, r0, asr r3
    4b68:	5101197d 	tstpl	r1, sp, ror r9
    4b6c:	7ed09103 	atnvcs	f1, f3
    4b70:	92281800 	eorls	r1, r8, #0, 16
    4b74:	0a9e0000 	beq	fe784b7c <__bss_end__+0xfe77ab8c>
    4b78:	052f0000 	streq	r0, [pc, #-0]!	; 4b80 <__code_start__-0x3480>
    4b7c:	01190000 	tsteq	r9, r0
    4b80:	04030550 	streq	r0, [r3], #-1360	; 0xfffffab0
    4b84:	1900009b 	stmdbne	r0, {r0, r1, r3, r4, r7}
    4b88:	03055101 	movweq	r5, #20737	; 0x5101
    4b8c:	00009a60 	andeq	r9, r0, r0, ror #20
    4b90:	05520119 	ldrbeq	r0, [r2, #-281]	; 0xfffffee7
    4b94:	009bbc03 	addseq	fp, fp, r3, lsl #24
    4b98:	53011900 	movwpl	r1, #6400	; 0x1900
    4b9c:	19b60802 	ldmibne	r6!, {r1, fp}
    4ba0:	02007d02 	andeq	r7, r0, #128	; 0x80
    4ba4:	1a000076 	bne	4d84 <__code_start__-0x327c>
    4ba8:	0000922c 	andeq	r9, r0, ip, lsr #4
    4bac:	00000ac2 	andeq	r0, r0, r2, asr #21
    4bb0:	8fd81800 	svchi	0x00d81800
    4bb4:	09c00000 	stmibeq	r0, {}^	; <UNPREDICTABLE>
    4bb8:	054d0000 	strbeq	r0, [sp, #-0]
    4bbc:	01190000 	tsteq	r9, r0
    4bc0:	00770250 	rsbseq	r0, r7, r0, asr r2
    4bc4:	90841800 	addls	r1, r4, r0, lsl #16
    4bc8:	0a9e0000 	beq	fe784bd0 <__bss_end__+0xfe77abe0>
    4bcc:	05860000 	streq	r0, [r6]
    4bd0:	01190000 	tsteq	r9, r0
    4bd4:	7c030550 	cfstr32vc	mvfx0, [r3], {80}	; 0x50
    4bd8:	19000098 	stmdbne	r0, {r3, r4, r7}
    4bdc:	03055101 	movweq	r5, #20737	; 0x5101
    4be0:	00009a60 	andeq	r9, r0, r0, ror #20
    4be4:	05520119 	ldrbeq	r0, [r2, #-281]	; 0xfffffee7
    4be8:	009bbc03 	addseq	fp, fp, r3, lsl #24
    4bec:	53011900 	movwpl	r1, #6400	; 0x1900
    4bf0:	19980802 	ldmibne	r8, {r1, fp}
    4bf4:	05007d02 	streq	r7, [r0, #-3330]	; 0xfffff2fe
    4bf8:	009aa403 	addseq	sl, sl, r3, lsl #8
    4bfc:	881a0000 	ldmdahi	sl, {}	; <UNPREDICTABLE>
    4c00:	c2000090 	andgt	r0, r0, #144, 0	; 0x90
    4c04:	1800000a 	stmdane	r0, {r1, r3}
    4c08:	00009240 	andeq	r9, r0, r0, asr #4
    4c0c:	00000a9e 	muleq	r0, lr, sl
    4c10:	000005be 			; <UNDEFINED> instruction: 0x000005be
    4c14:	05500119 	ldrbeq	r0, [r0, #-281]	; 0xfffffee7
    4c18:	009b2c03 	addseq	r2, fp, r3, lsl #24
    4c1c:	51011900 	tstpl	r1, r0, lsl #18
    4c20:	9a600305 	bls	180583c <__bss_end__+0x17fb84c>
    4c24:	01190000 	tsteq	r9, r0
    4c28:	bc030552 	cfstr32lt	mvfx0, [r3], {82}	; 0x52
    4c2c:	1900009b 	stmdbne	r0, {r0, r1, r3, r4, r7}
    4c30:	08025301 	stmdaeq	r2, {r0, r8, r9, ip, lr}
    4c34:	441a00be 	ldrmi	r0, [sl], #-190	; 0xffffff42
    4c38:	c2000092 	andgt	r0, r0, #146, 0	; 0x92
    4c3c:	1800000a 	stmdane	r0, {r1, r3}
    4c40:	00009270 	andeq	r9, r0, r0, ror r2
    4c44:	00000742 	andeq	r0, r0, r2, asr #14
    4c48:	000005f4 	strdeq	r0, [r0], -r4
    4c4c:	01500119 	cmpeq	r0, r9, lsl r1
    4c50:	5101193a 	tstpl	r1, sl, lsr r9
    4c54:	7dd09103 	ldfvcp	f1, [r0, #12]
    4c58:	02520119 	subseq	r0, r2, #1073741830	; 0x40000006
    4c5c:	02198008 	andseq	r8, r9, #8, 0
    4c60:	7502007d 	strvc	r0, [r2, #-125]	; 0xffffff83
    4c64:	7d021900 	vstrvc.16	s2, [r2, #-0]	; <UNPREDICTABLE>
    4c68:	00310104 	eorseq	r0, r1, r4, lsl #2
    4c6c:	0092a818 	addseq	sl, r2, r8, lsl r8
    4c70:	00074200 	andeq	r4, r7, r0, lsl #4
    4c74:	00062100 	andeq	r2, r6, r0, lsl #2
    4c78:	50011900 	andpl	r1, r1, r0, lsl #18
    4c7c:	01193a01 	tsteq	r9, r1, lsl #20
    4c80:	d0910351 	addsle	r0, r1, r1, asr r3
    4c84:	5201197d 	andpl	r1, r1, #2048000	; 0x1f4000
    4c88:	19800802 	stmibne	r0, {r1, fp}
    4c8c:	02007d02 	andeq	r7, r0, #128	; 0x80
    4c90:	02190075 	andseq	r0, r9, #117, 0	; 0x75
    4c94:	3001047d 	andcc	r0, r1, sp, ror r4
    4c98:	92dc1800 	sbcsls	r1, ip, #0, 16
    4c9c:	07420000 	strbeq	r0, [r2, -r0]
    4ca0:	064e0000 	strbeq	r0, [lr], -r0
    4ca4:	01190000 	tsteq	r9, r0
    4ca8:	19400150 	stmdbne	r0, {r4, r6, r8}^
    4cac:	91035101 	tstls	r3, r1, lsl #2
    4cb0:	01197dd0 			; <UNDEFINED> instruction: 0x01197dd0
    4cb4:	80080252 	andhi	r0, r8, r2, asr r2
    4cb8:	007d0219 	rsbseq	r0, sp, r9, lsl r2
    4cbc:	19007502 	stmdbne	r0, {r1, r8, sl, ip, sp, lr}
    4cc0:	01047d02 	tsteq	r4, r2, lsl #26
    4cc4:	10180030 	andsne	r0, r8, r0, lsr r0
    4cc8:	42000093 	andmi	r0, r0, #147, 0	; 0x93
    4ccc:	7b000007 	blvc	4cf0 <__code_start__-0x3310>
    4cd0:	19000006 	stmdbne	r0, {r1, r2}
    4cd4:	32015001 	andcc	r5, r1, #1, 0
    4cd8:	03510119 	cmpeq	r1, #1073741830	; 0x40000006
    4cdc:	197dd091 	ldmdbne	sp!, {r0, r4, r7, ip, lr, pc}^
    4ce0:	08025201 	stmdaeq	r2, {r0, r9, ip, lr}
    4ce4:	7d021980 	vstrvc.16	s2, [r2, #-256]	; 0xffffff00	; <UNPREDICTABLE>
    4ce8:	00750200 	rsbseq	r0, r5, r0, lsl #4
    4cec:	047d0219 	ldrbteq	r0, [sp], #-537	; 0xfffffde7
    4cf0:	18003001 	stmdane	r0, {r0, ip, sp}
    4cf4:	00009358 	andeq	r9, r0, r8, asr r3
    4cf8:	00000742 	andeq	r0, r0, r2, asr #14
    4cfc:	000006a8 	andeq	r0, r0, r8, lsr #13
    4d00:	01500119 	cmpeq	r0, r9, lsl r1
    4d04:	51011938 	tstpl	r1, r8, lsr r9
    4d08:	7dd09103 	ldfvcp	f1, [r0, #12]
    4d0c:	02520119 	subseq	r0, r2, #1073741830	; 0x40000006
    4d10:	02198008 	andseq	r8, r9, #8, 0
    4d14:	7502007d 	strvc	r0, [r2, #-125]	; 0xffffff83
    4d18:	7d021900 	vstrvc.16	s2, [r2, #-0]	; <UNPREDICTABLE>
    4d1c:	00300104 	eorseq	r0, r0, r4, lsl #2
    4d20:	00937818 	addseq	r7, r3, r8, lsl r8
    4d24:	000a9e00 	andeq	r9, sl, r0, lsl #28
    4d28:	0006cb00 	andeq	ip, r6, r0, lsl #22
    4d2c:	50011900 	andpl	r1, r1, r0, lsl #18
    4d30:	9b540305 	blls	150594c <__bss_end__+0x14fb95c>
    4d34:	01190000 	tsteq	r9, r0
    4d38:	007a0251 	rsbseq	r0, sl, r1, asr r2
    4d3c:	02520119 	subseq	r0, r2, #1073741830	; 0x40000006
    4d40:	1b00007a 	blne	4f30 <__code_start__-0x30d0>
    4d44:	00009388 	andeq	r9, r0, r8, lsl #7
    4d48:	000006dd 	ldrdeq	r0, [r0], -sp
    4d4c:	04500119 	ldrbeq	r0, [r0], #-281	; 0xfffffee7
    4d50:	067dc891 			; <UNDEFINED> instruction: 0x067dc891
    4d54:	939c1800 	orrsls	r1, ip, #0, 16
    4d58:	0a9e0000 	beq	fe784d60 <__bss_end__+0xfe77ad70>
    4d5c:	070c0000 	streq	r0, [ip, -r0]
    4d60:	01190000 	tsteq	r9, r0
    4d64:	84030550 	strhi	r0, [r3], #-1360	; 0xfffffab0
    4d68:	1900009b 	stmdbne	r0, {r0, r1, r3, r4, r7}
    4d6c:	03055101 	movweq	r5, #20737	; 0x5101
    4d70:	00009a60 	andeq	r9, r0, r0, ror #20
    4d74:	05520119 	ldrbeq	r0, [r2, #-281]	; 0xfffffee7
    4d78:	009bbc03 	addseq	fp, fp, r3, lsl #24
    4d7c:	53011900 	movwpl	r1, #6400	; 0x1900
    4d80:	00e20802 	rsceq	r0, r2, r2, lsl #16
    4d84:	0093a01a 	addseq	sl, r3, sl, lsl r0
    4d88:	000ac200 	andeq	ip, sl, r0, lsl #4
    4d8c:	08000000 	stmdaeq	r0, {}	; <UNPREDICTABLE>
    4d90:	0000b904 	andeq	fp, r0, r4, lsl #18
    4d94:	00c01c00 	sbceq	r1, r0, r0, lsl #24
    4d98:	072d0000 	streq	r0, [sp, -r0]!
    4d9c:	2c1d0000 	ldccs	0, cr0, [sp], {-0}
    4da0:	09000000 	stmdbeq	r0, {}	; <UNPREDICTABLE>
    4da4:	071d0900 	ldreq	r0, [sp, -r0, lsl #18]
    4da8:	b91c0000 	ldmdblt	ip, {}	; <UNPREDICTABLE>
    4dac:	42000000 	andmi	r0, r0, #0, 0
    4db0:	1d000007 	stcne	0, cr0, [r0, #-28]	; 0xffffffe4
    4db4:	0000002c 	andeq	r0, r0, ip, lsr #32
    4db8:	571e007f 			; <UNDEFINED> instruction: 0x571e007f
    4dbc:	01000007 	tsteq	r0, r7
    4dc0:	07170149 	ldreq	r0, [r7, -r9, asr #2]
    4dc4:	8d400000 	stclhi	0, cr0, [r0, #-0]
    4dc8:	01b40000 			; <UNDEFINED> instruction: 0x01b40000
    4dcc:	9c010000 	stcls	0, cr0, [r1], {-0}
    4dd0:	000008ab 	andeq	r0, r0, fp, lsr #17
    4dd4:	00079c1f 	andeq	r9, r7, pc, lsl ip
    4dd8:	0f490100 	svceq	0x00490100
    4ddc:	0000002c 	andeq	r0, r0, ip, lsr #32
    4de0:	00003279 	andeq	r3, r0, r9, ror r2
    4de4:	00003273 	andeq	r3, r0, r3, ror r2
    4de8:	7473640e 	ldrbtvc	r6, [r3], #-1038	; 0xfffffbf2
    4dec:	1b490100 	blne	12451f4 <__bss_end__+0x123b204>
    4df0:	00000717 	andeq	r0, r0, r7, lsl r7
    4df4:	000032b7 			; <UNDEFINED> instruction: 0x000032b7
    4df8:	000032a7 	andeq	r3, r0, r7, lsr #5
    4dfc:	01006e0e 	tsteq	r0, lr, lsl #28
    4e00:	00252449 	eoreq	r2, r5, r9, asr #8
    4e04:	331b0000 	tstcc	fp, #0, 0
    4e08:	33170000 	tstcc	r7, #0, 0
    4e0c:	760e0000 	strvc	r0, [lr], -r0
    4e10:	01006c61 	tsteq	r0, r1, ror #24
    4e14:	00252b49 	eoreq	r2, r5, r9, asr #22
    4e18:	33450000 	movtcc	r0, #20480	; 0x5000
    4e1c:	33390000 	teqcc	r9, #0, 0
    4e20:	f61f0000 			; <UNDEFINED> instruction: 0xf61f0000
    4e24:	01000006 	tsteq	r0, r6
    4e28:	00253449 	eoreq	r3, r5, r9, asr #8
    4e2c:	339b0000 	orrscc	r0, fp, #0, 0
    4e30:	33950000 	orrscc	r0, r5, #0, 0
    4e34:	a10f0000 	mrsge	r0, CPSR
    4e38:	01000007 	tsteq	r0, r7
    4e3c:	00253f49 	eoreq	r3, r5, r9, asr #30
    4e40:	91020000 	mrsls	r0, (UNDEF: 2)
    4e44:	75621404 	strbvc	r1, [r2, #-1028]!	; 0xfffffbfc
    4e48:	4e010066 	cdpmi	0, 0, cr0, cr1, cr6, {3}
    4e4c:	0008ab07 	andeq	sl, r8, r7, lsl #22
    4e50:	a8910300 	ldmge	r1, {r8, r9}
    4e54:	0070107f 	rsbseq	r1, r0, pc, ror r0
    4e58:	17114e01 	ldrne	r4, [r1, -r1, lsl #28]
    4e5c:	e5000007 	str	r0, [r0, #-7]
    4e60:	c5000033 	strgt	r0, [r0, #-51]	; 0xffffffcd
    4e64:	10000033 	andne	r0, r0, r3, lsr r0
    4e68:	4f010075 	svcmi	0x00010075
    4e6c:	00002c0b 	andeq	r2, r0, fp, lsl #24
    4e70:	0034cb00 	eorseq	ip, r4, r0, lsl #22
    4e74:	0034b700 	eorseq	fp, r4, r0, lsl #14
    4e78:	05861200 	streq	r1, [r6, #512]	; 0x200
    4e7c:	08cb0000 	stmiaeq	fp, {}^	; <UNPREDICTABLE>
    4e80:	03050000 	movweq	r0, #20480	; 0x5000
    4e84:	00009ba4 	andeq	r9, r0, r4, lsr #23
    4e88:	008dac16 	addeq	sl, sp, r6, lsl ip
    4e8c:	00007800 	andeq	r7, r0, r0, lsl #16
    4e90:	00083200 	andeq	r3, r8, r0, lsl #4
    4e94:	07441100 	strbeq	r1, [r4, -r0, lsl #2]
    4e98:	54010000 	strpl	r0, [r1], #-0
    4e9c:	00002c0d 	andeq	r2, r0, sp, lsl #24
    4ea0:	00354c00 	eorseq	r4, r5, r0, lsl #24
    4ea4:	00354400 	eorseq	r4, r5, r0, lsl #8
    4ea8:	64180000 	ldrvs	r0, [r8], #-0
    4eac:	5d00008e 	stcpl	0, cr0, [r0, #-568]	; 0xfffffdc8
    4eb0:	47000009 	strmi	r0, [r0, -r9]
    4eb4:	19000008 	stmdbne	r0, {r3}
    4eb8:	91035101 	tstls	r3, r1, lsl #2
    4ebc:	18007fa0 	stmdane	r0, {r5, r7, r8, r9, sl, fp, ip, sp, lr}
    4ec0:	00008e78 	andeq	r8, r0, r8, ror lr
    4ec4:	000008d0 	ldrdeq	r0, [r0], -r0	; <UNPREDICTABLE>
    4ec8:	00000868 	andeq	r0, r0, r8, ror #16
    4ecc:	02500119 	subseq	r0, r0, #1073741830	; 0x40000006
    4ed0:	01190075 	tsteq	r9, r5, ror r0
    4ed4:	00740251 	rsbseq	r0, r4, r1, asr r2
    4ed8:	03530119 	cmpeq	r3, #1073741830	; 0x40000006
    4edc:	007fa091 			; <UNDEFINED> instruction: 0x007fa091
    4ee0:	008ed018 	addeq	sp, lr, r8, lsl r0
    4ee4:	000a9e00 	andeq	r9, sl, r0, lsl #28
    4ee8:	0008a100 	andeq	sl, r8, r0, lsl #2
    4eec:	50011900 	andpl	r1, r1, r0, lsl #18
    4ef0:	987c0305 	ldmdals	ip!, {r0, r2, r8, r9}^
    4ef4:	01190000 	tsteq	r9, r0
    4ef8:	60030551 	andvs	r0, r3, r1, asr r5
    4efc:	1900009a 	stmdbne	r0, {r1, r3, r4, r7}
    4f00:	03055201 	movweq	r5, #20993	; 0x5201
    4f04:	00009ba4 	andeq	r9, r0, r4, lsr #23
    4f08:	02530119 	subseq	r0, r3, #1073741830	; 0x40000006
    4f0c:	02197908 	andseq	r7, r9, #8, 18	; 0x20000
    4f10:	0305007d 	movweq	r0, #20605	; 0x507d
    4f14:	00009a74 	andeq	r9, r0, r4, ror sl
    4f18:	8ed41a00 	vfnmshi.f32	s3, s8, s0
    4f1c:	0ac20000 	beq	ff084f24 <__bss_end__+0xff07af34>
    4f20:	1c000000 	stcne	0, cr0, [r0], {-0}
    4f24:	000000b9 	strheq	r0, [r0], -r9
    4f28:	000008bb 			; <UNDEFINED> instruction: 0x000008bb
    4f2c:	00002c1d 	andeq	r2, r0, sp, lsl ip
    4f30:	1c003f00 	stcne	15, cr3, [r0], {-0}
    4f34:	000000c0 	andeq	r0, r0, r0, asr #1
    4f38:	000008cb 	andeq	r0, r0, fp, asr #17
    4f3c:	00002c1d 	andeq	r2, r0, sp, lsl ip
    4f40:	09000400 	stmdbeq	r0, {sl}
    4f44:	000008bb 			; <UNDEFINED> instruction: 0x000008bb
    4f48:	0007641e 	andeq	r6, r7, lr, lsl r4
    4f4c:	0e380100 	rsfeqe	f0, f0, f0
    4f50:	00000717 	andeq	r0, r0, r7, lsl r7
    4f54:	00008d08 	andeq	r8, r0, r8, lsl #26
    4f58:	00000038 	andeq	r0, r0, r8, lsr r0
    4f5c:	095d9c01 	ldmdbeq	sp, {r0, sl, fp, ip, pc}^
    4f60:	640e0000 	strvs	r0, [lr], #-0
    4f64:	01007473 	tsteq	r0, r3, ror r4
    4f68:	07171c38 			; <UNDEFINED> instruction: 0x07171c38
    4f6c:	358d0000 	strcc	r0, [sp]
    4f70:	35830000 	strcc	r0, [r3]
    4f74:	6e0e0000 	cdpvs	0, 0, cr0, cr14, cr0, {0}
    4f78:	25380100 	ldrcs	r0, [r8, #-256]!	; 0xffffff00
    4f7c:	00000025 	andeq	r0, r0, r5, lsr #32
    4f80:	000035d4 	ldrdeq	r3, [r0], -r4
    4f84:	000035d0 	ldrdeq	r3, [r0], -r0
    4f88:	0100700e 	tsteq	r0, lr
    4f8c:	07172e38 			; <UNDEFINED> instruction: 0x07172e38
    4f90:	35fd0000 	ldrbcc	r0, [sp, #0]!
    4f94:	35f50000 	ldrbcc	r0, [r5, #0]!
    4f98:	c41f0000 	ldrgt	r0, [pc], #-0	; 4fa0 <__code_start__-0x3060>
    4f9c:	01000005 	tsteq	r0, r5
    4fa0:	07173738 			; <UNDEFINED> instruction: 0x07173738
    4fa4:	36370000 	ldrtcc	r0, [r7], -r0
    4fa8:	36330000 	ldrtcc	r0, [r3], -r0
    4fac:	6c100000 	ldcvs	0, cr0, [r0], {-0}
    4fb0:	01006e65 	tsteq	r0, r5, ror #28
    4fb4:	0025063a 	eoreq	r0, r5, sl, lsr r6
    4fb8:	365d0000 	ldrbcc	r0, [sp], -r0
    4fbc:	36550000 	ldrbcc	r0, [r5], -r0
    4fc0:	73100000 	tstvc	r0, #0, 0
    4fc4:	083e0100 	ldmdaeq	lr!, {r8}
    4fc8:	00000717 	andeq	r0, r0, r7, lsl r7
    4fcc:	000036ab 	andeq	r3, r0, fp, lsr #13
    4fd0:	000036a9 	andeq	r3, r0, r9, lsr #13
    4fd4:	61702000 	cmnvs	r0, r0
    4fd8:	2e010064 	cdpcs	0, 0, cr0, cr1, cr4, {3}
    4fdc:	0007170e 	andeq	r1, r7, lr, lsl #14
    4fe0:	008ce400 	addeq	lr, ip, r0, lsl #8
    4fe4:	00002400 	andeq	r2, r0, r0, lsl #8
    4fe8:	c09c0100 	addsgt	r0, ip, r0, lsl #2
    4fec:	0e000009 	cdpeq	0, 0, cr0, cr0, cr9, {0}
    4ff0:	2e010070 	mcrcs	0, 0, r0, cr1, cr0, {3}
    4ff4:	00071718 	andeq	r1, r7, r8, lsl r7
    4ff8:	0036c400 	eorseq	ip, r6, r0, lsl #8
    4ffc:	0036be00 	eorseq	fp, r6, r0, lsl #28
    5000:	079c1f00 	ldreq	r1, [ip, r0, lsl #30]
    5004:	2e010000 	cdpcs	0, 0, cr0, cr1, cr0, {0}
    5008:	00071722 	andeq	r1, r7, r2, lsr #14
    500c:	0036f300 	eorseq	pc, r6, r0, lsl #6
    5010:	0036ef00 	eorseq	lr, r6, r0, lsl #30
    5014:	06f60f00 	ldrbteq	r0, [r6], r0, lsl #30
    5018:	2e010000 	cdpcs	0, 0, cr0, cr1, cr0, {0}
    501c:	0000252c 	andeq	r2, r0, ip, lsr #10
    5020:	10520100 	subsne	r0, r2, r0, lsl #2
    5024:	006e656c 	rsbeq	r6, lr, ip, ror #10
    5028:	25062f01 	strcs	r2, [r6, #-3841]	; 0xfffff0ff
    502c:	16000000 	strne	r0, [r0], -r0
    5030:	14000037 	strne	r0, [r0], #-55	; 0xffffffc9
    5034:	00000037 	andeq	r0, r0, r7, lsr r0
    5038:	0006b51e 	andeq	fp, r6, lr, lsl r5
    503c:	0c270100 	stfeqs	f0, [r7], #-0
    5040:	00000025 	andeq	r0, r0, r5, lsr #32
    5044:	00008cd0 	ldrdeq	r8, [r0], -r0
    5048:	00000014 	andeq	r0, r0, r4, lsl r0
    504c:	09ed9c01 	stmibeq	sp!, {r0, sl, fp, ip, pc}^
    5050:	630e0000 	movwvs	r0, #57344	; 0xe000
    5054:	18270100 	stmdane	r7!, {r8}
    5058:	00000025 	andeq	r0, r0, r5, lsr #32
    505c:	0000372f 	andeq	r3, r0, pc, lsr #14
    5060:	00003729 	andeq	r3, r0, r9, lsr #14
    5064:	071d2100 	ldreq	r2, [sp, -r0, lsl #2]
    5068:	1f010000 	svcne	0x00010000
    506c:	008ef406 	addeq	pc, lr, r6, lsl #8
    5070:	00006400 	andeq	r6, r0, r0, lsl #8
    5074:	7d9c0100 	ldfvcs	f0, [ip]
    5078:	1f00000a 	svcne	0x0000000a
    507c:	00000709 	andeq	r0, r0, r9, lsl #14
    5080:	9e1b1f01 	cdpls	15, 1, cr1, cr11, cr1, {0}
    5084:	61000000 	mrsvs	r0, (UNDEF: 0)
    5088:	5d000037 	stcpl	0, cr0, [r0, #-220]	; 0xffffff24
    508c:	1f000037 	svcne	0x00000037
    5090:	0000075c 	andeq	r0, r0, ip, asr r7
    5094:	d1301f01 	teqle	r0, r1, lsl #30
    5098:	86000000 	strhi	r0, [r0], -r0
    509c:	82000037 	andhi	r0, r0, #55, 0	; 0x37
    50a0:	12000037 	andne	r0, r0, #55, 0	; 0x37
    50a4:	00000586 	andeq	r0, r0, r6, lsl #11
    50a8:	00000a8d 	andeq	r0, r0, sp, lsl #21
    50ac:	9bac0305 	blls	feb05cc8 <__bss_end__+0xfeafbcd8>
    50b0:	3c180000 	ldccc	0, cr0, [r8], {-0}
    50b4:	9e00008f 	cdpls	0, 0, cr0, cr0, cr15, {4}
    50b8:	7300000a 	movwvc	r0, #10
    50bc:	1900000a 	stmdbne	r0, {r1, r3}
    50c0:	03055001 	movweq	r5, #20481	; 0x5001
    50c4:	0000987c 	andeq	r9, r0, ip, ror r8
    50c8:	05510119 	ldrbeq	r0, [r1, #-281]	; 0xfffffee7
    50cc:	009a6003 	addseq	r6, sl, r3
    50d0:	52011900 	andpl	r1, r1, #0, 18
    50d4:	9bac0305 	blls	feb05cf0 <__bss_end__+0xfeafbd00>
    50d8:	01190000 	tsteq	r9, r0
    50dc:	20080253 	andcs	r0, r8, r3, asr r2
    50e0:	007d0219 	rsbseq	r0, sp, r9, lsl r2
    50e4:	9a9c0305 	bls	fe705d00 <__bss_end__+0xfe6fbd10>
    50e8:	1a000000 	bne	50f0 <__code_start__-0x2f10>
    50ec:	00008f40 	andeq	r8, r0, r0, asr #30
    50f0:	00000ac2 	andeq	r0, r0, r2, asr #21
    50f4:	00c01c00 	sbceq	r1, r0, r0, lsl #24
    50f8:	0a8d0000 	beq	fe345100 <__bss_end__+0xfe33b110>
    50fc:	2c1d0000 	ldccs	0, cr0, [sp], {-0}
    5100:	0e000000 	cdpeq	0, 0, cr0, cr0, cr0, {0}
    5104:	0a7d0900 	beq	1f4750c <__bss_end__+0x1f3d51c>
    5108:	94220000 	strtls	r0, [r2], #-0
    510c:	94000007 	strls	r0, [r0], #-7
    5110:	03000007 	movweq	r0, #7
    5114:	2b2205ed 	blcs	8868d0 <__bss_end__+0x87c8e0>
    5118:	2b000006 	blcs	5138 <__code_start__-0x2ec8>
    511c:	03000006 	movweq	r0, #6
    5120:	6c220628 	stcvs	6, cr0, [r2], #-160	; 0xffffff60
    5124:	6c000007 	stcvs	0, cr0, [r0], {7}
    5128:	03000007 	movweq	r0, #7
    512c:	3d2205ec 	cfstr32cc	mvfx0, [r2, #-944]!	; 0xfffffc50
    5130:	3d000007 	stccc	0, cr0, [r0, #-28]	; 0xffffffe4
    5134:	03000007 	movweq	r0, #7
    5138:	9a2207ef 	bls	8870fc <__bss_end__+0x87d10c>
    513c:	9a000005 	bls	5158 <__code_start__-0x2ea8>
    5140:	03000005 	movweq	r0, #5
    5144:	3622066e 	strtcc	r0, [r2], -lr, ror #12
    5148:	36000007 	strcc	r0, [r0], -r7
    514c:	03000007 	movweq	r0, #7
    5150:	0a0007f0 	beq	7118 <__code_start__-0xee8>
    5154:	04000001 	streq	r0, [r0], #-1
    5158:	000e2200 	andeq	r2, lr, r0, lsl #4
    515c:	1b010400 	blne	46164 <__bss_end__+0x3c174>
    5160:	0c000004 	stceq	0, cr0, [r0], {4}
    5164:	000007b8 			; <UNDEFINED> instruction: 0x000007b8
    5168:	000003d1 	ldrdeq	r0, [r0], -r1
    516c:	00002a80 	andeq	r2, r0, r0, lsl #21
    5170:	00000000 	andeq	r0, r0, r0
    5174:	000022fa 	strdeq	r2, [r0], -sl
    5178:	69050402 	stmdbvs	r5, {r1, sl}
    517c:	0300746e 	movweq	r7, #1134	; 0x46e
    5180:	01670704 	cmneq	r7, r4, lsl #14
    5184:	01030000 	mrseq	r0, (UNDEF: 3)
    5188:	00005806 	andeq	r5, r0, r6, lsl #16
    518c:	05020300 	streq	r0, [r2, #-768]	; 0xfffffd00
    5190:	00000194 	muleq	r0, r4, r1
    5194:	7f050403 	svcvc	0x00050403
    5198:	03000001 	movweq	r0, #1
    519c:	017a0508 	cmneq	sl, r8, lsl #10
    51a0:	01030000 	mrseq	r0, (UNDEF: 3)
    51a4:	00005608 	andeq	r5, r0, r8, lsl #12
    51a8:	07020300 	streq	r0, [r2, -r0, lsl #6]
    51ac:	0000006d 	andeq	r0, r0, sp, rrx
    51b0:	62070403 	andvs	r0, r7, #50331648	; 0x3000000
    51b4:	03000001 	movweq	r0, #1
    51b8:	015d0708 	cmpeq	sp, r8, lsl #14
    51bc:	25040000 	strcs	r0, [r4, #-0]
    51c0:	7a000000 	bvc	51c8 <__code_start__-0x2e38>
    51c4:	05000000 	streq	r0, [r0, #-0]
    51c8:	00000025 	andeq	r0, r0, r5, lsr #32
    51cc:	01880600 	orreq	r0, r8, r0, lsl #12
    51d0:	1c020000 	stcne	0, cr0, [r2], {-0}
    51d4:	0000860e 	andeq	r8, r0, lr, lsl #12
    51d8:	6b040700 	blvs	106de0 <__bss_end__+0xfcdf0>
    51dc:	04000000 	streq	r0, [r0], #-0
    51e0:	00000025 	andeq	r0, r0, r5, lsr #32
    51e4:	0000009b 	muleq	r0, fp, r0
    51e8:	00009b05 	andeq	r9, r0, r5, lsl #22
    51ec:	04070000 	streq	r0, [r7], #-0
    51f0:	000000a8 	andeq	r0, r0, r8, lsr #1
    51f4:	5f080103 	svcpl	0x00080103
    51f8:	08000000 	stmdaeq	r0, {}	; <UNPREDICTABLE>
    51fc:	000000a1 	andeq	r0, r0, r1, lsr #1
    5200:	0006a206 	andeq	sl, r6, r6, lsl #4
    5204:	0e210200 	cdpeq	2, 2, cr0, cr1, cr0, {0}
    5208:	000000b9 	strheq	r0, [r0], -r9
    520c:	008c0407 	addeq	r0, ip, r7, lsl #8
    5210:	aa090000 	bge	245218 <__bss_end__+0x23b228>
    5214:	01000007 	tsteq	r0, r7
    5218:	9420060c 	strtls	r0, [r0], #-1548	; 0xfffff9f4
    521c:	00100000 	andseq	r0, r0, r0
    5220:	9c010000 	stcls	0, cr0, [r1], {-0}
    5224:	000000e8 	andeq	r0, r0, r8, ror #1
    5228:	0100720a 	tsteq	r0, sl, lsl #4
    522c:	002c0e0d 	eoreq	r0, ip, sp, lsl #28
    5230:	37ad0000 	strcc	r0, [sp, r0]!
    5234:	37a70000 	strcc	r0, [r7, r0]!
    5238:	0b000000 	bleq	5240 <__code_start__-0x2dc0>
    523c:	0000019e 	muleq	r0, lr, r1
    5240:	10060301 	andne	r0, r6, r1, lsl #6
    5244:	10000094 	mulne	r0, r4, r0
    5248:	01000000 	mrseq	r0, (UNDEF: 0)
    524c:	00720a9c 			; <UNDEFINED> instruction: 0x00720a9c
    5250:	2c0e0401 	cfstrscs	mvf0, [lr], {1}
    5254:	e2000000 	and	r0, r0, #0, 0
    5258:	dc000037 	stcle	0, cr0, [r0], {55}	; 0x37
    525c:	00000037 	andeq	r0, r0, r7, lsr r0
    5260:	00012f00 	andeq	r2, r1, r0, lsl #30
    5264:	cb000400 	blgt	626c <__code_start__-0x1d94>
    5268:	0400000e 	streq	r0, [r0], #-14
    526c:	00041b01 	andeq	r1, r4, r1, lsl #22
    5270:	07d70c00 	ldrbeq	r0, [r7, r0, lsl #24]
    5274:	03d10000 	bicseq	r0, r1, #0, 0
    5278:	94300000 	ldrtls	r0, [r0], #-0
    527c:	002c0000 	eoreq	r0, ip, r0
    5280:	23bf0000 			; <UNDEFINED> instruction: 0x23bf0000
    5284:	04020000 	streq	r0, [r2], #-0
    5288:	746e6905 	strbtvc	r6, [lr], #-2309	; 0xfffff6fb
    528c:	07040300 	streq	r0, [r4, -r0, lsl #6]
    5290:	00000167 	andeq	r0, r0, r7, ror #2
    5294:	58060103 	stmdapl	r6, {r0, r1, r8}
    5298:	03000000 	movweq	r0, #0
    529c:	01940502 	orrseq	r0, r4, r2, lsl #10
    52a0:	04030000 	streq	r0, [r3], #-0
    52a4:	00017f05 	andeq	r7, r1, r5, lsl #30
    52a8:	05080300 	streq	r0, [r8, #-768]	; 0xfffffd00
    52ac:	0000017a 	andeq	r0, r0, sl, ror r1
    52b0:	56080103 	strpl	r0, [r8], -r3, lsl #2
    52b4:	03000000 	movweq	r0, #0
    52b8:	006d0702 	rsbeq	r0, sp, r2, lsl #14
    52bc:	04030000 	streq	r0, [r3], #-0
    52c0:	00016207 	andeq	r6, r1, r7, lsl #4
    52c4:	07080300 	streq	r0, [r8, -r0, lsl #6]
    52c8:	0000015d 	andeq	r0, r0, sp, asr r1
    52cc:	00002504 	andeq	r2, r0, r4, lsl #10
    52d0:	00007a00 	andeq	r7, r0, r0, lsl #20
    52d4:	00250500 	eoreq	r0, r5, r0, lsl #10
    52d8:	06000000 	streq	r0, [r0], -r0
    52dc:	00000188 	andeq	r0, r0, r8, lsl #3
    52e0:	860e1c02 	strhi	r1, [lr], -r2, lsl #24
    52e4:	07000000 	streq	r0, [r0, -r0]
    52e8:	00006b04 	andeq	r6, r0, r4, lsl #22
    52ec:	00250400 	eoreq	r0, r5, r0, lsl #8
    52f0:	009b0000 	addseq	r0, fp, r0
    52f4:	9b050000 	blls	1452fc <__bss_end__+0x13b30c>
    52f8:	00000000 	andeq	r0, r0, r0
    52fc:	00a80407 	adceq	r0, r8, r7, lsl #8
    5300:	01030000 	mrseq	r0, (UNDEF: 3)
    5304:	00005f08 	andeq	r5, r0, r8, lsl #30
    5308:	00a10800 	adceq	r0, r1, r0, lsl #16
    530c:	a2060000 	andge	r0, r6, #0, 0
    5310:	02000006 	andeq	r0, r0, #6, 0
    5314:	00b90e21 	adcseq	r0, r9, r1, lsr #28
    5318:	04070000 	streq	r0, [r7], #-0
    531c:	0000008c 	andeq	r0, r0, ip, lsl #1
    5320:	00059a09 	andeq	r9, r5, r9, lsl #20
    5324:	06040100 	streq	r0, [r4], -r0, lsl #2
    5328:	00009430 	andeq	r9, r0, r0, lsr r4
    532c:	0000002c 	andeq	r0, r0, ip, lsr #32
    5330:	010e9c01 	tsteq	lr, r1, lsl #24
    5334:	440a0000 	strmi	r0, [sl], #-0
    5338:	e8000094 	stmda	r0, {r2, r4, r7}
    533c:	0b000000 	bleq	5344 <__code_start__-0x2cbc>
    5340:	03055001 	movweq	r5, #20481	; 0x5001
    5344:	00009bc8 	andeq	r9, r0, r8, asr #23
    5348:	94480c00 	strbls	r0, [r8], #-3072	; 0xfffff400
    534c:	010e0000 	mrseq	r0, (UNDEF: 14)
    5350:	500d0000 	andpl	r0, sp, r0
    5354:	1a000094 	bne	55ac <__code_start__-0x2a54>
    5358:	04000001 	streq	r0, [r0], #-1
    535c:	0b000001 	bleq	5368 <__code_start__-0x2c98>
    5360:	3a015001 	bcc	5936c <__bss_end__+0x4f37c>
    5364:	94540c00 	ldrbls	r0, [r4], #-3072	; 0xfffff400
    5368:	01260000 			; <UNDEFINED> instruction: 0x01260000
    536c:	0e000000 	cdpeq	0, 0, cr0, cr0, cr0, {0}
    5370:	000007f2 	strdeq	r0, [r0], -r2
    5374:	000007f2 	strdeq	r0, [r0], -r2
    5378:	0e064d02 	cdpeq	13, 0, cr4, cr6, cr2, {0}
    537c:	00000064 	andeq	r0, r0, r4, rrx
    5380:	00000064 	andeq	r0, r0, r4, rrx
    5384:	0e065802 	cdpeq	8, 0, cr5, cr6, cr2, {0}
    5388:	000007cc 	andeq	r0, r0, ip, asr #15
    538c:	000007cc 	andeq	r0, r0, ip, asr #15
    5390:	00066b02 	andeq	r6, r6, r2, lsl #22
    5394:	00000189 	andeq	r0, r0, r9, lsl #3
    5398:	0f8b0004 	svceq	0x008b0004
    539c:	01040000 	mrseq	r0, (UNDEF: 4)
    53a0:	0000041b 	andeq	r0, r0, fp, lsl r4
    53a4:	0008280c 	andeq	r2, r8, ip, lsl #16
    53a8:	0003d100 	andeq	sp, r3, r0, lsl #2
    53ac:	00945c00 	addseq	r5, r4, r0, lsl #24
    53b0:	00003c00 	andeq	r3, r0, r0, lsl #24
    53b4:	00246500 	eoreq	r6, r4, r0, lsl #10
    53b8:	05040200 	streq	r0, [r4, #-512]	; 0xfffffe00
    53bc:	00746e69 	rsbseq	r6, r4, r9, ror #28
    53c0:	67070403 	strvs	r0, [r7, -r3, lsl #8]
    53c4:	03000001 	movweq	r0, #1
    53c8:	00580601 	subseq	r0, r8, r1, lsl #12
    53cc:	02030000 	andeq	r0, r3, #0, 0
    53d0:	00019405 	andeq	r9, r1, r5, lsl #8
    53d4:	05040300 	streq	r0, [r4, #-768]	; 0xfffffd00
    53d8:	0000017f 	andeq	r0, r0, pc, ror r1
    53dc:	7a050803 	bvc	1473f0 <__bss_end__+0x13d400>
    53e0:	03000001 	movweq	r0, #1
    53e4:	00560801 	subseq	r0, r6, r1, lsl #16
    53e8:	02030000 	andeq	r0, r3, #0, 0
    53ec:	00006d07 	andeq	r6, r0, r7, lsl #26
    53f0:	07040300 	streq	r0, [r4, -r0, lsl #6]
    53f4:	00000162 	andeq	r0, r0, r2, ror #2
    53f8:	5d070803 	stcpl	8, cr0, [r7, #-12]
    53fc:	04000001 	streq	r0, [r0], #-1
    5400:	00000025 	andeq	r0, r0, r5, lsr #32
    5404:	0000007a 	andeq	r0, r0, sl, ror r0
    5408:	00002505 	andeq	r2, r0, r5, lsl #10
    540c:	88060000 	stmdahi	r6, {}	; <UNPREDICTABLE>
    5410:	02000001 	andeq	r0, r0, #1, 0
    5414:	00860e1c 	addeq	r0, r6, ip, lsl lr
    5418:	04070000 	streq	r0, [r7], #-0
    541c:	0000006b 	andeq	r0, r0, fp, rrx
    5420:	00002504 	andeq	r2, r0, r4, lsl #10
    5424:	00009b00 	andeq	r9, r0, r0, lsl #22
    5428:	009b0500 	addseq	r0, fp, r0, lsl #10
    542c:	07000000 	streq	r0, [r0, -r0]
    5430:	0000a804 	andeq	sl, r0, r4, lsl #16
    5434:	08010300 	stmdaeq	r1, {r8, r9}
    5438:	0000005f 	andeq	r0, r0, pc, asr r0
    543c:	0000a108 	andeq	sl, r0, r8, lsl #2
    5440:	06a20600 	strteq	r0, [r2], r0, lsl #12
    5444:	21020000 	mrscs	r0, (UNDEF: 2)
    5448:	0000b90e 	andeq	fp, r0, lr, lsl #18
    544c:	8c040700 	stchi	7, cr0, [r4], {-0}
    5450:	09000000 	stmdbeq	r0, {}	; <UNPREDICTABLE>
    5454:	00000800 	andeq	r0, r0, r0, lsl #16
    5458:	5c060401 	cfstrspl	mvf0, [r6], {1}
    545c:	3c000094 	stccc	0, cr0, [r0], {148}	; 0x94
    5460:	01000000 	mrseq	r0, (UNDEF: 0)
    5464:	0001549c 	muleq	r1, ip, r4
    5468:	06e80600 	strbteq	r0, [r8], r0, lsl #12
    546c:	05010000 	streq	r0, [r1, #-0]
    5470:	00002510 	andeq	r2, r0, r0, lsl r5
    5474:	07110600 	ldreq	r0, [r1, -r0, lsl #12]
    5478:	05010000 	streq	r0, [r1, #-0]
    547c:	0000251f 	andeq	r2, r0, pc, lsl r5
    5480:	003a0a00 	eorseq	r0, sl, r0, lsl #20
    5484:	06010000 	streq	r0, [r1], -r0
    5488:	73620b07 	cmnvc	r2, #7168	; 0x1c00
    548c:	0a010073 	beq	45660 <__bss_end__+0x3b670>
    5490:	0001540a 	andeq	r5, r1, sl, lsl #8
    5494:	00381700 	eorseq	r1, r8, r0, lsl #14
    5498:	00381100 	eorseq	r1, r8, r0, lsl #2
    549c:	08080c00 	stmdaeq	r8, {sl, fp}
    54a0:	0b010000 	bleq	454a8 <__bss_end__+0x3b4b8>
    54a4:	0001540a 	andeq	r5, r1, sl, lsl #8
    54a8:	94800d00 	strls	r0, [r0], #3328	; 0xd00
    54ac:	00080000 	andeq	r0, r8, r0
    54b0:	012f0000 			; <UNDEFINED> instruction: 0x012f0000
    54b4:	690e0000 	stmdbvs	lr, {}	; <UNPREDICTABLE>
    54b8:	1401006e 	strne	r0, [r1], #-110	; 0xffffff92
    54bc:	00002c05 	andeq	r2, r0, r5, lsl #24
    54c0:	0f000100 	svceq	0x00000100
    54c4:	00009464 	andeq	r9, r0, r4, ror #8
    54c8:	0000015a 	andeq	r0, r0, sl, asr r1
    54cc:	0094800f 	addseq	r8, r4, pc
    54d0:	00016700 	andeq	r6, r1, r0, lsl #14
    54d4:	948c0f00 	strls	r0, [ip], #3840	; 0xf00
    54d8:	01730000 	cmneq	r3, r0
    54dc:	900f0000 	andls	r0, pc, r0
    54e0:	80000094 	mulhi	r0, r4, r0
    54e4:	00000001 	andeq	r0, r0, r1
    54e8:	00250407 	eoreq	r0, r5, r7, lsl #8
    54ec:	1a100000 	bne	4054f4 <__bss_end__+0x3fb504>
    54f0:	1a000008 	bne	5518 <__code_start__-0x2ae8>
    54f4:	02000008 	andeq	r0, r0, #8, 0
    54f8:	11060133 	tstne	r6, r3, lsr r1
    54fc:	00000810 	andeq	r0, r0, r0, lsl r8
    5500:	00000810 	andeq	r0, r0, r0, lsl r8
    5504:	10063b02 	andne	r3, r6, r2, lsl #22
    5508:	0000003a 	andeq	r0, r0, sl, lsr r0
    550c:	0000003a 	andeq	r0, r0, sl, lsr r0
    5510:	06010702 	streq	r0, [r1], -r2, lsl #14
    5514:	00059a11 	andeq	r9, r5, r1, lsl sl
    5518:	00059a00 	andeq	r9, r5, r0, lsl #20
    551c:	066e0200 	strbteq	r0, [lr], -r0, lsl #4
    5520:	0000ce00 	andeq	ip, r0, r0, lsl #28
    5524:	87000400 	strhi	r0, [r0, -r0, lsl #8]
    5528:	04000010 	streq	r0, [r0], #-16
    552c:	00041b01 	andeq	r1, r4, r1, lsl #22
    5530:	083d0c00 	ldmdaeq	sp!, {sl, fp}
    5534:	03d10000 	bicseq	r0, r1, #0, 0
    5538:	94980000 	ldrls	r0, [r8], #0
    553c:	00040000 	andeq	r0, r4, r0
    5540:	25250000 	strcs	r0, [r5, #-0]!
    5544:	04020000 	streq	r0, [r2], #-0
    5548:	746e6905 	strbtvc	r6, [lr], #-2309	; 0xfffff6fb
    554c:	07040300 	streq	r0, [r4, -r0, lsl #6]
    5550:	00000167 	andeq	r0, r0, r7, ror #2
    5554:	58060103 	stmdapl	r6, {r0, r1, r8}
    5558:	03000000 	movweq	r0, #0
    555c:	01940502 	orrseq	r0, r4, r2, lsl #10
    5560:	04030000 	streq	r0, [r3], #-0
    5564:	00017f05 	andeq	r7, r1, r5, lsl #30
    5568:	05080300 	streq	r0, [r8, #-768]	; 0xfffffd00
    556c:	0000017a 	andeq	r0, r0, sl, ror r1
    5570:	56080103 	strpl	r0, [r8], -r3, lsl #2
    5574:	03000000 	movweq	r0, #0
    5578:	006d0702 	rsbeq	r0, sp, r2, lsl #14
    557c:	04030000 	streq	r0, [r3], #-0
    5580:	00016207 	andeq	r6, r1, r7, lsl #4
    5584:	07080300 	streq	r0, [r8, -r0, lsl #6]
    5588:	0000015d 	andeq	r0, r0, sp, asr r1
    558c:	00002504 	andeq	r2, r0, r4, lsl #10
    5590:	00007a00 	andeq	r7, r0, r0, lsl #20
    5594:	00250500 	eoreq	r0, r5, r0, lsl #10
    5598:	06000000 	streq	r0, [r0], -r0
    559c:	00000188 	andeq	r0, r0, r8, lsl #3
    55a0:	860e1c02 	strhi	r1, [lr], -r2, lsl #24
    55a4:	07000000 	streq	r0, [r0, -r0]
    55a8:	00006b04 	andeq	r6, r0, r4, lsl #22
    55ac:	00250400 	eoreq	r0, r5, r0, lsl #8
    55b0:	009b0000 	addseq	r0, fp, r0
    55b4:	9b050000 	blls	1455bc <__bss_end__+0x13b5cc>
    55b8:	00000000 	andeq	r0, r0, r0
    55bc:	00a80407 	adceq	r0, r8, r7, lsl #8
    55c0:	01030000 	mrseq	r0, (UNDEF: 3)
    55c4:	00005f08 	andeq	r5, r0, r8, lsl #30
    55c8:	00a10800 	adceq	r0, r1, r0, lsl #16
    55cc:	a2060000 	andge	r0, r6, #0, 0
    55d0:	02000006 	andeq	r0, r0, #6, 0
    55d4:	00b90e21 	adcseq	r0, r9, r1, lsr #28
    55d8:	04070000 	streq	r0, [r7], #-0
    55dc:	0000008c 	andeq	r0, r0, ip, lsl #1
    55e0:	00081a09 	andeq	r1, r8, r9, lsl #20
    55e4:	06040100 	streq	r0, [r4], -r0, lsl #2
    55e8:	00009498 	muleq	r0, r8, r4
    55ec:	00000004 	andeq	r0, r0, r4
    55f0:	36009c01 	strcc	r9, [r0], -r1, lsl #24
    55f4:	04000002 	streq	r0, [r0], #-2
    55f8:	00110000 	andseq	r0, r1, r0
    55fc:	1b010400 	blne	46604 <__bss_end__+0x3c614>
    5600:	0c000004 	stceq	0, cr0, [r0], {4}
    5604:	0000087f 	andeq	r0, r0, pc, ror r8
    5608:	000003d1 	ldrdeq	r0, [r0], -r1
    560c:	00002a90 	muleq	r0, r0, sl
    5610:	00000000 	andeq	r0, r0, r0
    5614:	000025c9 	andeq	r2, r0, r9, asr #11
    5618:	69050402 	stmdbvs	r5, {r1, sl}
    561c:	0300746e 	movweq	r7, #1134	; 0x46e
    5620:	00000025 	andeq	r0, r0, r5, lsr #32
    5624:	67070404 	strvs	r0, [r7, -r4, lsl #8]
    5628:	04000001 	streq	r0, [r0], #-1
    562c:	00580601 	subseq	r0, r8, r1, lsl #12
    5630:	02040000 	andeq	r0, r4, #0, 0
    5634:	00019405 	andeq	r9, r1, r5, lsl #8
    5638:	05040400 	streq	r0, [r4, #-1024]	; 0xfffffc00
    563c:	0000017f 	andeq	r0, r0, pc, ror r1
    5640:	7a050804 	bvc	147658 <__bss_end__+0x13d668>
    5644:	04000001 	streq	r0, [r0], #-1
    5648:	00560801 	subseq	r0, r6, r1, lsl #16
    564c:	02040000 	andeq	r0, r4, #0, 0
    5650:	00006d07 	andeq	r6, r0, r7, lsl #26
    5654:	07040400 	streq	r0, [r4, -r0, lsl #8]
    5658:	00000162 	andeq	r0, r0, r2, ror #2
    565c:	5d070804 	stcpl	8, cr0, [r7, #-16]
    5660:	05000001 	streq	r0, [r0, #-1]
    5664:	00000025 	andeq	r0, r0, r5, lsr #32
    5668:	0000007f 	andeq	r0, r0, pc, ror r0
    566c:	00002506 	andeq	r2, r0, r6, lsl #10
    5670:	88070000 	stmdahi	r7, {}	; <UNPREDICTABLE>
    5674:	02000001 	andeq	r0, r0, #1, 0
    5678:	008b0e1c 	addeq	r0, fp, ip, lsl lr
    567c:	04080000 	streq	r0, [r8], #-0
    5680:	00000070 	andeq	r0, r0, r0, ror r0
    5684:	00002505 	andeq	r2, r0, r5, lsl #10
    5688:	0000a000 	andeq	sl, r0, r0
    568c:	00a00600 	adceq	r0, r0, r0, lsl #12
    5690:	08000000 	stmdaeq	r0, {}	; <UNPREDICTABLE>
    5694:	0000ad04 	andeq	sl, r0, r4, lsl #26
    5698:	08010400 	stmdaeq	r1, {sl}
    569c:	0000005f 	andeq	r0, r0, pc, asr r0
    56a0:	0000a603 	andeq	sl, r0, r3, lsl #12
    56a4:	06a20700 	strteq	r0, [r2], r0, lsl #14
    56a8:	21020000 	mrscs	r0, (UNDEF: 2)
    56ac:	0000be0e 	andeq	fp, r0, lr, lsl #28
    56b0:	91040800 	tstls	r4, r0, lsl #16
    56b4:	09000000 	stmdbeq	r0, {}	; <UNPREDICTABLE>
    56b8:	000008a3 	andeq	r0, r0, r3, lsr #17
    56bc:	31110d01 	tstcc	r1, r1, lsl #26
    56c0:	0a000000 	beq	56c8 <__code_start__-0x2938>
    56c4:	000007cc 	andeq	r0, r0, ip, asr #15
    56c8:	c8061f01 	stmdagt	r6, {r0, r8, r9, sl, fp, ip}
    56cc:	54000094 	strpl	r0, [r0], #-148	; 0xffffff6c
    56d0:	01000000 	mrseq	r0, (UNDEF: 0)
    56d4:	0001ae9c 	muleq	r1, ip, lr
    56d8:	08c70b00 	stmiaeq	r7, {r8, r9, fp}^
    56dc:	2c010000 	stccs	0, cr0, [r1], {-0}
    56e0:	00002c0f 	andeq	r2, r0, pc, lsl #24
    56e4:	00384400 	eorseq	r4, r8, r0, lsl #8
    56e8:	00384200 	eorseq	r4, r8, r0, lsl #4
    56ec:	08680b00 	stmdaeq	r8!, {r8, r9, fp}^
    56f0:	2d010000 	stccs	0, cr0, [r1, #-0]
    56f4:	00002c0f 	andeq	r2, r0, pc, lsl #24
    56f8:	00385e00 	eorseq	r5, r8, r0, lsl #28
    56fc:	00385c00 	eorseq	r5, r8, r0, lsl #24
    5700:	08940b00 	ldmeq	r4, {r8, r9, fp}
    5704:	2e010000 	cdpcs	0, 0, cr0, cr1, cr0, {0}
    5708:	00002c0f 	andeq	r2, r0, pc, lsl #24
    570c:	00387800 	eorseq	r7, r8, r0, lsl #16
    5710:	00387600 	eorseq	r7, r8, r0, lsl #12
    5714:	08ae0b00 	stmiaeq	lr!, {r8, r9, fp}
    5718:	2f010000 	svccs	0x00010000
    571c:	00002c0f 	andeq	r2, r0, pc, lsl #24
    5720:	00389100 	eorseq	r9, r8, r0, lsl #2
    5724:	00388f00 	eorseq	r8, r8, r0, lsl #30
    5728:	94d00c00 	ldrbls	r0, [r0], #3072	; 0xc00
    572c:	01d90000 	bicseq	r0, r9, r0
    5730:	dc0c0000 	stcle	0, cr0, [ip], {-0}
    5734:	08000094 	stmdaeq	r0, {r2, r4, r7}
    5738:	0c000002 	stceq	0, cr0, [r0], {2}
    573c:	000094e0 	andeq	r9, r0, r0, ror #9
    5740:	00000215 	andeq	r0, r0, r5, lsl r2
    5744:	0094e80d 	addseq	lr, r4, sp, lsl #16
    5748:	00022100 	andeq	r2, r2, r0, lsl #2
    574c:	00016400 	andeq	r6, r1, r0, lsl #8
    5750:	50010e00 	andpl	r0, r1, r0, lsl #28
    5754:	0d003a01 	vstreq	s6, [r0, #-4]
    5758:	000094f4 	strdeq	r9, [r0], -r4
    575c:	0000022d 	andeq	r0, r0, sp, lsr #4
    5760:	00000184 	andeq	r0, r0, r4, lsl #3
    5764:	0550010e 	ldrbeq	r0, [r0, #-270]	; 0xfffffef2
    5768:	1000240c 	andne	r2, r0, ip, lsl #8
    576c:	51010e20 	tstpl	r1, r0, lsr #28
    5770:	00010c05 	andeq	r0, r1, r5, lsl #24
    5774:	0d005a00 	vstreq	s10, [r0, #-0]
    5778:	00009500 	andeq	r9, r0, r0, lsl #10
    577c:	0000022d 	andeq	r0, r0, sp, lsr #4
    5780:	000001a4 	andeq	r0, r0, r4, lsr #3
    5784:	0550010e 	ldrbeq	r0, [r0, #-270]	; 0xfffffef2
    5788:	10001c0c 	andne	r1, r0, ip, lsl #24
    578c:	51010e20 	tstpl	r1, r0, lsr #28
    5790:	00200c05 	eoreq	r0, r0, r5, lsl #24
    5794:	0c005a00 			; <UNDEFINED> instruction: 0x0c005a00
    5798:	00009508 	andeq	r9, r0, r8, lsl #10
    579c:	000001ae 	andeq	r0, r0, lr, lsr #3
    57a0:	08700f00 	ldmdaeq	r0!, {r8, r9, sl, fp}^
    57a4:	17010000 	strne	r0, [r1, -r0]
    57a8:	0094b406 	addseq	fp, r4, r6, lsl #8
    57ac:	00001400 	andeq	r1, r0, r0, lsl #8
    57b0:	d99c0100 	ldmible	ip, {r8}
    57b4:	0b000001 	bleq	57c0 <__code_start__-0x2840>
    57b8:	000008cf 	andeq	r0, r0, pc, asr #17
    57bc:	310e1801 	tstcc	lr, r1, lsl #16
    57c0:	ac000000 	stcge	0, cr0, [r0], {-0}
    57c4:	a6000038 			; <UNDEFINED> instruction: 0xa6000038
    57c8:	00000038 	andeq	r0, r0, r8, lsr r0
    57cc:	0008a010 	andeq	sl, r8, r0, lsl r0
    57d0:	050e0100 	streq	r0, [lr, #-256]	; 0xffffff00
    57d4:	00000025 	andeq	r0, r0, r5, lsr #32
    57d8:	0000949c 	muleq	r0, ip, r4
    57dc:	00000018 	andeq	r0, r0, r8, lsl r0
    57e0:	02089c01 	andeq	r9, r8, #256	; 0x100
    57e4:	cf0b0000 	svcgt	0x000b0000
    57e8:	01000008 	tsteq	r0, r8
    57ec:	00310e0f 	eorseq	r0, r1, pc, lsl #28
    57f0:	38da0000 	ldmcc	sl, {}^	; <UNPREDICTABLE>
    57f4:	38d60000 	ldmcc	r6, {}^	; <UNPREDICTABLE>
    57f8:	11000000 	mrsne	r0, (UNDEF: 0)
    57fc:	00000859 	andeq	r0, r0, r9, asr r8
    5800:	00000859 	andeq	r0, r0, r9, asr r8
    5804:	06013802 	streq	r3, [r1], -r2, lsl #16
    5808:	0007f212 	andeq	pc, r7, r2, lsl r2	; <UNPREDICTABLE>
    580c:	0007f200 	andeq	pc, r7, r0, lsl #4
    5810:	064d0200 	strbeq	r0, [sp], -r0, lsl #4
    5814:	00006412 	andeq	r6, r0, r2, lsl r4
    5818:	00006400 	andeq	r6, r0, r0, lsl #8
    581c:	06580200 	ldrbeq	r0, [r8], -r0, lsl #4
    5820:	00032c12 	andeq	r2, r3, r2, lsl ip
    5824:	00032c00 	andeq	r2, r3, r0, lsl #24
    5828:	06af0200 	strteq	r0, [pc], r0, lsl #4
    582c:	00024d00 	andeq	r4, r2, r0, lsl #26
    5830:	25000400 	strcs	r0, [r0, #-1024]	; 0xfffffc00
    5834:	04000012 	streq	r0, [r0], #-18	; 0xffffffee
    5838:	00041b01 	andeq	r1, r4, r1, lsl #22
    583c:	08ea0c00 	stmiaeq	sl!, {sl, fp}^
    5840:	03d10000 	bicseq	r0, r1, #0, 0
    5844:	951c0000 	ldrls	r0, [ip, #-0]
    5848:	00840000 	addeq	r0, r4, r0
    584c:	26bd0000 	ldrtcs	r0, [sp], r0
    5850:	04020000 	streq	r0, [r2], #-0
    5854:	746e6905 	strbtvc	r6, [lr], #-2309	; 0xfffff6fb
    5858:	07040300 	streq	r0, [r4, -r0, lsl #6]
    585c:	00000167 	andeq	r0, r0, r7, ror #2
    5860:	58060103 	stmdapl	r6, {r0, r1, r8}
    5864:	03000000 	movweq	r0, #0
    5868:	01940502 	orrseq	r0, r4, r2, lsl #10
    586c:	04030000 	streq	r0, [r3], #-0
    5870:	00017f05 	andeq	r7, r1, r5, lsl #30
    5874:	05080300 	streq	r0, [r8, #-768]	; 0xfffffd00
    5878:	0000017a 	andeq	r0, r0, sl, ror r1
    587c:	56080103 	strpl	r0, [r8], -r3, lsl #2
    5880:	03000000 	movweq	r0, #0
    5884:	006d0702 	rsbeq	r0, sp, r2, lsl #14
    5888:	04030000 	streq	r0, [r3], #-0
    588c:	00016207 	andeq	r6, r1, r7, lsl #4
    5890:	07080300 	streq	r0, [r8, -r0, lsl #6]
    5894:	0000015d 	andeq	r0, r0, sp, asr r1
    5898:	00002504 	andeq	r2, r0, r4, lsl #10
    589c:	00007a00 	andeq	r7, r0, r0, lsl #20
    58a0:	00250500 	eoreq	r0, r5, r0, lsl #10
    58a4:	06000000 	streq	r0, [r0], -r0
    58a8:	00000188 	andeq	r0, r0, r8, lsl #3
    58ac:	860e1c02 	strhi	r1, [lr], -r2, lsl #24
    58b0:	07000000 	streq	r0, [r0, -r0]
    58b4:	00006b04 	andeq	r6, r0, r4, lsl #22
    58b8:	00250400 	eoreq	r0, r5, r0, lsl #8
    58bc:	009b0000 	addseq	r0, fp, r0
    58c0:	9b050000 	blls	1458c8 <__bss_end__+0x13b8d8>
    58c4:	00000000 	andeq	r0, r0, r0
    58c8:	00a80407 	adceq	r0, r8, r7, lsl #8
    58cc:	01030000 	mrseq	r0, (UNDEF: 3)
    58d0:	00005f08 	andeq	r5, r0, r8, lsl #30
    58d4:	00a10800 	adceq	r0, r1, r0, lsl #16
    58d8:	a2060000 	andge	r0, r6, #0, 0
    58dc:	02000006 	andeq	r0, r0, #6, 0
    58e0:	00b90e21 	adcseq	r0, r9, r1, lsr #28
    58e4:	04070000 	streq	r0, [r7], #-0
    58e8:	0000008c 	andeq	r0, r0, ip, lsl #1
    58ec:	0008e009 	andeq	lr, r8, r9
    58f0:	061e0100 	ldreq	r0, [lr], -r0, lsl #2
    58f4:	00009588 	andeq	r9, r0, r8, lsl #11
    58f8:	00000018 	andeq	r0, r0, r8, lsl r0
    58fc:	01099c01 	tsteq	r9, r1, lsl #24
    5900:	730a0000 	movwvc	r0, #40960	; 0xa000
    5904:	01006365 	tsteq	r0, r5, ror #6
    5908:	002c191e 	eoreq	r1, ip, lr, lsl r9
    590c:	38fd0000 	ldmcc	sp!, {}^	; <UNPREDICTABLE>
    5910:	38f90000 	ldmcc	r9!, {}^	; <UNPREDICTABLE>
    5914:	9c0b0000 	stcls	0, cr0, [fp], {-0}
    5918:	09000095 	stmdbeq	r0, {r0, r2, r4, r7}
    591c:	0c000001 	stceq	0, cr0, [r0], {1}
    5920:	f3115001 	vhadd.u16	d5, d1, d1
    5924:	24355001 	ldrtcs	r5, [r5], #-1
    5928:	1c5001f3 	ldfnee	f0, [r0], {243}	; 0xf3
    592c:	01f32432 	mvnseq	r2, r2, lsr r4
    5930:	24332250 	ldrtcs	r2, [r3], #-592	; 0xfffffdb0
    5934:	64090000 	strvs	r0, [r9], #-0
    5938:	01000000 	mrseq	r0, (UNDEF: 0)
    593c:	9570061b 	ldrbls	r0, [r0, #-1563]!	; 0xfffff9e5
    5940:	00180000 	andseq	r0, r8, r0
    5944:	9c010000 	stcls	0, cr0, [r1], {-0}
    5948:	00000152 	andeq	r0, r0, r2, asr r1
    594c:	00736d0a 	rsbseq	r6, r3, sl, lsl #26
    5950:	2c181b01 			; <UNDEFINED> instruction: 0x2c181b01
    5954:	22000000 	andcs	r0, r0, #0, 0
    5958:	1e000039 	mcrne	0, 0, r0, cr0, cr9, {1}
    595c:	0b000039 	bleq	5a48 <__code_start__-0x25b8>
    5960:	00009584 	andeq	r9, r0, r4, lsl #11
    5964:	00000152 	andeq	r0, r0, r2, asr r1
    5968:	1150010c 	cmpne	r0, ip, lsl #2
    596c:	355001f3 	ldrbcc	r0, [r0, #-499]	; 0xfffffe0d
    5970:	5001f324 	andpl	pc, r1, r4, lsr #6
    5974:	f324321c 	vqsub.u32	d3, d4, d12
    5978:	33225001 			; <UNDEFINED> instruction: 0x33225001
    597c:	09000024 	stmdbeq	r0, {r2, r5}
    5980:	0000090d 	andeq	r0, r0, sp, lsl #18
    5984:	4c061201 	sfmmi	f1, 4, [r6], {1}
    5988:	24000095 	strcs	r0, [r0], #-149	; 0xffffff6b
    598c:	01000000 	mrseq	r0, (UNDEF: 0)
    5990:	0001c29c 	muleq	r1, ip, r2
    5994:	73750a00 	cmnvc	r5, #0, 20
    5998:	18120100 	ldmdane	r2, {r8}
    599c:	0000002c 	andeq	r0, r0, ip, lsr #32
    59a0:	00003947 	andeq	r3, r0, r7, asr #18
    59a4:	00003943 	andeq	r3, r0, r3, asr #18
    59a8:	0062720d 	rsbeq	r7, r2, sp, lsl #4
    59ac:	2c0e1301 	stccs	3, cr1, [lr], {1}
    59b0:	67000000 	strvs	r0, [r0, -r0]
    59b4:	65000039 	strvs	r0, [r0, #-57]	; 0xffffffc7
    59b8:	0e000039 	mcreq	0, 0, r0, cr0, cr9, {1}
    59bc:	0000955c 	andeq	r9, r0, ip, asr r5
    59c0:	00000014 	andeq	r0, r0, r4, lsl r0
    59c4:	000001b8 			; <UNDEFINED> instruction: 0x000001b8
    59c8:	0061720d 	rsbeq	r7, r1, sp, lsl #4
    59cc:	2c121501 	cfldr32cs	mvfx1, [r2], {1}
    59d0:	7c000000 	stcvc	0, cr0, [r0], {-0}
    59d4:	7a000039 	bvc	5ac0 <__code_start__-0x2540>
    59d8:	0f000039 	svceq	0x00000039
    59dc:	00009560 	andeq	r9, r0, r0, ror #10
    59e0:	000001c2 	andeq	r0, r0, r2, asr #3
    59e4:	95580f00 	ldrbls	r0, [r8, #-3840]	; 0xfffff100
    59e8:	01c20000 	biceq	r0, r2, r0
    59ec:	10000000 	andne	r0, r0, r0
    59f0:	000008fe 	strdeq	r0, [r0], -lr
    59f4:	2c0a0901 			; <UNDEFINED> instruction: 0x2c0a0901
    59f8:	30000000 	andcc	r0, r0, r0
    59fc:	1c000095 	stcne	0, cr0, [r0], {149}	; 0x95
    5a00:	01000000 	mrseq	r0, (UNDEF: 0)
    5a04:	00020a9c 	muleq	r2, ip, sl
    5a08:	00750d00 	rsbseq	r0, r5, r0, lsl #26
    5a0c:	2c0e0d01 	stccs	13, cr0, [lr], {1}
    5a10:	93000000 	movwls	r0, #0
    5a14:	8f000039 	svchi	0x00000039
    5a18:	0f000039 	svceq	0x00000039
    5a1c:	00009538 	andeq	r9, r0, r8, lsr r5
    5a20:	00000238 	andeq	r0, r0, r8, lsr r2
    5a24:	00953c0f 	addseq	r3, r5, pc, lsl #24
    5a28:	00020a00 	andeq	r0, r2, r0, lsl #20
    5a2c:	95440f00 	strbls	r0, [r4, #-3840]	; 0xfffff100
    5a30:	02380000 	eorseq	r0, r8, #0, 0
    5a34:	10000000 	andne	r0, r0, r0
    5a38:	00000916 	andeq	r0, r0, r6, lsl r9
    5a3c:	2c0a0401 	cfstrscs	mvf0, [sl], {1}
    5a40:	1c000000 	stcne	0, cr0, [r0], {-0}
    5a44:	14000095 	strne	r0, [r0], #-149	; 0xffffff6b
    5a48:	01000000 	mrseq	r0, (UNDEF: 0)
    5a4c:	0002389c 	muleq	r2, ip, r8
    5a50:	95280b00 	strls	r0, [r8, #-2816]!	; 0xfffff500
    5a54:	02440000 	subeq	r0, r4, #0, 0
    5a58:	010c0000 	mrseq	r0, (UNDEF: 12)
    5a5c:	040c0550 	streq	r0, [ip], #-1360	; 0xfffffab0
    5a60:	00200030 	eoreq	r0, r0, r0, lsr r0
    5a64:	08d41100 	ldmeq	r4, {r8, ip}^
    5a68:	08d40000 	ldmeq	r4, {}^	; <UNPREDICTABLE>
    5a6c:	9e020000 	cdpls	0, 0, cr0, cr2, cr0, {0}
    5a70:	033c1106 	teqeq	ip, #-2147483647	; 0x80000001
    5a74:	033c0000 	teqeq	ip, #0, 0
    5a78:	c4020000 	strgt	r0, [r2], #-0
    5a7c:	05cd000a 	strbeq	r0, [sp, #10]
    5a80:	00040000 	andeq	r0, r4, r0
    5a84:	00001326 	andeq	r1, r0, r6, lsr #6
    5a88:	09cd0104 	stmibeq	sp, {r2, r8}^
    5a8c:	570c0000 	strpl	r0, [ip, -r0]
    5a90:	7d000009 	stcvc	0, cr0, [r0, #-36]	; 0xffffffdc
    5a94:	a0000009 	andge	r0, r0, r9
    5a98:	f0000095 			; <UNDEFINED> instruction: 0xf0000095
    5a9c:	b8000001 	stmdalt	r0, {r0}
    5aa0:	02000027 	andeq	r0, r0, #39, 0	; 0x27
    5aa4:	6e690504 	cdpvs	5, 6, cr0, cr9, cr4, {0}
    5aa8:	04030074 	streq	r0, [r3], #-116	; 0xffffff8c
    5aac:	00016707 	andeq	r6, r1, r7, lsl #14
    5ab0:	002c0400 	eoreq	r0, ip, r0, lsl #8
    5ab4:	01030000 	mrseq	r0, (UNDEF: 3)
    5ab8:	00005806 	andeq	r5, r0, r6, lsl #16
    5abc:	05020300 	streq	r0, [r2, #-768]	; 0xfffffd00
    5ac0:	00000194 	muleq	r0, r4, r1
    5ac4:	7f050403 	svcvc	0x00050403
    5ac8:	03000001 	movweq	r0, #1
    5acc:	017a0508 	cmneq	sl, r8, lsl #10
    5ad0:	01030000 	mrseq	r0, (UNDEF: 3)
    5ad4:	00005608 	andeq	r5, r0, r8, lsl #12
    5ad8:	07020300 	streq	r0, [r2, -r0, lsl #6]
    5adc:	0000006d 	andeq	r0, r0, sp, rrx
    5ae0:	00026905 	andeq	r6, r2, r5, lsl #18
    5ae4:	19340500 	ldmdbne	r4!, {r8, sl}
    5ae8:	0000006e 	andeq	r0, r0, lr, rrx
    5aec:	62070403 	andvs	r0, r7, #50331648	; 0x3000000
    5af0:	03000001 	movweq	r0, #1
    5af4:	015d0708 	cmpeq	sp, r8, lsl #14
    5af8:	01030000 	mrseq	r0, (UNDEF: 3)
    5afc:	00005f08 	andeq	r5, r0, r8, lsl #30
    5b00:	01070600 	tsteq	r7, r0, lsl #12
    5b04:	00000054 	andeq	r0, r0, r4, asr r0
    5b08:	c20e0c04 	andgt	r0, lr, #4, 24	; 0x400
    5b0c:	07000000 	streq	r0, [r0, -r0]
    5b10:	000004d0 	ldrdeq	r0, [r0], -r0	; <UNPREDICTABLE>
    5b14:	03020700 	movweq	r0, #9984	; 0x2700
    5b18:	07010000 	streq	r0, [r1, -r0]
    5b1c:	00000342 	andeq	r0, r0, r2, asr #6
    5b20:	03510704 	cmpeq	r1, #4, 14	; 0x100000
    5b24:	07050000 	streq	r0, [r5, -r0]
    5b28:	00000360 	andeq	r0, r0, r0, ror #6
    5b2c:	036f0706 	cmneq	pc, #1572864	; 0x180000
    5b30:	07070000 	streq	r0, [r7, -r0]
    5b34:	0000031d 	andeq	r0, r0, sp, lsl r3
    5b38:	037e0703 	cmneq	lr, #786432	; 0xc0000
    5b3c:	00020000 	andeq	r0, r2, r0
    5b40:	00094b08 	andeq	r4, r9, r8, lsl #22
    5b44:	06022c00 	streq	r2, [r2], -r0, lsl #24
    5b48:	00015e08 	andeq	r5, r1, r8, lsl #28
    5b4c:	6f690900 	svcvs	0x00690900
    5b50:	09090200 	stmdbeq	r9, {r9}
    5b54:	00000033 	andeq	r0, r0, r3, lsr r0
    5b58:	65690900 	strbvs	r0, [r9, #-2304]!	; 0xfffff700
    5b5c:	0a020072 	beq	85d2c <__bss_end__+0x7bd3c>
    5b60:	00003309 	andeq	r3, r0, r9, lsl #6
    5b64:	69090400 	stmdbvs	r9, {sl}
    5b68:	02007269 	andeq	r7, r0, #-1879048186	; 0x90000006
    5b6c:	00330911 	eorseq	r0, r3, r1, lsl r9
    5b70:	09080000 	stmdbeq	r8, {}	; <UNPREDICTABLE>
    5b74:	0072636c 	rsbseq	r6, r2, ip, ror #6
    5b78:	33091302 	movwcc	r1, #37634	; 0x9302
    5b7c:	0c000000 	stceq	0, cr0, [r0], {-0}
    5b80:	72636d09 	rsbvc	r6, r3, #576	; 0x240
    5b84:	09140200 	ldmdbeq	r4, {r9}
    5b88:	00000033 	andeq	r0, r0, r3, lsr r0
    5b8c:	736c0910 	cmnvc	ip, #16, 18	; 0x40000
    5b90:	15020072 	strne	r0, [r2, #-114]	; 0xffffff8e
    5b94:	00003309 	andeq	r3, r0, r9, lsl #6
    5b98:	6d091400 	cfstrsvs	mvf1, [r9, #-0]
    5b9c:	02007273 	andeq	r7, r0, #805306375	; 0x30000007
    5ba0:	00330916 	eorseq	r0, r3, r6, lsl r9
    5ba4:	0a180000 	beq	605bac <__bss_end__+0x5fbbbc>
    5ba8:	00000a88 	andeq	r0, r0, r8, lsl #21
    5bac:	33091702 	movwcc	r1, #38658	; 0x9702
    5bb0:	1c000000 	stcne	0, cr0, [r0], {-0}
    5bb4:	000a600a 	andeq	r6, sl, sl
    5bb8:	091b0200 	ldmdbeq	fp, {r9}
    5bbc:	00000033 	andeq	r0, r0, r3, lsr r0
    5bc0:	09380a20 	ldmdbeq	r8!, {r5, r9, fp}
    5bc4:	1d020000 	stcne	0, cr0, [r2, #-0]
    5bc8:	00003309 	andeq	r3, r0, r9, lsl #6
    5bcc:	b20a2400 	andlt	r2, sl, #0, 8
    5bd0:	02000009 	andeq	r0, r0, #9, 0
    5bd4:	0033091e 	eorseq	r0, r3, lr, lsl r9
    5bd8:	00280000 	eoreq	r0, r8, r0
    5bdc:	0009b70b 	andeq	fp, r9, fp, lsl #14
    5be0:	09080100 	stmdbeq	r8, {r8}
    5be4:	00000174 	andeq	r0, r0, r4, ror r1
    5be8:	20215004 	eorcs	r5, r1, r4
    5bec:	0033040c 	eorseq	r0, r3, ip, lsl #8
    5bf0:	6e0d0000 	cdpvs	0, 0, cr0, cr13, cr0, {0}
    5bf4:	0b000001 	bleq	5c00 <__code_start__-0x2400>
    5bf8:	00000a90 	muleq	r0, r0, sl
    5bfc:	8f232901 	svchi	0x00232901
    5c00:	40000001 	andmi	r0, r0, r1
    5c04:	0c202150 	stfeqs	f2, [r0], #-320	; 0xfffffec0
    5c08:	0000c204 	andeq	ip, r0, r4, lsl #4
    5c0c:	01890d00 	orreq	r0, r9, r0, lsl #26
    5c10:	f20e0000 	vhadd.s8	d0, d14, d0
    5c14:	01000007 	tsteq	r0, r7
    5c18:	975806cc 	ldrbls	r0, [r8, -ip, asr #13]
    5c1c:	00140000 	andseq	r0, r4, r0
    5c20:	9c010000 	stcls	0, cr0, [r1], {-0}
    5c24:	000001b4 			; <UNDEFINED> instruction: 0x000001b4
    5c28:	0097600f 	addseq	r6, r7, pc
    5c2c:	0001b400 	andeq	fp, r1, r0, lsl #8
    5c30:	6c100000 	ldcvs	0, cr0, [r0], {-0}
    5c34:	01000009 	tsteq	r0, r9
    5c38:	002505b6 	strhteq	r0, [r5], -r6
    5c3c:	97380000 	ldrls	r0, [r8, -r0]!
    5c40:	00200000 	eoreq	r0, r0, r0
    5c44:	9c010000 	stcls	0, cr0, [r1], {-0}
    5c48:	000001eb 	andeq	r0, r0, fp, ror #3
    5c4c:	0097400f 	addseq	r4, r7, pc
    5c50:	0005a000 	andeq	sl, r5, r0
    5c54:	97481100 	strbls	r1, [r8, -r0, lsl #2]
    5c58:	05ac0000 	streq	r0, [ip, #0]!
    5c5c:	01120000 	tsteq	r2, r0
    5c60:	640c0550 	strvs	r0, [ip], #-1360	; 0xfffffab0
    5c64:	00202150 	eoreq	r2, r0, r0, asr r1
    5c68:	0a721000 	beq	1c89c70 <__bss_end__+0x1c7fc80>
    5c6c:	b3010000 	movwlt	r0, #4096	; 0x1000
    5c70:	00002505 	andeq	r2, r0, r5, lsl #10
    5c74:	00972800 	addseq	r2, r7, r0, lsl #16
    5c78:	00001000 	andeq	r1, r0, r0
    5c7c:	189c0100 	ldmne	ip, {r8}
    5c80:	0f000002 	svceq	0x00000002
    5c84:	00009730 	andeq	r9, r0, r0, lsr r7
    5c88:	000005a0 	andeq	r0, r0, r0, lsr #11
    5c8c:	0097340f 	addseq	r3, r7, pc, lsl #8
    5c90:	00030900 	andeq	r0, r3, r0, lsl #18
    5c94:	8f0e0000 	svchi	0x000e0000
    5c98:	01000006 	tsteq	r0, r6
    5c9c:	96f806ab 	ldrbtls	r0, [r8], fp, lsr #13
    5ca0:	00300000 	eorseq	r0, r0, r0
    5ca4:	9c010000 	stcls	0, cr0, [r1], {-0}
    5ca8:	0000027c 	andeq	r0, r0, ip, ror r2
    5cac:	01006313 	tsteq	r0, r3, lsl r3
    5cb0:	002c19ab 	eoreq	r1, ip, fp, lsr #19
    5cb4:	39b50000 	ldmibcc	r5!, {}	; <UNPREDICTABLE>
    5cb8:	39b10000 	ldmibcc	r1!, {}	; <UNPREDICTABLE>
    5cbc:	040f0000 	streq	r0, [pc], #-0	; 5cc4 <__code_start__-0x233c>
    5cc0:	a0000097 	mulge	r0, r7, r0
    5cc4:	0f000005 	svceq	0x00000005
    5cc8:	00009708 	andeq	r9, r0, r8, lsl #14
    5ccc:	000002db 	ldrdeq	r0, [r0], -fp
    5cd0:	00971c14 	addseq	r1, r7, r4, lsl ip
    5cd4:	0005b800 	andeq	fp, r5, r0, lsl #16
    5cd8:	00027200 	andeq	r7, r2, r0, lsl #4
    5cdc:	50011200 	andpl	r1, r1, r0, lsl #4
    5ce0:	50400c05 	subpl	r0, r0, r5, lsl #24
    5ce4:	01122021 	tsteq	r2, r1, lsr #32
    5ce8:	00740551 	rsbseq	r0, r4, r1, asr r5
    5cec:	001aff08 	andseq	pc, sl, r8, lsl #30
    5cf0:	0097200f 	addseq	r2, r7, pc
    5cf4:	0005a000 	andeq	sl, r5, r0
    5cf8:	c3100000 	tstgt	r0, #0, 0
    5cfc:	01000009 	tsteq	r0, r9
    5d00:	002505a3 	eoreq	r0, r5, r3, lsr #11
    5d04:	96c80000 	strbls	r0, [r8], r0
    5d08:	00300000 	eorseq	r0, r0, r0
    5d0c:	9c010000 	stcls	0, cr0, [r1], {-0}
    5d10:	000002db 	ldrdeq	r0, [r0], -fp
    5d14:	01006315 	tsteq	r0, r5, lsl r3
    5d18:	002509a7 	eoreq	r0, r5, r7, lsr #19
    5d1c:	39d50000 	ldmibcc	r5, {}^	; <UNPREDICTABLE>
    5d20:	39d30000 	ldmibcc	r3, {}^	; <UNPREDICTABLE>
    5d24:	d00f0000 	andle	r0, pc, r0
    5d28:	a0000096 	mulge	r0, r6, r0
    5d2c:	0f000005 	svceq	0x00000005
    5d30:	000096d4 	ldrdeq	r9, [r0], -r4
    5d34:	00000309 	andeq	r0, r0, r9, lsl #6
    5d38:	0096e414 	addseq	lr, r6, r4, lsl r4
    5d3c:	0005ac00 	andeq	sl, r5, r0, lsl #24
    5d40:	0002d100 	andeq	sp, r2, r0, lsl #2
    5d44:	50011200 	andpl	r1, r1, r0, lsl #4
    5d48:	50400c05 	subpl	r0, r0, r5, lsl #24
    5d4c:	0f002021 	svceq	0x00002021
    5d50:	000096ec 	andeq	r9, r0, ip, ror #13
    5d54:	000005a0 	andeq	r0, r0, r0, lsr #11
    5d58:	095e1000 	ldmdbeq	lr, {ip}^
    5d5c:	94010000 	strls	r0, [r1], #-0
    5d60:	00002505 	andeq	r2, r0, r5, lsl #10
    5d64:	0096a800 	addseq	sl, r6, r0, lsl #16
    5d68:	00002000 	andeq	r2, r0, r0
    5d6c:	099c0100 	ldmibeq	ip, {r8}
    5d70:	11000003 	tstne	r0, r3
    5d74:	000096b4 			; <UNDEFINED> instruction: 0x000096b4
    5d78:	000005ac 	andeq	r0, r0, ip, lsr #11
    5d7c:	05500112 	ldrbeq	r0, [r0, #-274]	; 0xfffffeee
    5d80:	2150640c 	cmpcs	r0, ip, lsl #8
    5d84:	10000020 	andne	r0, r0, r0, lsr #32
    5d88:	0000093d 	andeq	r0, r0, sp, lsr r9
    5d8c:	25058b01 	strcs	r8, [r5, #-2817]	; 0xfffff4ff
    5d90:	90000000 	andls	r0, r0, r0
    5d94:	18000096 	stmdane	r0, {r1, r2, r4, r7}
    5d98:	01000000 	mrseq	r0, (UNDEF: 0)
    5d9c:	0003379c 	muleq	r3, ip, r7
    5da0:	969c1100 	ldrls	r1, [ip], r0, lsl #2
    5da4:	05ac0000 	streq	r0, [ip, #0]!
    5da8:	01120000 	tsteq	r2, r0
    5dac:	640c0550 	strvs	r0, [ip], #-1360	; 0xfffffab0
    5db0:	00202150 	eoreq	r2, r0, r0, asr r1
    5db4:	08100e00 	ldmdaeq	r0, {r9, sl, fp}
    5db8:	45010000 	strmi	r0, [r1, #-0]
    5dbc:	0095e006 	addseq	lr, r5, r6
    5dc0:	0000b000 	andeq	fp, r0, r0
    5dc4:	849c0100 	ldrhi	r0, [ip], #256	; 0x100
    5dc8:	16000004 	strne	r0, [r0], -r4
    5dcc:	0000092f 	andeq	r0, r0, pc, lsr #18
    5dd0:	620e7e01 	andvs	r7, lr, #1, 28
    5dd4:	0e000000 	cdpeq	0, 0, cr0, cr0, cr0, {0}
    5dd8:	95f01401 	ldrbls	r1, [r0, #1025]!	; 0x401
    5ddc:	05c40000 	strbeq	r0, [r4]
    5de0:	03730000 	cmneq	r3, #0, 0
    5de4:	01120000 	tsteq	r2, r0
    5de8:	123e0150 	eorsne	r0, lr, #20
    5dec:	32015101 	andcc	r5, r1, #1073741824	; 0x40000000
    5df0:	95fc1400 	ldrbls	r1, [ip, #1024]!	; 0x400
    5df4:	05c40000 	strbeq	r0, [r4]
    5df8:	038b0000 	orreq	r0, fp, #0, 0
    5dfc:	01120000 	tsteq	r2, r0
    5e00:	123f0150 	eorsne	r0, pc, #20
    5e04:	32015101 	andcc	r5, r1, #1073741824	; 0x40000000
    5e08:	96000f00 	strls	r0, [r0], -r0, lsl #30
    5e0c:	05a00000 	streq	r0, [r0, #0]!
    5e10:	0c140000 	ldceq	0, cr0, [r4], {-0}
    5e14:	3d000096 	stccc	0, cr0, [r0, #-600]	; 0xfffffda8
    5e18:	b0000005 	andlt	r0, r0, r5
    5e1c:	12000003 	andne	r0, r0, #3, 0
    5e20:	0c055001 	stceq	0, cr5, [r5], {1}
    5e24:	20215004 	eorcs	r5, r1, r4
    5e28:	01510112 	cmpeq	r1, r2, lsl r1
    5e2c:	100f0031 	andne	r0, pc, r1, lsr r0	; <UNPREDICTABLE>
    5e30:	a0000096 	mulge	r0, r6, r0
    5e34:	14000005 	strne	r0, [r0], #-5
    5e38:	00009620 	andeq	r9, r0, r0, lsr #12
    5e3c:	000005b8 			; <UNDEFINED> instruction: 0x000005b8
    5e40:	000003d2 	ldrdeq	r0, [r0], -r2
    5e44:	02500112 	subseq	r0, r0, #-2147483644	; 0x80000004
    5e48:	01120074 	tsteq	r2, r4, ror r0
    5e4c:	00300151 	eorseq	r0, r0, r1, asr r1
    5e50:	00962c14 	addseq	r2, r6, r4, lsl ip
    5e54:	0005b800 	andeq	fp, r5, r0, lsl #16
    5e58:	0003ee00 	andeq	lr, r3, r0, lsl #28
    5e5c:	50011200 	andpl	r1, r1, r0, lsl #4
    5e60:	50440c05 	subpl	r0, r4, r5, lsl #24
    5e64:	01122021 	tsteq	r2, r1, lsr #32
    5e68:	00300151 	eorseq	r0, r0, r1, asr r1
    5e6c:	00963814 	addseq	r3, r6, r4, lsl r8
    5e70:	0005b800 	andeq	fp, r5, r0, lsl #16
    5e74:	00040a00 	andeq	r0, r4, r0, lsl #20
    5e78:	50011200 	andpl	r1, r1, r0, lsl #4
    5e7c:	504c0c05 	subpl	r0, ip, r5, lsl #24
    5e80:	01122021 	tsteq	r2, r1, lsr #32
    5e84:	00330151 	eorseq	r0, r3, r1, asr r1
    5e88:	00964414 	addseq	r4, r6, r4, lsl r4
    5e8c:	0005b800 	andeq	fp, r5, r0, lsl #16
    5e90:	00042600 	andeq	r2, r4, r0, lsl #12
    5e94:	50011200 	andpl	r1, r1, r0, lsl #4
    5e98:	50500c05 	subspl	r0, r0, r5, lsl #24
    5e9c:	01122021 	tsteq	r2, r1, lsr #32
    5ea0:	00300151 	eorseq	r0, r0, r1, asr r1
    5ea4:	00965014 	addseq	r5, r6, r4, lsl r0
    5ea8:	0005b800 	andeq	fp, r5, r0, lsl #16
    5eac:	00044300 	andeq	r4, r4, r0, lsl #6
    5eb0:	50011200 	andpl	r1, r1, r0, lsl #4
    5eb4:	50480c05 	subpl	r0, r8, r5, lsl #24
    5eb8:	01122021 	tsteq	r2, r1, lsr #32
    5ebc:	c7080251 	smlsdgt	r8, r1, r2, r0
    5ec0:	965c1400 	ldrbls	r1, [ip], -r0, lsl #8
    5ec4:	05b80000 	ldreq	r0, [r8, #0]!
    5ec8:	04610000 	strbteq	r0, [r1], #-0
    5ecc:	01120000 	tsteq	r2, r0
    5ed0:	680c0550 	stmdavs	ip, {r4, r6, r8, sl}
    5ed4:	12202150 	eorne	r2, r0, #20
    5ed8:	0a035101 	beq	da2e4 <__bss_end__+0xd02f4>
    5edc:	1400010e 	strne	r0, [r0], #-270	; 0xfffffef2
    5ee0:	00009668 	andeq	r9, r0, r8, ror #12
    5ee4:	000005b8 			; <UNDEFINED> instruction: 0x000005b8
    5ee8:	0000047a 	andeq	r0, r0, sl, ror r4
    5eec:	02500112 	subseq	r0, r0, #-2147483644	; 0x80000004
    5ef0:	01120074 	tsteq	r2, r4, ror r0
    5ef4:	00330151 	eorseq	r0, r3, r1, asr r1
    5ef8:	00966c0f 	addseq	r6, r6, pc, lsl #24
    5efc:	0005a000 	andeq	sl, r5, r0
    5f00:	650e0000 	strvs	r0, [lr, #-0]
    5f04:	0100000a 	tsteq	r0, sl
    5f08:	976c0635 			; <UNDEFINED> instruction: 0x976c0635
    5f0c:	00240000 	eoreq	r0, r4, r0
    5f10:	9c010000 	stcls	0, cr0, [r1], {-0}
    5f14:	000004d3 	ldrdeq	r0, [r0], -r3
    5f18:	0097740f 	addseq	r7, r7, pc, lsl #8
    5f1c:	00019400 	andeq	r9, r1, r0, lsl #8
    5f20:	97780f00 	ldrbls	r0, [r8, -r0, lsl #30]!
    5f24:	05a00000 	streq	r0, [r0, #0]!
    5f28:	84140000 	ldrhi	r0, [r4], #-0
    5f2c:	d3000097 	movwle	r0, #151	; 0x97
    5f30:	c9000004 	stmdbgt	r0, {r2}
    5f34:	12000004 	andne	r0, r0, #4, 0
    5f38:	0c055001 	stceq	0, cr5, [r5], {1}
    5f3c:	20215004 	eorcs	r5, r1, r4
    5f40:	02510112 	subseq	r0, r1, #-2147483644	; 0x80000004
    5f44:	0f00fe09 	svceq	0x0000fe09
    5f48:	00009788 	andeq	r9, r0, r8, lsl #15
    5f4c:	000005a0 	andeq	r0, r0, r0, lsr #11
    5f50:	0a951700 	beq	fe54bb58 <__bss_end__+0xfe541b68>
    5f54:	31010000 	mrscc	r0, (UNDEF: 1)
    5f58:	0095a00d 	addseq	sl, r5, sp
    5f5c:	00002000 	andeq	r2, r0, r0
    5f60:	369c0100 	ldrcc	r0, [ip], r0, lsl #2
    5f64:	18000005 	stmdane	r0, {r0, r2}
    5f68:	00000607 	andeq	r0, r0, r7, lsl #12
    5f6c:	36253101 	strtcc	r3, [r5], -r1, lsl #2
    5f70:	ec000005 	stc	0, cr0, [r0], {5}
    5f74:	e8000039 	stmda	r0, {r0, r3, r4, r5}
    5f78:	13000039 	movwne	r0, #57	; 0x39
    5f7c:	006c6176 	rsbeq	r6, ip, r6, ror r1
    5f80:	2c343101 	ldfcss	f3, [r4], #-4
    5f84:	0e000000 	cdpeq	0, 0, cr0, cr0, cr0, {0}
    5f88:	0a00003a 	beq	6078 <__code_start__-0x1f88>
    5f8c:	1400003a 	strne	r0, [r0], #-58	; 0xffffffc6
    5f90:	000095b0 			; <UNDEFINED> instruction: 0x000095b0
    5f94:	000005ac 	andeq	r0, r0, ip, lsr #11
    5f98:	00000525 	andeq	r0, r0, r5, lsr #10
    5f9c:	02500112 	subseq	r0, r0, #-2147483644	; 0x80000004
    5fa0:	11000074 	tstne	r0, r4, ror r0
    5fa4:	000095bc 			; <UNDEFINED> instruction: 0x000095bc
    5fa8:	000005b8 			; <UNDEFINED> instruction: 0x000005b8
    5fac:	02500112 	subseq	r0, r0, #-2147483644	; 0x80000004
    5fb0:	00000074 	andeq	r0, r0, r4, ror r0
    5fb4:	053c040c 	ldreq	r0, [ip, #-1036]!	; 0xfffffbf4
    5fb8:	17190000 	ldrne	r0, [r9, -r0]
    5fbc:	00000a80 	andeq	r0, r0, r0, lsl #21
    5fc0:	c00d2e01 	andgt	r2, sp, r1, lsl #28
    5fc4:	20000095 	mulcs	r0, r5, r0
    5fc8:	01000000 	mrseq	r0, (UNDEF: 0)
    5fcc:	0005a09c 	muleq	r5, ip, r0
    5fd0:	06071800 	streq	r1, [r7], -r0, lsl #16
    5fd4:	2e010000 	cdpcs	0, 0, cr0, cr1, cr0, {0}
    5fd8:	00053624 	andeq	r3, r5, r4, lsr #12
    5fdc:	003a3000 	eorseq	r3, sl, r0
    5fe0:	003a2c00 	eorseq	r2, sl, r0, lsl #24
    5fe4:	61761300 	cmnvs	r6, r0, lsl #6
    5fe8:	2e01006c 	cdpcs	0, 0, cr0, cr1, cr12, {3}
    5fec:	00002c33 	andeq	r2, r0, r3, lsr ip
    5ff0:	003a5200 	eorseq	r5, sl, r0, lsl #4
    5ff4:	003a4e00 	eorseq	r4, sl, r0, lsl #28
    5ff8:	95d01400 	ldrbls	r1, [r0, #1024]	; 0x400
    5ffc:	05ac0000 	streq	r0, [ip, #0]!
    6000:	058f0000 	streq	r0, [pc]	; 6008 <__code_start__-0x1ff8>
    6004:	01120000 	tsteq	r2, r0
    6008:	00740250 	rsbseq	r0, r4, r0, asr r2
    600c:	95dc1100 	ldrbls	r1, [ip, #256]	; 0x100
    6010:	05b80000 	ldreq	r0, [r8, #0]!
    6014:	01120000 	tsteq	r2, r0
    6018:	00740250 	rsbseq	r0, r4, r0, asr r2
    601c:	d41a0000 	ldrle	r0, [sl], #-0
    6020:	d4000008 	strle	r0, [r0], #-8
    6024:	03000008 	movweq	r0, #8
    6028:	9e1a06a1 	cfmsub32ls	mvax5, mvfx0, mvfx10, mvfx1
    602c:	9e00000a 	cdpls	0, 0, cr0, cr0, cr10, {0}
    6030:	0300000a 	movweq	r0, #10
    6034:	291a0bc8 	ldmdbcs	sl, {r3, r6, r7, r8, r9, fp}
    6038:	29000009 	stmdbcs	r0, {r0, r3}
    603c:	03000009 	movweq	r0, #9
    6040:	e01a06b3 			; <UNDEFINED> instruction: 0xe01a06b3
    6044:	e0000004 	and	r0, r0, r4
    6048:	04000004 	streq	r0, [r0], #-4
    604c:	37000619 	smladcc	r0, r9, r6, r0
    6050:	04000001 	streq	r0, [r0], #-1
    6054:	0014be00 	andseq	fp, r4, r0, lsl #28
    6058:	1b010400 	blne	47060 <__bss_end__+0x3d070>
    605c:	0c000004 	stceq	0, cr0, [r0], {4}
    6060:	00000aa9 	andeq	r0, r0, r9, lsr #21
    6064:	000003d1 	ldrdeq	r0, [r0], -r1
    6068:	00009790 	muleq	r0, r0, r7
    606c:	00000034 	andeq	r0, r0, r4, lsr r0
    6070:	000029c1 	andeq	r2, r0, r1, asr #19
    6074:	69050402 	stmdbvs	r5, {r1, sl}
    6078:	0300746e 	movweq	r7, #1134	; 0x46e
    607c:	01670704 	cmneq	r7, r4, lsl #14
    6080:	01030000 	mrseq	r0, (UNDEF: 3)
    6084:	00005806 	andeq	r5, r0, r6, lsl #16
    6088:	05020300 	streq	r0, [r2, #-768]	; 0xfffffd00
    608c:	00000194 	muleq	r0, r4, r1
    6090:	7f050403 	svcvc	0x00050403
    6094:	03000001 	movweq	r0, #1
    6098:	017a0508 	cmneq	sl, r8, lsl #10
    609c:	01030000 	mrseq	r0, (UNDEF: 3)
    60a0:	00005608 	andeq	r5, r0, r8, lsl #12
    60a4:	07020300 	streq	r0, [r2, -r0, lsl #6]
    60a8:	0000006d 	andeq	r0, r0, sp, rrx
    60ac:	62070403 	andvs	r0, r7, #50331648	; 0x3000000
    60b0:	03000001 	movweq	r0, #1
    60b4:	015d0708 	cmpeq	sp, r8, lsl #14
    60b8:	25040000 	strcs	r0, [r4, #-0]
    60bc:	7a000000 	bvc	60c4 <__code_start__-0x1f3c>
    60c0:	05000000 	streq	r0, [r0, #-0]
    60c4:	00000025 	andeq	r0, r0, r5, lsr #32
    60c8:	01880600 	orreq	r0, r8, r0, lsl #12
    60cc:	1c020000 	stcne	0, cr0, [r2], {-0}
    60d0:	0000860e 	andeq	r8, r0, lr, lsl #12
    60d4:	6b040700 	blvs	107cdc <__bss_end__+0xfdcec>
    60d8:	04000000 	streq	r0, [r0], #-0
    60dc:	00000025 	andeq	r0, r0, r5, lsr #32
    60e0:	0000009b 	muleq	r0, fp, r0
    60e4:	00009b05 	andeq	r9, r0, r5, lsl #22
    60e8:	04070000 	streq	r0, [r7], #-0
    60ec:	000000a8 	andeq	r0, r0, r8, lsr #1
    60f0:	5f080103 	svcpl	0x00080103
    60f4:	08000000 	stmdaeq	r0, {}	; <UNPREDICTABLE>
    60f8:	000000a1 	andeq	r0, r0, r1, lsr #1
    60fc:	0006a206 	andeq	sl, r6, r6, lsl #4
    6100:	0e210200 	cdpeq	2, 2, cr0, cr1, cr0, {0}
    6104:	000000b9 	strheq	r0, [r0], -r9
    6108:	008c0407 	addeq	r0, ip, r7, lsl #8
    610c:	36090000 	strcc	r0, [r9], -r0
    6110:	01000007 	tsteq	r0, r7
    6114:	01340704 	teqeq	r4, r4, lsl #14
    6118:	97900000 	ldrls	r0, [r0, r0]
    611c:	00340000 	eorseq	r0, r4, r0
    6120:	9c010000 	stcls	0, cr0, [r1], {-0}
    6124:	00000134 	andeq	r0, r0, r4, lsr r1
    6128:	000aa40a 	andeq	sl, sl, sl, lsl #8
    612c:	15040100 	strne	r0, [r4, #-256]	; 0xffffff00
    6130:	00000134 	andeq	r0, r0, r4, lsr r1
    6134:	730b5001 	movwvc	r5, #45057	; 0xb001
    6138:	01006372 	tsteq	r0, r2, ror r3
    613c:	009b2704 	addseq	r2, fp, r4, lsl #14
    6140:	3a740000 	bcc	1d06148 <__bss_end__+0x1cfc158>
    6144:	3a700000 	bcc	1c0614c <__bss_end__+0x1bfc15c>
    6148:	730c0000 	movwvc	r0, #49152	; 0xc000
    614c:	05010031 	streq	r0, [r1, #-49]	; 0xffffffcf
    6150:	0001340b 	andeq	r3, r1, fp, lsl #8
    6154:	003a9f00 	eorseq	r9, sl, r0, lsl #30
    6158:	003a9500 	eorseq	r9, sl, r0, lsl #10
    615c:	32730c00 	rsbscc	r0, r3, #0, 24
    6160:	11060100 	mrsne	r0, (UNDEF: 22)
    6164:	0000009b 	muleq	r0, fp, r0
    6168:	00003ae4 	andeq	r3, r0, r4, ror #21
    616c:	00003ae0 	andeq	r3, r0, r0, ror #21
    6170:	0100630c 	tsteq	r0, ip, lsl #6
    6174:	00a10a07 	adceq	r0, r1, r7, lsl #20
    6178:	3b080000 	blcc	206180 <__bss_end__+0x1fc190>
    617c:	3b040000 	blcc	106184 <__bss_end__+0xfc194>
    6180:	07000000 	streq	r0, [r0, -r0]
    6184:	0000a104 	andeq	sl, r0, r4, lsl #2
    6188:	00f70000 	rscseq	r0, r7, r0
    618c:	00040000 	andeq	r0, r4, r0
    6190:	00001574 	andeq	r1, r0, r4, ror r5
    6194:	041b0104 	ldreq	r0, [fp], #-260	; 0xfffffefc
    6198:	b90c0000 	stmdblt	ip, {}	; <UNPREDICTABLE>
    619c:	d100000a 	tstle	r0, sl
    61a0:	c4000003 	strgt	r0, [r0], #-3
    61a4:	2c000097 	stccs	0, cr0, [r0], {151}	; 0x97
    61a8:	cc000000 	stcgt	0, cr0, [r0], {-0}
    61ac:	0200002a 	andeq	r0, r0, #42, 0	; 0x2a
    61b0:	6e690504 	cdpvs	5, 6, cr0, cr9, cr4, {0}
    61b4:	04030074 	streq	r0, [r3], #-116	; 0xffffff8c
    61b8:	00016707 	andeq	r6, r1, r7, lsl #14
    61bc:	06010300 	streq	r0, [r1], -r0, lsl #6
    61c0:	00000058 	andeq	r0, r0, r8, asr r0
    61c4:	94050203 	strls	r0, [r5], #-515	; 0xfffffdfd
    61c8:	03000001 	movweq	r0, #1
    61cc:	017f0504 	cmneq	pc, r4, lsl #10
    61d0:	08030000 	stmdaeq	r3, {}	; <UNPREDICTABLE>
    61d4:	00017a05 	andeq	r7, r1, r5, lsl #20
    61d8:	08010300 	stmdaeq	r1, {r8, r9}
    61dc:	00000056 	andeq	r0, r0, r6, asr r0
    61e0:	6d070203 	sfmvs	f0, 4, [r7, #-12]
    61e4:	03000000 	movweq	r0, #0
    61e8:	01620704 	cmneq	r2, r4, lsl #14
    61ec:	08030000 	stmdaeq	r3, {}	; <UNPREDICTABLE>
    61f0:	00015d07 	andeq	r5, r1, r7, lsl #26
    61f4:	00250400 	eoreq	r0, r5, r0, lsl #8
    61f8:	007a0000 	rsbseq	r0, sl, r0
    61fc:	25050000 	strcs	r0, [r5, #-0]
    6200:	00000000 	andeq	r0, r0, r0
    6204:	00018806 	andeq	r8, r1, r6, lsl #16
    6208:	0e1c0200 	cdpeq	2, 1, cr0, cr12, cr0, {0}
    620c:	00000086 	andeq	r0, r0, r6, lsl #1
    6210:	006b0407 	rsbeq	r0, fp, r7, lsl #8
    6214:	25040000 	strcs	r0, [r4, #-0]
    6218:	9b000000 	blls	6220 <__code_start__-0x1de0>
    621c:	05000000 	streq	r0, [r0, #-0]
    6220:	0000009b 	muleq	r0, fp, r0
    6224:	a8040700 	stmdage	r4, {r8, r9, sl}
    6228:	03000000 	movweq	r0, #0
    622c:	005f0801 	subseq	r0, pc, r1, lsl #16
    6230:	a1080000 	mrsge	r0, (UNDEF: 8)
    6234:	06000000 	streq	r0, [r0], -r0
    6238:	000006a2 	andeq	r0, r0, r2, lsr #13
    623c:	b90e2102 	stmdblt	lr, {r1, r8, sp}
    6240:	07000000 	streq	r0, [r0, -r0]
    6244:	00008c04 	andeq	r8, r0, r4, lsl #24
    6248:	076c0900 	strbeq	r0, [ip, -r0, lsl #18]!
    624c:	03010000 	movweq	r0, #4096	; 0x1000
    6250:	00002505 	andeq	r2, r0, r5, lsl #10
    6254:	0097c400 	addseq	ip, r7, r0, lsl #8
    6258:	00002c00 	andeq	r2, r0, r0, lsl #24
    625c:	0a9c0100 	beq	fe706664 <__bss_end__+0xfe6fc674>
    6260:	03010061 	movweq	r0, #4193	; 0x1061
    6264:	00009b18 	andeq	r9, r0, r8, lsl fp
    6268:	003b2a00 	eorseq	r2, fp, r0, lsl #20
    626c:	003b2600 	eorseq	r2, fp, r0, lsl #12
    6270:	00620a00 	rsbeq	r0, r2, r0, lsl #20
    6274:	9b270301 	blls	9c6e80 <__bss_end__+0x9bce90>
    6278:	4c000000 	stcmi	0, cr0, [r0], {-0}
    627c:	4800003b 	stmdami	r0, {r0, r1, r3, r4, r5}
    6280:	0000003b 	andeq	r0, r0, fp, lsr r0
    6284:	00010f00 	andeq	r0, r1, r0, lsl #30
    6288:	03000400 	movweq	r0, #1024	; 0x400
    628c:	04000016 	streq	r0, [r0], #-22	; 0xffffffea
    6290:	00041b01 	andeq	r1, r4, r1, lsl #22
    6294:	0ac90c00 	beq	ff24929c <__bss_end__+0xff23f2ac>
    6298:	03d10000 	bicseq	r0, r1, #0, 0
    629c:	97f00000 	ldrbls	r0, [r0, r0]!
    62a0:	00200000 	eoreq	r0, r0, r0
    62a4:	2b900000 	blcs	fe4062ac <__bss_end__+0xfe3fc2bc>
    62a8:	04020000 	streq	r0, [r2], #-0
    62ac:	746e6905 	strbtvc	r6, [lr], #-2309	; 0xfffff6fb
    62b0:	07040300 	streq	r0, [r4, -r0, lsl #6]
    62b4:	00000167 	andeq	r0, r0, r7, ror #2
    62b8:	58060103 	stmdapl	r6, {r0, r1, r8}
    62bc:	03000000 	movweq	r0, #0
    62c0:	01940502 	orrseq	r0, r4, r2, lsl #10
    62c4:	04030000 	streq	r0, [r3], #-0
    62c8:	00017f05 	andeq	r7, r1, r5, lsl #30
    62cc:	05080300 	streq	r0, [r8, #-768]	; 0xfffffd00
    62d0:	0000017a 	andeq	r0, r0, sl, ror r1
    62d4:	56080103 	strpl	r0, [r8], -r3, lsl #2
    62d8:	03000000 	movweq	r0, #0
    62dc:	006d0702 	rsbeq	r0, sp, r2, lsl #14
    62e0:	04030000 	streq	r0, [r3], #-0
    62e4:	00016207 	andeq	r6, r1, r7, lsl #4
    62e8:	07080300 	streq	r0, [r8, -r0, lsl #6]
    62ec:	0000015d 	andeq	r0, r0, sp, asr r1
    62f0:	00002504 	andeq	r2, r0, r4, lsl #10
    62f4:	00007a00 	andeq	r7, r0, r0, lsl #20
    62f8:	00250500 	eoreq	r0, r5, r0, lsl #10
    62fc:	06000000 	streq	r0, [r0], -r0
    6300:	00000188 	andeq	r0, r0, r8, lsl #3
    6304:	860e1c02 	strhi	r1, [lr], -r2, lsl #24
    6308:	07000000 	streq	r0, [r0, -r0]
    630c:	00006b04 	andeq	r6, r0, r4, lsl #22
    6310:	00250400 	eoreq	r0, r5, r0, lsl #8
    6314:	009b0000 	addseq	r0, fp, r0
    6318:	9b050000 	blls	146320 <__bss_end__+0x13c330>
    631c:	00000000 	andeq	r0, r0, r0
    6320:	00a80407 	adceq	r0, r8, r7, lsl #8
    6324:	01030000 	mrseq	r0, (UNDEF: 3)
    6328:	00005f08 	andeq	r5, r0, r8, lsl #30
    632c:	00a10800 	adceq	r0, r1, r0, lsl #16
    6330:	a2060000 	andge	r0, r6, #0, 0
    6334:	02000006 	andeq	r0, r0, #6, 0
    6338:	00b90e21 	adcseq	r0, r9, r1, lsr #28
    633c:	04070000 	streq	r0, [r7], #-0
    6340:	0000008c 	andeq	r0, r0, ip, lsl #1
    6344:	00073d09 	andeq	r3, r7, r9, lsl #26
    6348:	07030100 	streq	r0, [r3, -r0, lsl #2]
    634c:	0000010c 	andeq	r0, r0, ip, lsl #2
    6350:	000097f0 	strdeq	r9, [r0], -r0
    6354:	00000020 	andeq	r0, r0, r0, lsr #32
    6358:	010c9c01 	tsteq	ip, r1, lsl #24
    635c:	730a0000 	movwvc	r0, #40960	; 0xa000
    6360:	03010031 	movweq	r0, #4145	; 0x1031
    6364:	00010c15 	andeq	r0, r1, r5, lsl ip
    6368:	0b500100 	bleq	1406770 <__bss_end__+0x13fc780>
    636c:	01003273 	tsteq	r0, r3, ror r2
    6370:	009b2603 	addseq	r2, fp, r3, lsl #12
    6374:	3b700000 	blcc	1c0637c <__bss_end__+0x1bfc38c>
    6378:	3b6a0000 	blcc	1a86380 <__bss_end__+0x1a7c390>
    637c:	730c0000 	movwvc	r0, #49152	; 0xc000
    6380:	14040100 	strne	r0, [r4], #-256	; 0xffffff00
    6384:	0000010c 	andeq	r0, r0, ip, lsl #2
    6388:	00003ba1 	andeq	r3, r0, r1, lsr #23
    638c:	00003b9b 	muleq	r0, fp, fp
    6390:	a1040700 	tstge	r4, r0, lsl #14
    6394:	00000000 	andeq	r0, r0, r0
    6398:	0000014e 	andeq	r0, r0, lr, asr #2
    639c:	16b90004 	ldrtne	r0, [r9], r4
    63a0:	01040000 	mrseq	r0, (UNDEF: 4)
    63a4:	0000041b 	andeq	r0, r0, fp, lsl r4
    63a8:	000ad90c 	andeq	sp, sl, ip, lsl #18
    63ac:	0003d100 	andeq	sp, r3, r0, lsl #2
    63b0:	002aa000 	eoreq	sl, sl, r0
    63b4:	00000000 	andeq	r0, r0, r0
    63b8:	002c5200 	eoreq	r5, ip, r0, lsl #4
    63bc:	05040200 	streq	r0, [r4, #-512]	; 0xfffffe00
    63c0:	00746e69 	rsbseq	r6, r4, r9, ror #28
    63c4:	00060c03 	andeq	r0, r6, r3, lsl #24
    63c8:	17d10300 	ldrbne	r0, [r1, r0, lsl #6]
    63cc:	00000038 	andeq	r0, r0, r8, lsr r0
    63d0:	67070404 	strvs	r0, [r7, -r4, lsl #8]
    63d4:	04000001 	streq	r0, [r0], #-1
    63d8:	00580601 	subseq	r0, r8, r1, lsl #12
    63dc:	02040000 	andeq	r0, r4, #0, 0
    63e0:	00019405 	andeq	r9, r1, r5, lsl #8
    63e4:	05040400 	streq	r0, [r4, #-1024]	; 0xfffffc00
    63e8:	0000017f 	andeq	r0, r0, pc, ror r1
    63ec:	7a050804 	bvc	148404 <__bss_end__+0x13e414>
    63f0:	04000001 	streq	r0, [r0], #-1
    63f4:	00560801 	subseq	r0, r6, r1, lsl #16
    63f8:	5b050000 	blpl	146400 <__bss_end__+0x13c410>
    63fc:	04000000 	streq	r0, [r0], #-0
    6400:	006d0702 	rsbeq	r0, sp, r2, lsl #14
    6404:	04040000 	streq	r0, [r4], #-0
    6408:	00016207 	andeq	r6, r1, r7, lsl #4
    640c:	07080400 	streq	r0, [r8, -r0, lsl #8]
    6410:	0000015d 	andeq	r0, r0, sp, asr r1
    6414:	00002506 	andeq	r2, r0, r6, lsl #10
    6418:	00008b00 	andeq	r8, r0, r0, lsl #22
    641c:	00250700 	eoreq	r0, r5, r0, lsl #14
    6420:	08000000 	stmdaeq	r0, {}	; <UNPREDICTABLE>
    6424:	00000188 	andeq	r0, r0, r8, lsl #3
    6428:	970e1c02 	strls	r1, [lr, -r2, lsl #24]
    642c:	09000000 	stmdbeq	r0, {}	; <UNPREDICTABLE>
    6430:	00007c04 	andeq	r7, r0, r4, lsl #24
    6434:	00250600 	eoreq	r0, r5, r0, lsl #12
    6438:	00ac0000 	adceq	r0, ip, r0
    643c:	ac070000 	stcge	0, cr0, [r7], {-0}
    6440:	00000000 	andeq	r0, r0, r0
    6444:	00b90409 	adcseq	r0, r9, r9, lsl #8
    6448:	01040000 	mrseq	r0, (UNDEF: 4)
    644c:	00005f08 	andeq	r5, r0, r8, lsl #30
    6450:	00b20500 	adcseq	r0, r2, r0, lsl #10
    6454:	a2080000 	andge	r0, r8, #0, 0
    6458:	02000006 	andeq	r0, r0, #6, 0
    645c:	00ca0e21 	sbceq	r0, sl, r1, lsr #28
    6460:	04090000 	streq	r0, [r9], #-0
    6464:	0000009d 	muleq	r0, sp, r0
    6468:	0007940a 	andeq	r9, r7, sl, lsl #8
    646c:	05040100 	streq	r0, [r4, #-256]	; 0xffffff00
    6470:	00000025 	andeq	r0, r0, r5, lsr #32
    6474:	00009810 	andeq	r9, r0, r0, lsl r8
    6478:	0000002c 	andeq	r0, r0, ip, lsr #32
    647c:	014b9c01 	cmpeq	fp, r1, lsl #24
    6480:	5f0b0000 	svcpl	0x000b0000
    6484:	01003173 	tsteq	r0, r3, ror r1
    6488:	00ac1904 	adceq	r1, ip, r4, lsl #18
    648c:	3bd00000 	blcc	ff406494 <__bss_end__+0xff3fc4a4>
    6490:	3bcc0000 	blcc	ff306498 <__bss_end__+0xff2fc4a8>
    6494:	5f0b0000 	svcpl	0x000b0000
    6498:	01003273 	tsteq	r0, r3, ror r2
    649c:	00ac2a04 	adceq	r2, ip, r4, lsl #20
    64a0:	3bf50000 	blcc	ffd464a8 <__bss_end__+0xffd3c4b8>
    64a4:	3bf10000 	blcc	ffc464ac <__bss_end__+0xffc3c4bc>
    64a8:	6e0b0000 	cdpvs	0, 0, cr0, cr11, cr0, {0}
    64ac:	36040100 	strcc	r0, [r4], -r0, lsl #2
    64b0:	0000002c 	andeq	r0, r0, ip, lsr #32
    64b4:	00003c1c 	andeq	r3, r0, ip, lsl ip
    64b8:	00003c16 	andeq	r3, r0, r6, lsl ip
    64bc:	0031730c 	eorseq	r7, r1, ip, lsl #6
    64c0:	4b1a0501 	blmi	6878cc <__bss_end__+0x67d8dc>
    64c4:	4f000001 	svcmi	0x00000001
    64c8:	4700003c 	smladxmi	r0, ip, r0, r0
    64cc:	0c00003c 	stceq	0, cr0, [r0], {60}	; 0x3c
    64d0:	01003273 	tsteq	r0, r3, ror r2
    64d4:	014b2c05 	cmpeq	fp, r5, lsl #24
    64d8:	3c8b0000 	stccc	0, cr0, [fp], {0}
    64dc:	3c850000 	stccc	0, cr0, [r5], {0}
    64e0:	09000000 	stmdbeq	r0, {}	; <UNPREDICTABLE>
    64e4:	00006204 	andeq	r6, r0, r4, lsl #4
    64e8:	00ce0000 	sbceq	r0, lr, r0
    64ec:	00040000 	andeq	r0, r4, r0
    64f0:	0000176d 	andeq	r1, r0, sp, ror #14
    64f4:	041b0104 	ldreq	r0, [fp], #-260	; 0xfffffefc
    64f8:	ea0c0000 	b	306500 <__bss_end__+0x2fc510>
    64fc:	d100000a 	tstle	r0, sl
    6500:	3c000003 	stccc	0, cr0, [r0], {3}
    6504:	04000098 	streq	r0, [r0], #-152	; 0xffffff68
    6508:	71000000 	mrsvc	r0, (UNDEF: 0)
    650c:	0200002d 	andeq	r0, r0, #45, 0	; 0x2d
    6510:	6e690504 	cdpvs	5, 6, cr0, cr9, cr4, {0}
    6514:	04030074 	streq	r0, [r3], #-116	; 0xffffff8c
    6518:	00016707 	andeq	r6, r1, r7, lsl #14
    651c:	06010300 	streq	r0, [r1], -r0, lsl #6
    6520:	00000058 	andeq	r0, r0, r8, asr r0
    6524:	94050203 	strls	r0, [r5], #-515	; 0xfffffdfd
    6528:	03000001 	movweq	r0, #1
    652c:	017f0504 	cmneq	pc, r4, lsl #10
    6530:	08030000 	stmdaeq	r3, {}	; <UNPREDICTABLE>
    6534:	00017a05 	andeq	r7, r1, r5, lsl #20
    6538:	08010300 	stmdaeq	r1, {r8, r9}
    653c:	00000056 	andeq	r0, r0, r6, asr r0
    6540:	6d070203 	sfmvs	f0, 4, [r7, #-12]
    6544:	03000000 	movweq	r0, #0
    6548:	01620704 	cmneq	r2, r4, lsl #14
    654c:	08030000 	stmdaeq	r3, {}	; <UNPREDICTABLE>
    6550:	00015d07 	andeq	r5, r1, r7, lsl #26
    6554:	00250400 	eoreq	r0, r5, r0, lsl #8
    6558:	007a0000 	rsbseq	r0, sl, r0
    655c:	25050000 	strcs	r0, [r5, #-0]
    6560:	00000000 	andeq	r0, r0, r0
    6564:	00018806 	andeq	r8, r1, r6, lsl #16
    6568:	0e1c0200 	cdpeq	2, 1, cr0, cr12, cr0, {0}
    656c:	00000086 	andeq	r0, r0, r6, lsl #1
    6570:	006b0407 	rsbeq	r0, fp, r7, lsl #8
    6574:	25040000 	strcs	r0, [r4, #-0]
    6578:	9b000000 	blls	6580 <__code_start__-0x1a80>
    657c:	05000000 	streq	r0, [r0, #-0]
    6580:	0000009b 	muleq	r0, fp, r0
    6584:	a8040700 	stmdage	r4, {r8, r9, sl}
    6588:	03000000 	movweq	r0, #0
    658c:	005f0801 	subseq	r0, pc, r1, lsl #16
    6590:	a1080000 	mrsge	r0, (UNDEF: 8)
    6594:	06000000 	streq	r0, [r0], -r0
    6598:	000006a2 	andeq	r0, r0, r2, lsr #13
    659c:	b90e2102 	stmdblt	lr, {r1, r8, sp}
    65a0:	07000000 	streq	r0, [r0, -r0]
    65a4:	00008c04 	andeq	r8, r0, r4, lsl #24
    65a8:	08590900 	ldmdaeq	r9, {r8, fp}^
    65ac:	03010000 	movweq	r0, #4096	; 0x1000
    65b0:	00983c06 	addseq	r3, r8, r6, lsl #24
    65b4:	00000400 	andeq	r0, r0, r0, lsl #8
    65b8:	009c0100 	addseq	r0, ip, r0, lsl #2

Disassembly of section .debug_abbrev:

00000000 <.debug_abbrev>:
       0:	25011101 	strcs	r1, [r1, #-257]	; 0xfffffeff
       4:	030b130e 	movweq	r1, #45838	; 0xb30e
       8:	110e1b0e 	tstne	lr, lr, lsl #22
       c:	10061201 	andne	r1, r6, r1, lsl #4
      10:	02000017 	andeq	r0, r0, #23, 0
      14:	0b0b0024 	bleq	2c00ac <__bss_end__+0x2b60bc>
      18:	08030b3e 	stmdaeq	r3, {r1, r2, r3, r4, r5, r8, r9, fp}
      1c:	24030000 	strcs	r0, [r3], #-0
      20:	3e0b0b00 	vmlacc.f64	d0, d11, d0
      24:	000e030b 	andeq	r0, lr, fp, lsl #6
      28:	00260400 	eoreq	r0, r6, r0, lsl #8
      2c:	00001349 	andeq	r1, r0, r9, asr #6
      30:	27011505 	strcs	r1, [r1, -r5, lsl #10]
      34:	01134919 	tsteq	r3, r9, lsl r9
      38:	06000013 			; <UNDEFINED> instruction: 0x06000013
      3c:	13490005 	movtne	r0, #36869	; 0x9005
      40:	34070000 	strcc	r0, [r7], #-0
      44:	3a0e0300 	bcc	380c4c <__bss_end__+0x376c5c>
      48:	390b3b0b 	stmdbcc	fp, {r0, r1, r3, r8, r9, fp, ip, sp}
      4c:	3f13490b 	svccc	0x0013490b
      50:	00193c19 	andseq	r3, r9, r9, lsl ip
      54:	000f0800 	andeq	r0, pc, r0, lsl #16
      58:	13490b0b 	movtne	r0, #39691	; 0x9b0b
      5c:	34090000 	strcc	r0, [r9], #-0
      60:	3a0e0300 	bcc	380c68 <__bss_end__+0x376c78>
      64:	390b3b0b 	stmdbcc	fp, {r0, r1, r3, r8, r9, fp, ip, sp}
      68:	1c13490b 			; <UNDEFINED> instruction: 0x1c13490b
      6c:	0a00000b 	beq	a0 <__code_start__-0x7f60>
      70:	0e030016 	mcreq	0, 0, r0, cr3, cr6, {0}
      74:	0b3b0b3a 	bleq	ec2d64 <__bss_end__+0xeb8d74>
      78:	13490b39 	movtne	r0, #39737	; 0x9b39
      7c:	130b0000 	movwne	r0, #45056	; 0xb000
      80:	3c0e0300 	stccc	3, cr0, [lr], {-0}
      84:	0c000019 	stceq	0, cr0, [r0], {25}
      88:	0b3e0104 	bleq	f804a0 <__bss_end__+0xf764b0>
      8c:	13490b0b 	movtne	r0, #39691	; 0x9b0b
      90:	0b3b0b3a 	bleq	ec2d80 <__bss_end__+0xeb8d90>
      94:	13010b39 	movwne	r0, #6969	; 0x1b39
      98:	280d0000 	stmdacs	sp, {}	; <UNPREDICTABLE>
      9c:	1c0e0300 	stcne	3, cr0, [lr], {-0}
      a0:	0e00000b 	cdpeq	0, 0, cr0, cr0, cr11, {0}
      a4:	193f012e 	ldmdbne	pc!, {r1, r2, r3, r5, r8}	; <UNPREDICTABLE>
      a8:	0b3a0e03 	bleq	e838bc <__bss_end__+0xe798cc>
      ac:	0b390b3b 	bleq	e42da0 <__bss_end__+0xe38db0>
      b0:	01111927 	tsteq	r1, r7, lsr #18
      b4:	18400612 	stmdane	r0, {r1, r4, r9, sl}^
      b8:	01194297 			; <UNDEFINED> instruction: 0x01194297
      bc:	0f000013 	svceq	0x00000013
      c0:	08030034 	stmdaeq	r3, {r2, r4, r5}
      c4:	0b3b0b3a 	bleq	ec2db4 <__bss_end__+0xeb8dc4>
      c8:	13490b39 	movtne	r0, #39737	; 0x9b39
      cc:	42b71702 	adcsmi	r1, r7, #524288	; 0x80000
      d0:	10000017 	andne	r0, r0, r7, lsl r0
      d4:	1755010b 	ldrbne	r0, [r5, -fp, lsl #2]
      d8:	00001301 	andeq	r1, r0, r1, lsl #6
      dc:	31011d11 	tstcc	r1, r1, lsl sp
      e0:	b8015213 	stmdalt	r1, {r0, r1, r4, r9, ip, lr}
      e4:	17550b42 	ldrbne	r0, [r5, -r2, asr #22]
      e8:	0b590b58 	bleq	1642e50 <__bss_end__+0x1638e60>
      ec:	13010b57 	movwne	r0, #6999	; 0x1b57
      f0:	05120000 	ldreq	r0, [r2, #-0]
      f4:	02133100 	andseq	r3, r3, #0
      f8:	1742b717 	smlaldne	fp, r2, r7, r7
      fc:	89130000 	ldmdbhi	r3, {}	; <UNPREDICTABLE>
     100:	11010182 	smlabbne	r1, r2, r1, r0
     104:	01133101 	tsteq	r3, r1, lsl #2
     108:	14000013 	strne	r0, [r0], #-19	; 0xffffffed
     10c:	0001828a 	andeq	r8, r1, sl, lsl #5
     110:	42911802 	addsmi	r1, r1, #131072	; 0x20000
     114:	15000018 	strne	r0, [r0, #-24]	; 0xffffffe8
     118:	01018289 	smlabbeq	r1, r9, r2, r8
     11c:	13310111 	teqne	r1, #1073741828	; 0x40000004
     120:	89160000 	ldmdbhi	r6, {}	; <UNPREDICTABLE>
     124:	11000182 	smlabbne	r0, r2, r1, r0
     128:	00133101 	andseq	r3, r3, r1, lsl #2
     12c:	82891700 	addhi	r1, r9, #0, 14
     130:	01110101 	tsteq	r1, r1, lsl #2
     134:	31194295 			; <UNDEFINED> instruction: 0x31194295
     138:	18000013 	stmdane	r0, {r0, r1, r4}
     13c:	193f012e 	ldmdbne	pc!, {r1, r2, r3, r5, r8}	; <UNPREDICTABLE>
     140:	0b3a0e03 	bleq	e83954 <__bss_end__+0xe79964>
     144:	0b390b3b 	bleq	e42e38 <__bss_end__+0xe38e48>
     148:	0b201927 	bleq	8065ec <__bss_end__+0x7fc5fc>
     14c:	00001301 	andeq	r1, r0, r1, lsl #6
     150:	03000519 	movweq	r0, #1305	; 0x519
     154:	3b0b3a08 	blcc	2ce97c <__bss_end__+0x2c498c>
     158:	490b390b 	stmdbmi	fp, {r0, r1, r3, r8, fp, ip, sp}
     15c:	1a000013 	bne	1b0 <__code_start__-0x7e50>
     160:	1331012e 	teqne	r1, #-2147483637	; 0x8000000b
     164:	06120111 			; <UNDEFINED> instruction: 0x06120111
     168:	42971840 	addsmi	r1, r7, #64, 16	; 0x400000
     16c:	00130119 	andseq	r0, r3, r9, lsl r1
     170:	002e1b00 	eoreq	r1, lr, r0, lsl #22
     174:	193c193f 	ldmdbne	ip!, {r0, r1, r2, r3, r4, r5, r8, fp, ip}
     178:	0e030e6e 	cdpeq	14, 0, cr0, cr3, cr14, {3}
     17c:	0b3b0b3a 	bleq	ec2e6c <__bss_end__+0xeb8e7c>
     180:	00000b39 	andeq	r0, r0, r9, lsr fp
     184:	01110100 	tsteq	r1, r0, lsl #2
     188:	0b130e25 	bleq	4c3a24 <__bss_end__+0x4b9a34>
     18c:	0e1b0e03 	cdpeq	14, 1, cr0, cr11, cr3, {0}
     190:	06120111 			; <UNDEFINED> instruction: 0x06120111
     194:	00001710 	andeq	r1, r0, r0, lsl r7
     198:	0b002402 	bleq	91a8 <va_printk+0x250>
     19c:	030b3e0b 	movweq	r3, #48651	; 0xbe0b
     1a0:	03000008 	movweq	r0, #8
     1a4:	0b0b0024 	bleq	2c023c <__bss_end__+0x2b624c>
     1a8:	0e030b3e 	vmoveq.16	d3[0], r0
     1ac:	26040000 	strcs	r0, [r4], -r0
     1b0:	00134900 	andseq	r4, r3, r0, lsl #18
     1b4:	00350500 	eorseq	r0, r5, r0, lsl #10
     1b8:	00001349 	andeq	r1, r0, r9, asr #6
     1bc:	03001606 	movweq	r1, #1542	; 0x606
     1c0:	3b0b3a0e 	blcc	2cea00 <__bss_end__+0x2c4a10>
     1c4:	490b390b 	stmdbmi	fp, {r0, r1, r3, r8, fp, ip, sp}
     1c8:	07000013 	smladeq	r0, r3, r0, r0
     1cc:	19270115 	stmdbne	r7!, {r0, r2, r4, r8}
     1d0:	13011349 	movwne	r1, #4937	; 0x1349
     1d4:	05080000 	streq	r0, [r8, #-0]
     1d8:	00134900 	andseq	r4, r3, r0, lsl #18
     1dc:	00340900 	eorseq	r0, r4, r0, lsl #18
     1e0:	0b3a0e03 	bleq	e839f4 <__bss_end__+0xe79a04>
     1e4:	0b390b3b 	bleq	e42ed8 <__bss_end__+0xe38ee8>
     1e8:	193f1349 	ldmdbne	pc!, {r0, r3, r6, r8, r9, ip}	; <UNPREDICTABLE>
     1ec:	0000193c 	andeq	r1, r0, ip, lsr r9
     1f0:	0b000f0a 	bleq	3e20 <__code_start__-0x41e0>
     1f4:	0013490b 	andseq	r4, r3, fp, lsl #18
     1f8:	01130b00 	tsteq	r3, r0, lsl #22
     1fc:	0b0b0e03 	bleq	2c3a10 <__bss_end__+0x2b9a20>
     200:	0b3b0b3a 	bleq	ec2ef0 <__bss_end__+0xeb8f00>
     204:	13010b39 	movwne	r0, #6969	; 0x1b39
     208:	0d0c0000 	stceq	0, cr0, [ip, #-0]
     20c:	3a080300 	bcc	200e14 <__bss_end__+0x1f6e24>
     210:	390b3b0b 	stmdbcc	fp, {r0, r1, r3, r8, r9, fp, ip, sp}
     214:	3813490b 	ldmdacc	r3, {r0, r1, r3, r8, fp, lr}
     218:	0d00000b 	stceq	0, cr0, [r0, #-44]	; 0xffffffd4
     21c:	0e03000d 	cdpeq	0, 0, cr0, cr3, cr13, {0}
     220:	0b3b0b3a 	bleq	ec2f10 <__bss_end__+0xeb8f20>
     224:	13490b39 	movtne	r0, #39737	; 0x9b39
     228:	00000b38 	andeq	r0, r0, r8, lsr fp
     22c:	3e01040e 	cdpcc	4, 0, cr0, cr1, cr14, {0}
     230:	490b0b0b 	stmdbmi	fp, {r0, r1, r3, r8, r9, fp}
     234:	3b0b3a13 	blcc	2cea88 <__bss_end__+0x2c4a98>
     238:	010b390b 	tsteq	fp, fp, lsl #18
     23c:	0f000013 	svceq	0x00000013
     240:	08030028 	stmdaeq	r3, {r3, r5}
     244:	0000051c 	andeq	r0, r0, ip, lsl r5
     248:	03002810 	movweq	r2, #2064	; 0x810
     24c:	000b1c08 	andeq	r1, fp, r8, lsl #24
     250:	00281100 	eoreq	r1, r8, r0, lsl #2
     254:	051c0e03 	ldreq	r0, [ip, #-3587]	; 0xfffff1fd
     258:	34120000 	ldrcc	r0, [r2], #-0
     25c:	3a0e0300 	bcc	380e64 <__bss_end__+0x376e74>
     260:	390b3b0b 	stmdbcc	fp, {r0, r1, r3, r8, r9, fp, ip, sp}
     264:	1c13490b 			; <UNDEFINED> instruction: 0x1c13490b
     268:	1300000b 	movwne	r0, #11
     26c:	13490101 	movtne	r0, #37121	; 0x9101
     270:	00001301 	andeq	r1, r0, r1, lsl #6
     274:	49002114 	stmdbmi	r0, {r2, r4, r8, sp}
     278:	15000013 	strne	r0, [r0, #-19]	; 0xffffffed
     27c:	193f012e 	ldmdbne	pc!, {r1, r2, r3, r5, r8}	; <UNPREDICTABLE>
     280:	0b3a0e03 	bleq	e83a94 <__bss_end__+0xe79aa4>
     284:	0b390b3b 	bleq	e42f78 <__bss_end__+0xe38f88>
     288:	01111927 	tsteq	r1, r7, lsr #18
     28c:	18400612 	stmdane	r0, {r1, r4, r9, sl}^
     290:	01194297 			; <UNDEFINED> instruction: 0x01194297
     294:	16000013 			; <UNDEFINED> instruction: 0x16000013
     298:	08030005 	stmdaeq	r3, {r0, r2}
     29c:	0b3b0b3a 	bleq	ec2f8c <__bss_end__+0xeb8f9c>
     2a0:	13490b39 	movtne	r0, #39737	; 0x9b39
     2a4:	42b71702 	adcsmi	r1, r7, #524288	; 0x80000
     2a8:	17000017 	smladne	r0, r7, r0, r0
     2ac:	08030005 	stmdaeq	r3, {r0, r2}
     2b0:	0b3b0b3a 	bleq	ec2fa0 <__bss_end__+0xeb8fb0>
     2b4:	13490b39 	movtne	r0, #39737	; 0x9b39
     2b8:	00001802 	andeq	r1, r0, r2, lsl #16
     2bc:	31011d18 	tstcc	r1, r8, lsl sp
     2c0:	b8015213 	stmdalt	r1, {r0, r1, r4, r9, ip, lr}
     2c4:	17550542 	ldrbne	r0, [r5, -r2, asr #10]
     2c8:	0b590b58 	bleq	1643030 <__bss_end__+0x1639040>
     2cc:	00000b57 	andeq	r0, r0, r7, asr fp
     2d0:	31000519 	tstcc	r0, r9, lsl r5
     2d4:	b7170213 			; <UNDEFINED> instruction: 0xb7170213
     2d8:	00001742 	andeq	r1, r0, r2, asr #14
     2dc:	31010b1a 	tstcc	r1, sl, lsl fp
     2e0:	01175513 	tsteq	r7, r3, lsl r5
     2e4:	1b000013 	blne	338 <__code_start__-0x7cc8>
     2e8:	13310034 	teqne	r1, #52, 0	; 0x34
     2ec:	42b71702 	adcsmi	r1, r7, #524288	; 0x80000
     2f0:	1c000017 	stcne	0, cr0, [r0], {23}
     2f4:	13310005 	teqne	r1, #5, 0
     2f8:	1d1d0000 	ldcne	0, cr0, [sp, #-0]
     2fc:	52133101 	andspl	r3, r3, #1073741824	; 0x40000000
     300:	0542b801 	strbeq	fp, [r2, #-2049]	; 0xfffff7ff
     304:	0b581755 	bleq	1606060 <__bss_end__+0x15fc070>
     308:	0b570b59 	bleq	15c3074 <__bss_end__+0x15b9084>
     30c:	00001301 	andeq	r1, r0, r1, lsl #6
     310:	31010b1e 	tstcc	r1, lr, lsl fp
     314:	00175513 	andseq	r5, r7, r3, lsl r5
     318:	010b1f00 	tsteq	fp, r0, lsl #30
     31c:	00001755 	andeq	r1, r0, r5, asr r7
     320:	31010b20 	tstcc	r1, r0, lsr #22
     324:	12011113 	andne	r1, r1, #-1073741820	; 0xc0000004
     328:	00130106 	andseq	r0, r3, r6, lsl #2
     32c:	011d2100 	tsteq	sp, r0, lsl #2
     330:	01521331 	cmpeq	r2, r1, lsr r3
     334:	110542b8 			; <UNDEFINED> instruction: 0x110542b8
     338:	58061201 	stmdapl	r6, {r0, r9, ip}
     33c:	570b590b 	strpl	r5, [fp, -fp, lsl #18]
     340:	2200000b 	andcs	r0, r0, #11, 0
     344:	1331010b 	teqne	r1, #-1073741822	; 0xc0000002
     348:	06120111 			; <UNDEFINED> instruction: 0x06120111
     34c:	1d230000 	stcne	0, cr0, [r3, #-0]
     350:	52133101 	andspl	r3, r3, #1073741824	; 0x40000000
     354:	0542b801 	strbeq	fp, [r2, #-2049]	; 0xfffff7ff
     358:	06120111 			; <UNDEFINED> instruction: 0x06120111
     35c:	0b590b58 	bleq	16430c4 <__bss_end__+0x16390d4>
     360:	13010b57 	movwne	r0, #6999	; 0x1b57
     364:	1d240000 	stcne	0, cr0, [r4, #-0]
     368:	55133101 	ldrpl	r3, [r3, #-257]	; 0xfffffeff
     36c:	590b5817 	stmdbpl	fp, {r0, r1, r2, r4, fp, ip, lr}
     370:	010b570b 	tsteq	fp, fp, lsl #14
     374:	25000013 	strcs	r0, [r0, #-19]	; 0xffffffed
     378:	13310034 	teqne	r1, #52, 0	; 0x34
     37c:	1d260000 	stcne	0, cr0, [r6, #-0]
     380:	55133101 	ldrpl	r3, [r3, #-257]	; 0xfffffeff
     384:	590b5817 	stmdbpl	fp, {r0, r1, r2, r4, fp, ip, lr}
     388:	000b570b 	andeq	r5, fp, fp, lsl #14
     38c:	82892700 	addhi	r2, r9, #0, 14
     390:	01110001 	tsteq	r1, r1
     394:	31194295 			; <UNDEFINED> instruction: 0x31194295
     398:	28000013 	stmdacs	r0, {r0, r1, r4}
     39c:	193f012e 	ldmdbne	pc!, {r1, r2, r3, r5, r8}	; <UNPREDICTABLE>
     3a0:	0b3a0e03 	bleq	e83bb4 <__bss_end__+0xe79bc4>
     3a4:	0b390b3b 	bleq	e43098 <__bss_end__+0xe390a8>
     3a8:	0b201927 	bleq	80684c <__bss_end__+0x7fc85c>
     3ac:	00001301 	andeq	r1, r0, r1, lsl #6
     3b0:	03000529 	movweq	r0, #1321	; 0x529
     3b4:	3b0b3a08 	blcc	2cebdc <__bss_end__+0x2c4bec>
     3b8:	490b390b 	stmdbmi	fp, {r0, r1, r3, r8, fp, ip, sp}
     3bc:	2a000013 	bcs	410 <__code_start__-0x7bf0>
     3c0:	0000010b 	andeq	r0, r0, fp, lsl #2
     3c4:	0300342b 	movweq	r3, #1067	; 0x42b
     3c8:	3b0b3a08 	blcc	2cebf0 <__bss_end__+0x2c4c00>
     3cc:	490b390b 	stmdbmi	fp, {r0, r1, r3, r8, fp, ip, sp}
     3d0:	2c000013 	stccs	0, cr0, [r0], {19}
     3d4:	13310034 	teqne	r1, #52, 0	; 0x34
     3d8:	0000061c 	andeq	r0, r0, ip, lsl r6
     3dc:	3f012e2d 	svccc	0x00012e2d
     3e0:	3a0e0319 	bcc	38104c <__bss_end__+0x37705c>
     3e4:	390b3b0b 	stmdbcc	fp, {r0, r1, r3, r8, r9, fp, ip, sp}
     3e8:	4919270b 	ldmdbmi	r9, {r0, r1, r3, r8, r9, sl, sp}
     3ec:	12011113 	andne	r1, r1, #-1073741820	; 0xc0000004
     3f0:	97184006 	ldrls	r4, [r8, -r6]
     3f4:	13011942 	movwne	r1, #6466	; 0x1942
     3f8:	052e0000 	streq	r0, [lr, #-0]!
     3fc:	3a0e0300 	bcc	381004 <__bss_end__+0x377014>
     400:	390b3b0b 	stmdbcc	fp, {r0, r1, r3, r8, r9, fp, ip, sp}
     404:	0213490b 	andseq	r4, r3, #180224	; 0x2c000
     408:	1742b717 	smlaldne	fp, r2, r7, r7
     40c:	342f0000 	strtcc	r0, [pc], #-0	; 414 <__code_start__-0x7bec>
     410:	3a080300 	bcc	201018 <__bss_end__+0x1f7028>
     414:	390b3b0b 	stmdbcc	fp, {r0, r1, r3, r8, r9, fp, ip, sp}
     418:	0213490b 	andseq	r4, r3, #180224	; 0x2c000
     41c:	1742b717 	smlaldne	fp, r2, r7, r7
     420:	34300000 	ldrtcc	r0, [r0], #-0
     424:	3a0e0300 	bcc	38102c <__bss_end__+0x37703c>
     428:	390b3b0b 	stmdbcc	fp, {r0, r1, r3, r8, r9, fp, ip, sp}
     42c:	0213490b 	andseq	r4, r3, #180224	; 0x2c000
     430:	1742b717 	smlaldne	fp, r2, r7, r7
     434:	89310000 	ldmdbhi	r1!, {}	; <UNPREDICTABLE>
     438:	11000182 	smlabbne	r0, r2, r1, r0
     43c:	00133101 	andseq	r3, r3, r1, lsl #2
     440:	82893200 	addhi	r3, r9, #0, 4
     444:	01110101 	tsteq	r1, r1, lsl #2
     448:	13011331 	movwne	r1, #4913	; 0x1331
     44c:	8a330000 	bhi	cc0454 <__bss_end__+0xcb6464>
     450:	02000182 	andeq	r0, r0, #-2147483616	; 0x80000020
     454:	18429118 	stmdane	r2, {r3, r4, r8, ip, pc}^
     458:	89340000 	ldmdbhi	r4!, {}	; <UNPREDICTABLE>
     45c:	11010182 	smlabbne	r1, r2, r1, r0
     460:	00133101 	andseq	r3, r3, r1, lsl #2
     464:	010b3500 	tsteq	fp, r0, lsl #10
     468:	13011755 	movwne	r1, #5973	; 0x1755
     46c:	89360000 	ldmdbhi	r6!, {}	; <UNPREDICTABLE>
     470:	11010182 	smlabbne	r1, r2, r1, r0
     474:	19429501 	stmdbne	r2, {r0, r8, sl, ip, pc}^
     478:	13011331 	movwne	r1, #4913	; 0x1331
     47c:	89370000 	ldmdbhi	r7!, {}	; <UNPREDICTABLE>
     480:	11010182 	smlabbne	r1, r2, r1, r0
     484:	19429501 	stmdbne	r2, {r0, r8, sl, ip, pc}^
     488:	00001331 	andeq	r1, r0, r1, lsr r3
     48c:	03012e38 	movweq	r2, #7736	; 0x1e38
     490:	3b0b3a0e 	blcc	2cecd0 <__bss_end__+0x2c4ce0>
     494:	270b390b 	strcs	r3, [fp, -fp, lsl #18]
     498:	010b2019 	tsteq	fp, r9, lsl r0
     49c:	39000013 	stmdbcc	r0, {r0, r1, r4}
     4a0:	0803012e 	stmdaeq	r3, {r1, r2, r3, r5, r8}
     4a4:	0b3b0b3a 	bleq	ec3194 <__bss_end__+0xeb91a4>
     4a8:	19270b39 	stmdbne	r7!, {r0, r3, r4, r5, r8, r9, fp}
     4ac:	13010b20 	movwne	r0, #6944	; 0x1b20
     4b0:	053a0000 	ldreq	r0, [sl, #-0]!
     4b4:	3a0e0300 	bcc	3810bc <__bss_end__+0x3770cc>
     4b8:	390b3b0b 	stmdbcc	fp, {r0, r1, r3, r8, r9, fp, ip, sp}
     4bc:	0013490b 	andseq	r4, r3, fp, lsl #18
     4c0:	00343b00 	eorseq	r3, r4, r0, lsl #22
     4c4:	0b3a0e03 	bleq	e83cd8 <__bss_end__+0xe79ce8>
     4c8:	0b390b3b 	bleq	e431bc <__bss_end__+0xe391cc>
     4cc:	00001349 	andeq	r1, r0, r9, asr #6
     4d0:	31012e3c 	tstcc	r1, ip, lsr lr
     4d4:	12011113 	andne	r1, r1, #-1073741820	; 0xc0000004
     4d8:	97184006 	ldrls	r4, [r8, -r6]
     4dc:	13011942 	movwne	r1, #6466	; 0x1942
     4e0:	2e3d0000 	cdpcs	0, 3, cr0, cr13, cr0, {0}
     4e4:	3c193f00 	ldccc	15, cr3, [r9], {-0}
     4e8:	030e6e19 	movweq	r6, #60953	; 0xee19
     4ec:	3b0b3a0e 	blcc	2ced2c <__bss_end__+0x2c4d3c>
     4f0:	000b390b 	andeq	r3, fp, fp, lsl #18
     4f4:	11010000 	mrsne	r0, (UNDEF: 1)
     4f8:	130e2501 	movwne	r2, #58625	; 0xe501
     4fc:	1b0e030b 	blne	381130 <__bss_end__+0x377140>
     500:	1201110e 	andne	r1, r1, #-2147483645	; 0x80000003
     504:	00171006 	andseq	r1, r7, r6
     508:	00240200 	eoreq	r0, r4, r0, lsl #4
     50c:	0b3e0b0b 	bleq	f83140 <__bss_end__+0xf79150>
     510:	00000803 	andeq	r0, r0, r3, lsl #16
     514:	0b002403 	bleq	9528 <timer_get_usec_raw+0xc>
     518:	030b3e0b 	movweq	r3, #48651	; 0xbe0b
     51c:	0400000e 	streq	r0, [r0], #-14
     520:	13490026 	movtne	r0, #36902	; 0x9026
     524:	16050000 	strne	r0, [r5], -r0
     528:	3a0e0300 	bcc	381130 <__bss_end__+0x377140>
     52c:	390b3b0b 	stmdbcc	fp, {r0, r1, r3, r8, r9, fp, ip, sp}
     530:	0013490b 	andseq	r4, r3, fp, lsl #18
     534:	01150600 	tsteq	r5, r0, lsl #12
     538:	13491927 	movtne	r1, #39207	; 0x9927
     53c:	00001301 	andeq	r1, r0, r1, lsl #6
     540:	49000507 	stmdbmi	r0, {r0, r1, r2, r8, sl}
     544:	08000013 	stmdaeq	r0, {r0, r1, r4}
     548:	0e030034 	mcreq	0, 0, r0, cr3, cr4, {1}
     54c:	0b3b0b3a 	bleq	ec323c <__bss_end__+0xeb924c>
     550:	13490b39 	movtne	r0, #39737	; 0x9b39
     554:	193c193f 	ldmdbne	ip!, {r0, r1, r2, r3, r4, r5, r8, fp, ip}
     558:	0f090000 	svceq	0x00090000
     55c:	490b0b00 	stmdbmi	fp, {r8, r9, fp}
     560:	0a000013 	beq	5b4 <__code_start__-0x7a4c>
     564:	0b3e0104 	bleq	f8097c <__bss_end__+0xf7698c>
     568:	13490b0b 	movtne	r0, #39691	; 0x9b0b
     56c:	0b3b0b3a 	bleq	ec325c <__bss_end__+0xeb926c>
     570:	13010b39 	movwne	r0, #6969	; 0x1b39
     574:	280b0000 	stmdacs	fp, {}	; <UNPREDICTABLE>
     578:	1c0e0300 	stcne	3, cr0, [lr], {-0}
     57c:	0c00000b 	stceq	0, cr0, [r0], {11}
     580:	0e030034 	mcreq	0, 0, r0, cr3, cr4, {1}
     584:	0b3b0b3a 	bleq	ec3274 <__bss_end__+0xeb9284>
     588:	13490b39 	movtne	r0, #39737	; 0x9b39
     58c:	0000061c 	andeq	r0, r0, ip, lsl r6
     590:	3f012e0d 	svccc	0x00012e0d
     594:	3a0e0319 	bcc	381200 <__bss_end__+0x377210>
     598:	390b3b0b 	stmdbcc	fp, {r0, r1, r3, r8, r9, fp, ip, sp}
     59c:	4919270b 	ldmdbmi	r9, {r0, r1, r3, r8, r9, sl, sp}
     5a0:	12011113 	andne	r1, r1, #-1073741820	; 0xc0000004
     5a4:	97184006 	ldrls	r4, [r8, -r6]
     5a8:	13011942 	movwne	r1, #6466	; 0x1942
     5ac:	050e0000 	streq	r0, [lr, #-0]
     5b0:	3a080300 	bcc	2011b8 <__bss_end__+0x1f71c8>
     5b4:	390b3b0b 	stmdbcc	fp, {r0, r1, r3, r8, r9, fp, ip, sp}
     5b8:	0213490b 	andseq	r4, r3, #180224	; 0x2c000
     5bc:	1742b717 	smlaldne	fp, r2, r7, r7
     5c0:	340f0000 	strcc	r0, [pc], #-0	; 5c8 <__code_start__-0x7a38>
     5c4:	3a0e0300 	bcc	3811cc <__bss_end__+0x3771dc>
     5c8:	390b3b0b 	stmdbcc	fp, {r0, r1, r3, r8, r9, fp, ip, sp}
     5cc:	0213490b 	andseq	r4, r3, #180224	; 0x2c000
     5d0:	1742b717 	smlaldne	fp, r2, r7, r7
     5d4:	34100000 	ldrcc	r0, [r0], #-0
     5d8:	3a080300 	bcc	2011e0 <__bss_end__+0x1f71f0>
     5dc:	390b3b0b 	stmdbcc	fp, {r0, r1, r3, r8, r9, fp, ip, sp}
     5e0:	0213490b 	andseq	r4, r3, #180224	; 0x2c000
     5e4:	1742b717 	smlaldne	fp, r2, r7, r7
     5e8:	89110000 	ldmdbhi	r1, {}	; <UNPREDICTABLE>
     5ec:	11010182 	smlabbne	r1, r2, r1, r0
     5f0:	00133101 	andseq	r3, r3, r1, lsl #2
     5f4:	828a1200 	addhi	r1, sl, #0, 4
     5f8:	18020001 	stmdane	r2, {r0}
     5fc:	00184291 	mulseq	r8, r1, r2
     600:	012e1300 			; <UNDEFINED> instruction: 0x012e1300
     604:	0e03193f 			; <UNDEFINED> instruction: 0x0e03193f
     608:	0b3b0b3a 	bleq	ec32f8 <__bss_end__+0xeb9308>
     60c:	19270b39 	stmdbne	r7!, {r0, r3, r4, r5, r8, r9, fp}
     610:	06120111 			; <UNDEFINED> instruction: 0x06120111
     614:	42971840 	addsmi	r1, r7, #64, 16	; 0x400000
     618:	00130119 	andseq	r0, r3, r9, lsl r1
     61c:	82891400 	addhi	r1, r9, #0, 8
     620:	01110101 	tsteq	r1, r1, lsl #2
     624:	13011331 	movwne	r1, #4913	; 0x1331
     628:	89150000 	ldmdbhi	r5, {}	; <UNPREDICTABLE>
     62c:	11000182 	smlabbne	r0, r2, r1, r0
     630:	00133101 	andseq	r3, r3, r1, lsl #2
     634:	00051600 	andeq	r1, r5, r0, lsl #12
     638:	0b3a0e03 	bleq	e83e4c <__bss_end__+0xe79e5c>
     63c:	0b390b3b 	bleq	e43330 <__bss_end__+0xe39340>
     640:	17021349 	strne	r1, [r2, -r9, asr #6]
     644:	001742b7 			; <UNDEFINED> instruction: 0x001742b7
     648:	012e1700 			; <UNDEFINED> instruction: 0x012e1700
     64c:	0b3a0e03 	bleq	e83e60 <__bss_end__+0xe79e70>
     650:	0b390b3b 	bleq	e43344 <__bss_end__+0xe39354>
     654:	13491927 	movtne	r1, #39207	; 0x9927
     658:	13010b20 	movwne	r0, #6944	; 0x1b20
     65c:	05180000 	ldreq	r0, [r8, #-0]
     660:	3a080300 	bcc	201268 <__bss_end__+0x1f7278>
     664:	390b3b0b 	stmdbcc	fp, {r0, r1, r3, r8, r9, fp, ip, sp}
     668:	0013490b 	andseq	r4, r3, fp, lsl #18
     66c:	002e1900 	eoreq	r1, lr, r0, lsl #18
     670:	193c193f 	ldmdbne	ip!, {r0, r1, r2, r3, r4, r5, r8, fp, ip}
     674:	0e030e6e 	cdpeq	14, 0, cr0, cr3, cr14, {3}
     678:	0b3b0b3a 	bleq	ec3368 <__bss_end__+0xeb9378>
     67c:	00000b39 	andeq	r0, r0, r9, lsr fp
     680:	01110100 	tsteq	r1, r0, lsl #2
     684:	0b130e25 	bleq	4c3f20 <__bss_end__+0x4b9f30>
     688:	0e1b0e03 	cdpeq	14, 1, cr0, cr11, cr3, {0}
     68c:	06120111 			; <UNDEFINED> instruction: 0x06120111
     690:	00001710 	andeq	r1, r0, r0, lsl r7
     694:	0b002402 	bleq	96a4 <uart_can_getc+0x14>
     698:	030b3e0b 	movweq	r3, #48651	; 0xbe0b
     69c:	03000008 	movweq	r0, #8
     6a0:	0b0b0024 	bleq	2c0738 <__bss_end__+0x2b6748>
     6a4:	0e030b3e 	vmoveq.16	d3[0], r0
     6a8:	15040000 	strne	r0, [r4, #-0]
     6ac:	49192701 	ldmdbmi	r9, {r0, r8, r9, sl, sp}
     6b0:	00130113 	andseq	r0, r3, r3, lsl r1
     6b4:	00050500 	andeq	r0, r5, r0, lsl #10
     6b8:	00001349 	andeq	r1, r0, r9, asr #6
     6bc:	03003406 	movweq	r3, #1030	; 0x406
     6c0:	3b0b3a0e 	blcc	2cef00 <__bss_end__+0x2c4f10>
     6c4:	490b390b 	stmdbmi	fp, {r0, r1, r3, r8, fp, ip, sp}
     6c8:	3c193f13 	ldccc	15, cr3, [r9], {19}
     6cc:	07000019 	smladeq	r0, r9, r0, r0
     6d0:	0b0b000f 	bleq	2c0714 <__bss_end__+0x2b6724>
     6d4:	00001349 	andeq	r1, r0, r9, asr #6
     6d8:	49002608 	stmdbmi	r0, {r3, r9, sl, sp}
     6dc:	09000013 	stmdbeq	r0, {r0, r1, r4}
     6e0:	0e030034 	mcreq	0, 0, r0, cr3, cr4, {1}
     6e4:	0b3b0b3a 	bleq	ec33d4 <__bss_end__+0xeb93e4>
     6e8:	13490b39 	movtne	r0, #39737	; 0x9b39
     6ec:	00001802 	andeq	r1, r0, r2, lsl #16
     6f0:	0b000f0a 	bleq	4320 <__code_start__-0x3ce0>
     6f4:	0b00000b 	bleq	728 <__code_start__-0x78d8>
     6f8:	193f002e 	ldmdbne	pc!, {r1, r2, r3, r5}	; <UNPREDICTABLE>
     6fc:	0b3a0e03 	bleq	e83f10 <__bss_end__+0xe79f20>
     700:	0b390b3b 	bleq	e433f4 <__bss_end__+0xe39404>
     704:	13491927 	movtne	r1, #39207	; 0x9927
     708:	06120111 			; <UNDEFINED> instruction: 0x06120111
     70c:	42971840 	addsmi	r1, r7, #64, 16	; 0x400000
     710:	0c000019 	stceq	0, cr0, [r0], {25}
     714:	193f002e 	ldmdbne	pc!, {r1, r2, r3, r5}	; <UNPREDICTABLE>
     718:	0b3a0e03 	bleq	e83f2c <__bss_end__+0xe79f3c>
     71c:	0b390b3b 	bleq	e43410 <__bss_end__+0xe39420>
     720:	01111927 	tsteq	r1, r7, lsr #18
     724:	18400612 	stmdane	r0, {r1, r4, r9, sl}^
     728:	00194297 	mulseq	r9, r7, r2
     72c:	012e0d00 			; <UNDEFINED> instruction: 0x012e0d00
     730:	0e03193f 			; <UNDEFINED> instruction: 0x0e03193f
     734:	0b3b0b3a 	bleq	ec3424 <__bss_end__+0xeb9434>
     738:	19270b39 	stmdbne	r7!, {r0, r3, r4, r5, r8, r9, fp}
     73c:	06120111 			; <UNDEFINED> instruction: 0x06120111
     740:	42971840 	addsmi	r1, r7, #64, 16	; 0x400000
     744:	00130119 	andseq	r0, r3, r9, lsl r1
     748:	82890e00 	addhi	r0, r9, #0, 28
     74c:	01110101 	tsteq	r1, r1, lsl #2
     750:	00001331 	andeq	r1, r0, r1, lsr r3
     754:	01828a0f 	orreq	r8, r2, pc, lsl #20
     758:	91180200 	tstls	r8, r0, lsl #4
     75c:	00001842 	andeq	r1, r0, r2, asr #16
     760:	03000510 	movweq	r0, #1296	; 0x510
     764:	3b0b3a0e 	blcc	2cefa4 <__bss_end__+0x2c4fb4>
     768:	490b390b 	stmdbmi	fp, {r0, r1, r3, r8, fp, ip, sp}
     76c:	b7170213 			; <UNDEFINED> instruction: 0xb7170213
     770:	00001742 	andeq	r1, r0, r2, asr #14
     774:	03003411 	movweq	r3, #1041	; 0x411
     778:	3413490e 	ldrcc	r4, [r3], #-2318	; 0xfffff6f2
     77c:	00180219 	andseq	r0, r8, r9, lsl r2
     780:	011d1200 	tsteq	sp, r0, lsl #4
     784:	01521331 	cmpeq	r2, r1, lsr r3
     788:	550b42b8 	strpl	r4, [fp, #-696]	; 0xfffffd48
     78c:	590b5817 	stmdbpl	fp, {r0, r1, r2, r4, fp, ip, lr}
     790:	010b570b 	tsteq	fp, fp, lsl #14
     794:	13000013 	movwne	r0, #19
     798:	13310005 	teqne	r1, #5, 0
     79c:	42b71702 	adcsmi	r1, r7, #524288	; 0x80000
     7a0:	14000017 	strne	r0, [r0], #-23	; 0xffffffe9
     7a4:	1755000b 	ldrbne	r0, [r5, -fp]
     7a8:	89150000 	ldmdbhi	r5, {}	; <UNPREDICTABLE>
     7ac:	11000182 	smlabbne	r0, r2, r1, r0
     7b0:	00133101 	andseq	r3, r3, r1, lsl #2
     7b4:	82891600 	addhi	r1, r9, #0, 12
     7b8:	01110101 	tsteq	r1, r1, lsl #2
     7bc:	13011331 	movwne	r1, #4913	; 0x1331
     7c0:	01170000 	tsteq	r7, r0
     7c4:	01134901 	tsteq	r3, r1, lsl #18
     7c8:	18000013 	stmdane	r0, {r0, r1, r4}
     7cc:	13490021 	movtne	r0, #36897	; 0x9021
     7d0:	00000b2f 	andeq	r0, r0, pc, lsr #22
     7d4:	3f012e19 	svccc	0x00012e19
     7d8:	3a0e0319 	bcc	381444 <__bss_end__+0x377454>
     7dc:	390b3b0b 	stmdbcc	fp, {r0, r1, r3, r8, r9, fp, ip, sp}
     7e0:	4919270b 	ldmdbmi	r9, {r0, r1, r3, r8, r9, sl, sp}
     7e4:	12011113 	andne	r1, r1, #-1073741820	; 0xc0000004
     7e8:	97184006 	ldrls	r4, [r8, -r6]
     7ec:	13011942 	movwne	r1, #6466	; 0x1942
     7f0:	1d1a0000 	ldcne	0, cr0, [sl, #-0]
     7f4:	52133101 	andspl	r3, r3, #1073741824	; 0x40000000
     7f8:	0b42b801 	bleq	10ae804 <__bss_end__+0x10a4814>
     7fc:	06120111 			; <UNDEFINED> instruction: 0x06120111
     800:	0b590b58 	bleq	1643568 <__bss_end__+0x1639578>
     804:	13010b57 	movwne	r0, #6999	; 0x1b57
     808:	0b1b0000 	bleq	6c0810 <__bss_end__+0x6b6820>
     80c:	00175501 	andseq	r5, r7, r1, lsl #10
     810:	00341c00 	eorseq	r1, r4, r0, lsl #24
     814:	0b3a0e03 	bleq	e84028 <__bss_end__+0xe7a038>
     818:	0b390b3b 	bleq	e4350c <__bss_end__+0xe3951c>
     81c:	17021349 	strne	r1, [r2, -r9, asr #6]
     820:	001742b7 			; <UNDEFINED> instruction: 0x001742b7
     824:	012e1d00 			; <UNDEFINED> instruction: 0x012e1d00
     828:	0b3a0e03 	bleq	e8403c <__bss_end__+0xe7a04c>
     82c:	0b390b3b 	bleq	e43520 <__bss_end__+0xe39530>
     830:	13491927 	movtne	r1, #39207	; 0x9927
     834:	13010b20 	movwne	r0, #6944	; 0x1b20
     838:	051e0000 	ldreq	r0, [lr, #-0]
     83c:	3a080300 	bcc	201444 <__bss_end__+0x1f7454>
     840:	390b3b0b 	stmdbcc	fp, {r0, r1, r3, r8, r9, fp, ip, sp}
     844:	0013490b 	andseq	r4, r3, fp, lsl #18
     848:	002e1f00 	eoreq	r1, lr, r0, lsl #30
     84c:	193c193f 	ldmdbne	ip!, {r0, r1, r2, r3, r4, r5, r8, fp, ip}
     850:	0e030e6e 	cdpeq	14, 0, cr0, cr3, cr14, {3}
     854:	0b3b0b3a 	bleq	ec3544 <__bss_end__+0xeb9554>
     858:	00000b39 	andeq	r0, r0, r9, lsr fp
     85c:	01110100 	tsteq	r1, r0, lsl #2
     860:	0b130e25 	bleq	4c40fc <__bss_end__+0x4ba10c>
     864:	0e1b0e03 	cdpeq	14, 1, cr0, cr11, cr3, {0}
     868:	06120111 			; <UNDEFINED> instruction: 0x06120111
     86c:	00001710 	andeq	r1, r0, r0, lsl r7
     870:	0b002402 	bleq	9880 <__code_end__+0x28>
     874:	030b3e0b 	movweq	r3, #48651	; 0xbe0b
     878:	03000008 	movweq	r0, #8
     87c:	0e030016 	mcreq	0, 0, r0, cr3, cr6, {0}
     880:	0b3b0b3a 	bleq	ec3570 <__bss_end__+0xeb9580>
     884:	13490b39 	movtne	r0, #39737	; 0x9b39
     888:	24040000 	strcs	r0, [r4], #-0
     88c:	3e0b0b00 	vmlacc.f64	d0, d11, d0
     890:	000e030b 	andeq	r0, lr, fp, lsl #6
     894:	01150500 	tsteq	r5, r0, lsl #10
     898:	13491927 	movtne	r1, #39207	; 0x9927
     89c:	00001301 	andeq	r1, r0, r1, lsl #6
     8a0:	49000506 	stmdbmi	r0, {r1, r2, r8, sl}
     8a4:	07000013 	smladeq	r0, r3, r0, r0
     8a8:	0e030034 	mcreq	0, 0, r0, cr3, cr4, {1}
     8ac:	0b3b0b3a 	bleq	ec359c <__bss_end__+0xeb95ac>
     8b0:	13490b39 	movtne	r0, #39737	; 0x9b39
     8b4:	193c193f 	ldmdbne	ip!, {r0, r1, r2, r3, r4, r5, r8, fp, ip}
     8b8:	0f080000 	svceq	0x00080000
     8bc:	490b0b00 	stmdbmi	fp, {r8, r9, fp}
     8c0:	09000013 	stmdbeq	r0, {r0, r1, r4}
     8c4:	13490026 	movtne	r0, #36902	; 0x9026
     8c8:	2e0a0000 	cdpcs	0, 0, cr0, cr10, cr0, {0}
     8cc:	03193f01 	tsteq	r9, #1, 30
     8d0:	3b0b3a0e 	blcc	2cf110 <__bss_end__+0x2c5120>
     8d4:	270b390b 	strcs	r3, [fp, -fp, lsl #18]
     8d8:	11134919 	tstne	r3, r9, lsl r9
     8dc:	40061201 	andmi	r1, r6, r1, lsl #4
     8e0:	19429718 	stmdbne	r2, {r3, r4, r8, r9, sl, ip, pc}^
     8e4:	00001301 	andeq	r1, r0, r1, lsl #6
     8e8:	0300050b 	movweq	r0, #1291	; 0x50b
     8ec:	3b0b3a08 	blcc	2cf114 <__bss_end__+0x2c5124>
     8f0:	490b390b 	stmdbmi	fp, {r0, r1, r3, r8, fp, ip, sp}
     8f4:	00180213 	andseq	r0, r8, r3, lsl r2
     8f8:	00050c00 	andeq	r0, r5, r0, lsl #24
     8fc:	0b3a0803 	bleq	e82910 <__bss_end__+0xe78920>
     900:	0b390b3b 	bleq	e435f4 <__bss_end__+0xe39604>
     904:	17021349 	strne	r1, [r2, -r9, asr #6]
     908:	001742b7 			; <UNDEFINED> instruction: 0x001742b7
     90c:	00340d00 	eorseq	r0, r4, r0, lsl #26
     910:	0b3a0803 	bleq	e82924 <__bss_end__+0xe78934>
     914:	0b390b3b 	bleq	e43608 <__bss_end__+0xe39618>
     918:	17021349 	strne	r1, [r2, -r9, asr #6]
     91c:	001742b7 			; <UNDEFINED> instruction: 0x001742b7
     920:	000f0e00 	andeq	r0, pc, r0, lsl #28
     924:	00000b0b 	andeq	r0, r0, fp, lsl #22
     928:	01110100 	tsteq	r1, r0, lsl #2
     92c:	0b130e25 	bleq	4c41c8 <__bss_end__+0x4ba1d8>
     930:	0e1b0e03 	cdpeq	14, 1, cr0, cr11, cr3, {0}
     934:	06120111 			; <UNDEFINED> instruction: 0x06120111
     938:	00001710 	andeq	r1, r0, r0, lsl r7
     93c:	03001602 	movweq	r1, #1538	; 0x602
     940:	3b0b3a0e 	blcc	2cf180 <__bss_end__+0x2c5190>
     944:	490b390b 	stmdbmi	fp, {r0, r1, r3, r8, fp, ip, sp}
     948:	03000013 	movweq	r0, #19
     94c:	0e030113 	mcreq	1, 0, r0, cr3, cr3, {0}
     950:	0b3a0b0b 	bleq	e83584 <__bss_end__+0xe79594>
     954:	13010b3b 	movwne	r0, #6971	; 0x1b3b
     958:	0d040000 	stceq	0, cr0, [r4, #-0]
     95c:	490e0300 	stmdbmi	lr, {r8, r9}
     960:	340b3813 	strcc	r3, [fp], #-2067	; 0xfffff7ed
     964:	05000019 	streq	r0, [r0, #-25]	; 0xffffffe7
     968:	0b0b000f 	bleq	2c09ac <__bss_end__+0x2b69bc>
     96c:	24060000 	strcs	r0, [r6], #-0
     970:	3e0b0b00 	vmlacc.f64	d0, d11, d0
     974:	0008030b 	andeq	r0, r8, fp, lsl #6
     978:	00240700 	eoreq	r0, r4, r0, lsl #14
     97c:	0b3e0b0b 	bleq	f835b0 <__bss_end__+0xf795c0>
     980:	00000e03 	andeq	r0, r0, r3, lsl #28
     984:	27011508 	strcs	r1, [r1, -r8, lsl #10]
     988:	01134919 	tsteq	r3, r9, lsl r9
     98c:	09000013 	stmdbeq	r0, {r0, r1, r4}
     990:	13490005 	movtne	r0, #36869	; 0x9005
     994:	340a0000 	strcc	r0, [sl], #-0
     998:	3a0e0300 	bcc	3815a0 <__bss_end__+0x3775b0>
     99c:	390b3b0b 	stmdbcc	fp, {r0, r1, r3, r8, r9, fp, ip, sp}
     9a0:	3f13490b 	svccc	0x0013490b
     9a4:	00193c19 	andseq	r3, r9, r9, lsl ip
     9a8:	000f0b00 	andeq	r0, pc, r0, lsl #22
     9ac:	13490b0b 	movtne	r0, #39691	; 0x9b0b
     9b0:	260c0000 	strcs	r0, [ip], -r0
     9b4:	00134900 	andseq	r4, r3, r0, lsl #18
     9b8:	012e0d00 			; <UNDEFINED> instruction: 0x012e0d00
     9bc:	0e03193f 			; <UNDEFINED> instruction: 0x0e03193f
     9c0:	0b3b0b3a 	bleq	ec36b0 <__bss_end__+0xeb96c0>
     9c4:	19270b39 	stmdbne	r7!, {r0, r3, r4, r5, r8, r9, fp}
     9c8:	01111349 	tsteq	r1, r9, asr #6
     9cc:	18400612 	stmdane	r0, {r1, r4, r9, sl}^
     9d0:	01194297 			; <UNDEFINED> instruction: 0x01194297
     9d4:	0e000013 	mcreq	0, 0, r0, cr0, cr3, {0}
     9d8:	08030005 	stmdaeq	r3, {r0, r2}
     9dc:	0b3b0b3a 	bleq	ec36cc <__bss_end__+0xeb96dc>
     9e0:	13490b39 	movtne	r0, #39737	; 0x9b39
     9e4:	00001802 	andeq	r1, r0, r2, lsl #16
     9e8:	0000180f 	andeq	r1, r0, pc, lsl #16
     9ec:	00341000 	eorseq	r1, r4, r0
     9f0:	0b3a0803 	bleq	e82a04 <__bss_end__+0xe78a14>
     9f4:	0b390b3b 	bleq	e436e8 <__bss_end__+0xe396f8>
     9f8:	18021349 	stmdane	r2, {r0, r3, r6, r8, r9, ip}
     9fc:	34110000 	ldrcc	r0, [r1], #-0
     a00:	3a0e0300 	bcc	381608 <__bss_end__+0x377618>
     a04:	390b3b0b 	stmdbcc	fp, {r0, r1, r3, r8, r9, fp, ip, sp}
     a08:	0213490b 	andseq	r4, r3, #180224	; 0x2c000
     a0c:	12000018 	andne	r0, r0, #24, 0
     a10:	08030034 	stmdaeq	r3, {r2, r4, r5}
     a14:	0b3b0b3a 	bleq	ec3704 <__bss_end__+0xeb9714>
     a18:	13490b39 	movtne	r0, #39737	; 0x9b39
     a1c:	42b71702 	adcsmi	r1, r7, #524288	; 0x80000
     a20:	13000017 	movwne	r0, #23
     a24:	01018289 	smlabbeq	r1, r9, r2, r8
     a28:	13310111 	teqne	r1, #1073741828	; 0x40000004
     a2c:	00001301 	andeq	r1, r0, r1, lsl #6
     a30:	01828a14 	orreq	r8, r2, r4, lsl sl
     a34:	91180200 	tstls	r8, r0, lsl #4
     a38:	00001842 	andeq	r1, r0, r2, asr #16
     a3c:	01828915 	orreq	r8, r2, r5, lsl r9
     a40:	00011101 	andeq	r1, r1, r1, lsl #2
     a44:	01011600 	tsteq	r1, r0, lsl #12
     a48:	13011349 	movwne	r1, #4937	; 0x1349
     a4c:	21170000 	tstcs	r7, r0
     a50:	2f134900 	svccs	0x00134900
     a54:	18000005 	stmdane	r0, {r0, r2}
     a58:	193f002e 	ldmdbne	pc!, {r1, r2, r3, r5}	; <UNPREDICTABLE>
     a5c:	0e6e193c 			; <UNDEFINED> instruction: 0x0e6e193c
     a60:	0b3a0e03 	bleq	e84274 <__bss_end__+0xe7a284>
     a64:	0b390b3b 	bleq	e43758 <__bss_end__+0xe39768>
     a68:	01000000 	mrseq	r0, (UNDEF: 0)
     a6c:	0e250111 	mcreq	1, 1, r0, cr5, cr1, {0}
     a70:	0e030b13 	vmoveq.32	d3[0], r0
     a74:	01110e1b 	tsteq	r1, fp, lsl lr
     a78:	17100612 			; <UNDEFINED> instruction: 0x17100612
     a7c:	24020000 	strcs	r0, [r2], #-0
     a80:	3e0b0b00 	vmlacc.f64	d0, d11, d0
     a84:	0008030b 	andeq	r0, r8, fp, lsl #6
     a88:	00240300 	eoreq	r0, r4, r0, lsl #6
     a8c:	0b3e0b0b 	bleq	f836c0 <__bss_end__+0xf796d0>
     a90:	00000e03 	andeq	r0, r0, r3, lsl #28
     a94:	27011504 	strcs	r1, [r1, -r4, lsl #10]
     a98:	01134919 	tsteq	r3, r9, lsl r9
     a9c:	05000013 	streq	r0, [r0, #-19]	; 0xffffffed
     aa0:	13490005 	movtne	r0, #36869	; 0x9005
     aa4:	34060000 	strcc	r0, [r6], #-0
     aa8:	3a0e0300 	bcc	3816b0 <__bss_end__+0x3776c0>
     aac:	390b3b0b 	stmdbcc	fp, {r0, r1, r3, r8, r9, fp, ip, sp}
     ab0:	3f13490b 	svccc	0x0013490b
     ab4:	00193c19 	andseq	r3, r9, r9, lsl ip
     ab8:	000f0700 	andeq	r0, pc, r0, lsl #14
     abc:	13490b0b 	movtne	r0, #39691	; 0x9b0b
     ac0:	26080000 	strcs	r0, [r8], -r0
     ac4:	00134900 	andseq	r4, r3, r0, lsl #18
     ac8:	00340900 	eorseq	r0, r4, r0, lsl #18
     acc:	0b3a1347 	bleq	e857f0 <__bss_end__+0xe7b800>
     ad0:	0b390b3b 	bleq	e437c4 <__bss_end__+0xe397d4>
     ad4:	00001802 	andeq	r1, r0, r2, lsl #16
     ad8:	3f012e0a 	svccc	0x00012e0a
     adc:	3a0e0319 	bcc	381748 <__bss_end__+0x377758>
     ae0:	390b3b0b 	stmdbcc	fp, {r0, r1, r3, r8, r9, fp, ip, sp}
     ae4:	1119270b 	tstne	r9, fp, lsl #14
     ae8:	40061201 	andmi	r1, r6, r1, lsl #4
     aec:	19429718 	stmdbne	r2, {r3, r4, r8, r9, sl, ip, pc}^
     af0:	00001301 	andeq	r1, r0, r1, lsl #6
     af4:	0300050b 	movweq	r0, #1291	; 0x50b
     af8:	3b0b3a08 	blcc	2cf320 <__bss_end__+0x2c5330>
     afc:	490b390b 	stmdbmi	fp, {r0, r1, r3, r8, fp, ip, sp}
     b00:	00180213 	andseq	r0, r8, r3, lsl r2
     b04:	002e0c00 	eoreq	r0, lr, r0, lsl #24
     b08:	0e03193f 			; <UNDEFINED> instruction: 0x0e03193f
     b0c:	0b3b0b3a 	bleq	ec37fc <__bss_end__+0xeb980c>
     b10:	19270b39 	stmdbne	r7!, {r0, r3, r4, r5, r8, r9, fp}
     b14:	06120111 			; <UNDEFINED> instruction: 0x06120111
     b18:	42971840 	addsmi	r1, r7, #64, 16	; 0x400000
     b1c:	0d000019 	stceq	0, cr0, [r0, #-100]	; 0xffffff9c
     b20:	0e03012e 	adfeqsp	f0, f3, #0.5
     b24:	0b3b0b3a 	bleq	ec3814 <__bss_end__+0xeb9824>
     b28:	19270b39 	stmdbne	r7!, {r0, r3, r4, r5, r8, r9, fp}
     b2c:	01111349 	tsteq	r1, r9, asr #6
     b30:	18400612 	stmdane	r0, {r1, r4, r9, sl}^
     b34:	01194297 			; <UNDEFINED> instruction: 0x01194297
     b38:	0e000013 	mcreq	0, 0, r0, cr0, cr3, {0}
     b3c:	08030005 	stmdaeq	r3, {r0, r2}
     b40:	0b3b0b3a 	bleq	ec3830 <__bss_end__+0xeb9840>
     b44:	13490b39 	movtne	r0, #39737	; 0x9b39
     b48:	42b71702 	adcsmi	r1, r7, #524288	; 0x80000
     b4c:	0f000017 	svceq	0x00000017
     b50:	01018289 	smlabbeq	r1, r9, r2, r8
     b54:	13310111 	teqne	r1, #1073741828	; 0x40000004
     b58:	8a100000 	bhi	400b60 <__bss_end__+0x3f6b70>
     b5c:	02000182 	andeq	r0, r0, #-2147483616	; 0x80000020
     b60:	18429118 	stmdane	r2, {r3, r4, r8, ip, pc}^
     b64:	2e110000 	cdpcs	0, 1, cr0, cr1, cr0, {0}
     b68:	3c193f00 	ldccc	15, cr3, [r9], {-0}
     b6c:	030e6e19 	movweq	r6, #60953	; 0xee19
     b70:	3b0b3a0e 	blcc	2cf3b0 <__bss_end__+0x2c53c0>
     b74:	000b390b 	andeq	r3, fp, fp, lsl #18
     b78:	11010000 	mrsne	r0, (UNDEF: 1)
     b7c:	130e2501 	movwne	r2, #58625	; 0xe501
     b80:	1b0e030b 	blne	3817b4 <__bss_end__+0x3777c4>
     b84:	1201110e 	andne	r1, r1, #-2147483645	; 0x80000003
     b88:	00171006 	andseq	r1, r7, r6
     b8c:	00240200 	eoreq	r0, r4, r0, lsl #4
     b90:	0b3e0b0b 	bleq	f837c4 <__bss_end__+0xf797d4>
     b94:	00000803 	andeq	r0, r0, r3, lsl #16
     b98:	0b002403 	bleq	9bac <__FUNCTION__.3956>
     b9c:	030b3e0b 	movweq	r3, #48651	; 0xbe0b
     ba0:	0400000e 	streq	r0, [r0], #-14
     ba4:	19270115 	stmdbne	r7!, {r0, r2, r4, r8}
     ba8:	13011349 	movwne	r1, #4937	; 0x1349
     bac:	05050000 	streq	r0, [r5, #-0]
     bb0:	00134900 	andseq	r4, r3, r0, lsl #18
     bb4:	00340600 	eorseq	r0, r4, r0, lsl #12
     bb8:	0b3a0e03 	bleq	e843cc <__bss_end__+0xe7a3dc>
     bbc:	0b390b3b 	bleq	e438b0 <__bss_end__+0xe398c0>
     bc0:	193f1349 	ldmdbne	pc!, {r0, r3, r6, r8, r9, ip}	; <UNPREDICTABLE>
     bc4:	0000193c 	andeq	r1, r0, ip, lsr r9
     bc8:	0b000f07 	bleq	47ec <__code_start__-0x3814>
     bcc:	0013490b 	andseq	r4, r3, fp, lsl #18
     bd0:	00260800 	eoreq	r0, r6, r0, lsl #16
     bd4:	00001349 	andeq	r1, r0, r9, asr #6
     bd8:	47003409 	strmi	r3, [r0, -r9, lsl #8]
     bdc:	3b0b3a13 	blcc	2cf430 <__bss_end__+0x2c5440>
     be0:	020b390b 	andeq	r3, fp, #180224	; 0x2c000
     be4:	0a000018 	beq	c4c <__code_start__-0x73b4>
     be8:	193f012e 	ldmdbne	pc!, {r1, r2, r3, r5, r8}	; <UNPREDICTABLE>
     bec:	0b3a0e03 	bleq	e84400 <__bss_end__+0xe7a410>
     bf0:	0b390b3b 	bleq	e438e4 <__bss_end__+0xe398f4>
     bf4:	13491927 	movtne	r1, #39207	; 0x9927
     bf8:	06120111 			; <UNDEFINED> instruction: 0x06120111
     bfc:	42961840 	addsmi	r1, r6, #64, 16	; 0x400000
     c00:	0b000019 	bleq	c6c <__code_start__-0x7394>
     c04:	08030005 	stmdaeq	r3, {r0, r2}
     c08:	0b3b0b3a 	bleq	ec38f8 <__bss_end__+0xeb9908>
     c0c:	13490b39 	movtne	r0, #39737	; 0x9b39
     c10:	42b71702 	adcsmi	r1, r7, #524288	; 0x80000
     c14:	00000017 	andeq	r0, r0, r7, lsl r0
     c18:	25011101 	strcs	r1, [r1, #-257]	; 0xfffffeff
     c1c:	030b130e 	movweq	r1, #45838	; 0xb30e
     c20:	110e1b0e 	tstne	lr, lr, lsl #22
     c24:	10061201 	andne	r1, r6, r1, lsl #4
     c28:	02000017 	andeq	r0, r0, #23, 0
     c2c:	0b0b0024 	bleq	2c0cc4 <__bss_end__+0x2b6cd4>
     c30:	08030b3e 	stmdaeq	r3, {r1, r2, r3, r4, r5, r8, r9, fp}
     c34:	24030000 	strcs	r0, [r3], #-0
     c38:	3e0b0b00 	vmlacc.f64	d0, d11, d0
     c3c:	000e030b 	andeq	r0, lr, fp, lsl #6
     c40:	00160400 	andseq	r0, r6, r0, lsl #8
     c44:	0b3a0e03 	bleq	e84458 <__bss_end__+0xe7a468>
     c48:	0b390b3b 	bleq	e4393c <__bss_end__+0xe3994c>
     c4c:	00001349 	andeq	r1, r0, r9, asr #6
     c50:	27011505 	strcs	r1, [r1, -r5, lsl #10]
     c54:	01134919 	tsteq	r3, r9, lsl r9
     c58:	06000013 			; <UNDEFINED> instruction: 0x06000013
     c5c:	13490005 	movtne	r0, #36869	; 0x9005
     c60:	34070000 	strcc	r0, [r7], #-0
     c64:	3a0e0300 	bcc	38186c <__bss_end__+0x37787c>
     c68:	390b3b0b 	stmdbcc	fp, {r0, r1, r3, r8, r9, fp, ip, sp}
     c6c:	3f13490b 	svccc	0x0013490b
     c70:	00193c19 	andseq	r3, r9, r9, lsl ip
     c74:	000f0800 	andeq	r0, pc, r0, lsl #16
     c78:	13490b0b 	movtne	r0, #39691	; 0x9b0b
     c7c:	26090000 	strcs	r0, [r9], -r0
     c80:	00134900 	andseq	r4, r3, r0, lsl #18
     c84:	01130a00 	tsteq	r3, r0, lsl #20
     c88:	0b0b0e03 	bleq	2c449c <__bss_end__+0x2ba4ac>
     c8c:	0b3b0b3a 	bleq	ec397c <__bss_end__+0xeb998c>
     c90:	00001301 	andeq	r1, r0, r1, lsl #6
     c94:	03000d0b 	movweq	r0, #3339	; 0xd0b
     c98:	3813490e 	ldmdacc	r3, {r1, r2, r3, r8, fp, lr}
     c9c:	0019340b 	andseq	r3, r9, fp, lsl #8
     ca0:	000f0c00 	andeq	r0, pc, r0, lsl #24
     ca4:	00000b0b 	andeq	r0, r0, fp, lsl #22
     ca8:	3f012e0d 	svccc	0x00012e0d
     cac:	3a0e0319 	bcc	381918 <__bss_end__+0x377928>
     cb0:	390b3b0b 	stmdbcc	fp, {r0, r1, r3, r8, r9, fp, ip, sp}
     cb4:	4919270b 	ldmdbmi	r9, {r0, r1, r3, r8, r9, sl, sp}
     cb8:	12011113 	andne	r1, r1, #-1073741820	; 0xc0000004
     cbc:	97184006 	ldrls	r4, [r8, -r6]
     cc0:	13011942 	movwne	r1, #6466	; 0x1942
     cc4:	050e0000 	streq	r0, [lr, #-0]
     cc8:	3a080300 	bcc	2018d0 <__bss_end__+0x1f78e0>
     ccc:	390b3b0b 	stmdbcc	fp, {r0, r1, r3, r8, r9, fp, ip, sp}
     cd0:	0213490b 	andseq	r4, r3, #180224	; 0x2c000
     cd4:	1742b717 	smlaldne	fp, r2, r7, r7
     cd8:	050f0000 	streq	r0, [pc, #-0]	; ce0 <__code_start__-0x7320>
     cdc:	3a0e0300 	bcc	3818e4 <__bss_end__+0x3778f4>
     ce0:	390b3b0b 	stmdbcc	fp, {r0, r1, r3, r8, r9, fp, ip, sp}
     ce4:	0213490b 	andseq	r4, r3, #180224	; 0x2c000
     ce8:	10000018 	andne	r0, r0, r8, lsl r0
     cec:	08030034 	stmdaeq	r3, {r2, r4, r5}
     cf0:	0b3b0b3a 	bleq	ec39e0 <__bss_end__+0xeb99f0>
     cf4:	13490b39 	movtne	r0, #39737	; 0x9b39
     cf8:	42b71702 	adcsmi	r1, r7, #524288	; 0x80000
     cfc:	11000017 	tstne	r0, r7, lsl r0
     d00:	0e030034 	mcreq	0, 0, r0, cr3, cr4, {1}
     d04:	0b3b0b3a 	bleq	ec39f4 <__bss_end__+0xeb9a04>
     d08:	13490b39 	movtne	r0, #39737	; 0x9b39
     d0c:	42b71702 	adcsmi	r1, r7, #524288	; 0x80000
     d10:	12000017 	andne	r0, r0, #23, 0
     d14:	0e030034 	mcreq	0, 0, r0, cr3, cr4, {1}
     d18:	19341349 	ldmdbne	r4!, {r0, r3, r6, r8, r9, ip}
     d1c:	00001802 	andeq	r1, r0, r2, lsl #16
     d20:	11010b13 	tstne	r1, r3, lsl fp
     d24:	00061201 	andeq	r1, r6, r1, lsl #4
     d28:	00341400 	eorseq	r1, r4, r0, lsl #8
     d2c:	0b3a0803 	bleq	e82d40 <__bss_end__+0xe78d50>
     d30:	0b390b3b 	bleq	e43a24 <__bss_end__+0xe39a34>
     d34:	18021349 	stmdane	r2, {r0, r3, r6, r8, r9, ip}
     d38:	34150000 	ldrcc	r0, [r5], #-0
     d3c:	3a0e0300 	bcc	381944 <__bss_end__+0x377954>
     d40:	390b3b0b 	stmdbcc	fp, {r0, r1, r3, r8, r9, fp, ip, sp}
     d44:	0213490b 	andseq	r4, r3, #180224	; 0x2c000
     d48:	16000018 			; <UNDEFINED> instruction: 0x16000018
     d4c:	0111010b 	tsteq	r1, fp, lsl #2
     d50:	13010612 	movwne	r0, #5650	; 0x1612
     d54:	34170000 	ldrcc	r0, [r7], #-0
     d58:	3a080300 	bcc	201960 <__bss_end__+0x1f7970>
     d5c:	390b3b0b 	stmdbcc	fp, {r0, r1, r3, r8, r9, fp, ip, sp}
     d60:	0013490b 	andseq	r4, r3, fp, lsl #18
     d64:	82891800 	addhi	r1, r9, #0, 16
     d68:	01110101 	tsteq	r1, r1, lsl #2
     d6c:	13011331 	movwne	r1, #4913	; 0x1331
     d70:	8a190000 	bhi	640d78 <__bss_end__+0x636d88>
     d74:	02000182 	andeq	r0, r0, #-2147483616	; 0x80000020
     d78:	18429118 	stmdane	r2, {r3, r4, r8, ip, pc}^
     d7c:	891a0000 	ldmdbhi	sl, {}	; <UNPREDICTABLE>
     d80:	11000182 	smlabbne	r0, r2, r1, r0
     d84:	00133101 	andseq	r3, r3, r1, lsl #2
     d88:	82891b00 	addhi	r1, r9, #0, 22
     d8c:	01110101 	tsteq	r1, r1, lsl #2
     d90:	00001301 	andeq	r1, r0, r1, lsl #6
     d94:	4901011c 	stmdbmi	r1, {r2, r3, r4, r8}
     d98:	00130113 	andseq	r0, r3, r3, lsl r1
     d9c:	00211d00 	eoreq	r1, r1, r0, lsl #26
     da0:	0b2f1349 	bleq	bc5acc <__bss_end__+0xbbbadc>
     da4:	2e1e0000 	cdpcs	0, 1, cr0, cr14, cr0, {0}
     da8:	3a0e0301 	bcc	3819b4 <__bss_end__+0x3779c4>
     dac:	390b3b0b 	stmdbcc	fp, {r0, r1, r3, r8, r9, fp, ip, sp}
     db0:	4919270b 	ldmdbmi	r9, {r0, r1, r3, r8, r9, sl, sp}
     db4:	12011113 	andne	r1, r1, #-1073741820	; 0xc0000004
     db8:	97184006 	ldrls	r4, [r8, -r6]
     dbc:	13011942 	movwne	r1, #6466	; 0x1942
     dc0:	051f0000 	ldreq	r0, [pc, #-0]	; dc8 <__code_start__-0x7238>
     dc4:	3a0e0300 	bcc	3819cc <__bss_end__+0x3779dc>
     dc8:	390b3b0b 	stmdbcc	fp, {r0, r1, r3, r8, r9, fp, ip, sp}
     dcc:	0213490b 	andseq	r4, r3, #180224	; 0x2c000
     dd0:	1742b717 	smlaldne	fp, r2, r7, r7
     dd4:	2e200000 	cdpcs	0, 2, cr0, cr0, cr0, {0}
     dd8:	3a080301 	bcc	2019e4 <__bss_end__+0x1f79f4>
     ddc:	390b3b0b 	stmdbcc	fp, {r0, r1, r3, r8, r9, fp, ip, sp}
     de0:	4919270b 	ldmdbmi	r9, {r0, r1, r3, r8, r9, sl, sp}
     de4:	12011113 	andne	r1, r1, #-1073741820	; 0xc0000004
     de8:	97184006 	ldrls	r4, [r8, -r6]
     dec:	13011942 	movwne	r1, #6466	; 0x1942
     df0:	2e210000 	cdpcs	0, 2, cr0, cr1, cr0, {0}
     df4:	03193f01 	tsteq	r9, #1, 30
     df8:	3b0b3a0e 	blcc	2cf638 <__bss_end__+0x2c5648>
     dfc:	270b390b 	strcs	r3, [fp, -fp, lsl #18]
     e00:	12011119 	andne	r1, r1, #1073741830	; 0x40000006
     e04:	97184006 	ldrls	r4, [r8, -r6]
     e08:	13011942 	movwne	r1, #6466	; 0x1942
     e0c:	2e220000 	cdpcs	0, 2, cr0, cr2, cr0, {0}
     e10:	3c193f00 	ldccc	15, cr3, [r9], {-0}
     e14:	030e6e19 	movweq	r6, #60953	; 0xee19
     e18:	3b0b3a0e 	blcc	2cf658 <__bss_end__+0x2c5668>
     e1c:	000b390b 	andeq	r3, fp, fp, lsl #18
     e20:	11010000 	mrsne	r0, (UNDEF: 1)
     e24:	130e2501 	movwne	r2, #58625	; 0xe501
     e28:	1b0e030b 	blne	381a5c <__bss_end__+0x377a6c>
     e2c:	1117550e 	tstne	r7, lr, lsl #10
     e30:	00171001 	andseq	r1, r7, r1
     e34:	00240200 	eoreq	r0, r4, r0, lsl #4
     e38:	0b3e0b0b 	bleq	f83a6c <__bss_end__+0xf79a7c>
     e3c:	00000803 	andeq	r0, r0, r3, lsl #16
     e40:	0b002403 	bleq	9e54 <buf.3948+0x268>
     e44:	030b3e0b 	movweq	r3, #48651	; 0xbe0b
     e48:	0400000e 	streq	r0, [r0], #-14
     e4c:	19270115 	stmdbne	r7!, {r0, r2, r4, r8}
     e50:	13011349 	movwne	r1, #4937	; 0x1349
     e54:	05050000 	streq	r0, [r5, #-0]
     e58:	00134900 	andseq	r4, r3, r0, lsl #18
     e5c:	00340600 	eorseq	r0, r4, r0, lsl #12
     e60:	0b3a0e03 	bleq	e84674 <__bss_end__+0xe7a684>
     e64:	0b390b3b 	bleq	e43b58 <__bss_end__+0xe39b68>
     e68:	193f1349 	ldmdbne	pc!, {r0, r3, r6, r8, r9, ip}	; <UNPREDICTABLE>
     e6c:	0000193c 	andeq	r1, r0, ip, lsr r9
     e70:	0b000f07 	bleq	4a94 <__code_start__-0x356c>
     e74:	0013490b 	andseq	r4, r3, fp, lsl #18
     e78:	00260800 	eoreq	r0, r6, r0, lsl #16
     e7c:	00001349 	andeq	r1, r0, r9, asr #6
     e80:	3f012e09 	svccc	0x00012e09
     e84:	3a0e0319 	bcc	381af0 <__bss_end__+0x377b00>
     e88:	390b3b0b 	stmdbcc	fp, {r0, r1, r3, r8, r9, fp, ip, sp}
     e8c:	1119270b 	tstne	r9, fp, lsl #14
     e90:	40061201 	andmi	r1, r6, r1, lsl #4
     e94:	19429718 	stmdbne	r2, {r3, r4, r8, r9, sl, ip, pc}^
     e98:	00001301 	andeq	r1, r0, r1, lsl #6
     e9c:	0300340a 	movweq	r3, #1034	; 0x40a
     ea0:	3b0b3a08 	blcc	2cf6c8 <__bss_end__+0x2c56d8>
     ea4:	490b390b 	stmdbmi	fp, {r0, r1, r3, r8, fp, ip, sp}
     ea8:	b7170213 			; <UNDEFINED> instruction: 0xb7170213
     eac:	00001742 	andeq	r1, r0, r2, asr #14
     eb0:	3f012e0b 	svccc	0x00012e0b
     eb4:	3a0e0319 	bcc	381b20 <__bss_end__+0x377b30>
     eb8:	390b3b0b 	stmdbcc	fp, {r0, r1, r3, r8, r9, fp, ip, sp}
     ebc:	1119270b 	tstne	r9, fp, lsl #14
     ec0:	40061201 	andmi	r1, r6, r1, lsl #4
     ec4:	19429718 	stmdbne	r2, {r3, r4, r8, r9, sl, ip, pc}^
     ec8:	01000000 	mrseq	r0, (UNDEF: 0)
     ecc:	0e250111 	mcreq	1, 1, r0, cr5, cr1, {0}
     ed0:	0e030b13 	vmoveq.32	d3[0], r0
     ed4:	01110e1b 	tsteq	r1, fp, lsl lr
     ed8:	17100612 			; <UNDEFINED> instruction: 0x17100612
     edc:	24020000 	strcs	r0, [r2], #-0
     ee0:	3e0b0b00 	vmlacc.f64	d0, d11, d0
     ee4:	0008030b 	andeq	r0, r8, fp, lsl #6
     ee8:	00240300 	eoreq	r0, r4, r0, lsl #6
     eec:	0b3e0b0b 	bleq	f83b20 <__bss_end__+0xf79b30>
     ef0:	00000e03 	andeq	r0, r0, r3, lsl #28
     ef4:	27011504 	strcs	r1, [r1, -r4, lsl #10]
     ef8:	01134919 	tsteq	r3, r9, lsl r9
     efc:	05000013 	streq	r0, [r0, #-19]	; 0xffffffed
     f00:	13490005 	movtne	r0, #36869	; 0x9005
     f04:	34060000 	strcc	r0, [r6], #-0
     f08:	3a0e0300 	bcc	381b10 <__bss_end__+0x377b20>
     f0c:	390b3b0b 	stmdbcc	fp, {r0, r1, r3, r8, r9, fp, ip, sp}
     f10:	3f13490b 	svccc	0x0013490b
     f14:	00193c19 	andseq	r3, r9, r9, lsl ip
     f18:	000f0700 	andeq	r0, pc, r0, lsl #14
     f1c:	13490b0b 	movtne	r0, #39691	; 0x9b0b
     f20:	26080000 	strcs	r0, [r8], -r0
     f24:	00134900 	andseq	r4, r3, r0, lsl #18
     f28:	012e0900 			; <UNDEFINED> instruction: 0x012e0900
     f2c:	0e03193f 			; <UNDEFINED> instruction: 0x0e03193f
     f30:	0b3b0b3a 	bleq	ec3c20 <__bss_end__+0xeb9c30>
     f34:	19270b39 	stmdbne	r7!, {r0, r3, r4, r5, r8, r9, fp}
     f38:	11190187 	tstne	r9, r7, lsl #3
     f3c:	40061201 	andmi	r1, r6, r1, lsl #4
     f40:	19429718 	stmdbne	r2, {r3, r4, r8, r9, sl, ip, pc}^
     f44:	00001301 	andeq	r1, r0, r1, lsl #6
     f48:	0182890a 	orreq	r8, r2, sl, lsl #18
     f4c:	01011101 	tsteq	r1, r1, lsl #2
     f50:	0b000013 	bleq	fa4 <__code_start__-0x705c>
     f54:	0001828a 	andeq	r8, r1, sl, lsl #5
     f58:	42911802 	addsmi	r1, r1, #131072	; 0x20000
     f5c:	0c000018 	stceq	0, cr0, [r0], {24}
     f60:	00018289 	andeq	r8, r1, r9, lsl #5
     f64:	13310111 	teqne	r1, #1073741828	; 0x40000004
     f68:	890d0000 	stmdbhi	sp, {}	; <UNPREDICTABLE>
     f6c:	11010182 	smlabbne	r1, r2, r1, r0
     f70:	01133101 	tsteq	r3, r1, lsl #2
     f74:	0e000013 	mcreq	0, 0, r0, cr0, cr3, {0}
     f78:	193f002e 	ldmdbne	pc!, {r1, r2, r3, r5}	; <UNPREDICTABLE>
     f7c:	0e6e193c 			; <UNDEFINED> instruction: 0x0e6e193c
     f80:	0b3a0e03 	bleq	e84794 <__bss_end__+0xe7a7a4>
     f84:	0b390b3b 	bleq	e43c78 <__bss_end__+0xe39c88>
     f88:	01000000 	mrseq	r0, (UNDEF: 0)
     f8c:	0e250111 	mcreq	1, 1, r0, cr5, cr1, {0}
     f90:	0e030b13 	vmoveq.32	d3[0], r0
     f94:	01110e1b 	tsteq	r1, fp, lsl lr
     f98:	17100612 			; <UNDEFINED> instruction: 0x17100612
     f9c:	24020000 	strcs	r0, [r2], #-0
     fa0:	3e0b0b00 	vmlacc.f64	d0, d11, d0
     fa4:	0008030b 	andeq	r0, r8, fp, lsl #6
     fa8:	00240300 	eoreq	r0, r4, r0, lsl #6
     fac:	0b3e0b0b 	bleq	f83be0 <__bss_end__+0xf79bf0>
     fb0:	00000e03 	andeq	r0, r0, r3, lsl #28
     fb4:	27011504 	strcs	r1, [r1, -r4, lsl #10]
     fb8:	01134919 	tsteq	r3, r9, lsl r9
     fbc:	05000013 	streq	r0, [r0, #-19]	; 0xffffffed
     fc0:	13490005 	movtne	r0, #36869	; 0x9005
     fc4:	34060000 	strcc	r0, [r6], #-0
     fc8:	3a0e0300 	bcc	381bd0 <__bss_end__+0x377be0>
     fcc:	390b3b0b 	stmdbcc	fp, {r0, r1, r3, r8, r9, fp, ip, sp}
     fd0:	3f13490b 	svccc	0x0013490b
     fd4:	00193c19 	andseq	r3, r9, r9, lsl ip
     fd8:	000f0700 	andeq	r0, pc, r0, lsl #14
     fdc:	13490b0b 	movtne	r0, #39691	; 0x9b0b
     fe0:	26080000 	strcs	r0, [r8], -r0
     fe4:	00134900 	andseq	r4, r3, r0, lsl #18
     fe8:	012e0900 			; <UNDEFINED> instruction: 0x012e0900
     fec:	0e03193f 			; <UNDEFINED> instruction: 0x0e03193f
     ff0:	0b3b0b3a 	bleq	ec3ce0 <__bss_end__+0xeb9cf0>
     ff4:	01110b39 	tsteq	r1, r9, lsr fp
     ff8:	18400612 	stmdane	r0, {r1, r4, r9, sl}^
     ffc:	01194297 			; <UNDEFINED> instruction: 0x01194297
    1000:	0a000013 	beq	1054 <__code_start__-0x6fac>
    1004:	193f002e 	ldmdbne	pc!, {r1, r2, r3, r5}	; <UNPREDICTABLE>
    1008:	0b3a0e03 	bleq	e8481c <__bss_end__+0xe7a82c>
    100c:	0b390b3b 	bleq	e43d00 <__bss_end__+0xe39d10>
    1010:	193c1927 	ldmdbne	ip!, {r0, r1, r2, r5, r8, fp, ip}
    1014:	340b0000 	strcc	r0, [fp], #-0
    1018:	3a080300 	bcc	201c20 <__bss_end__+0x1f7c30>
    101c:	390b3b0b 	stmdbcc	fp, {r0, r1, r3, r8, r9, fp, ip, sp}
    1020:	0213490b 	andseq	r4, r3, #180224	; 0x2c000
    1024:	1742b717 	smlaldne	fp, r2, r7, r7
    1028:	340c0000 	strcc	r0, [ip], #-0
    102c:	3a0e0300 	bcc	381c34 <__bss_end__+0x377c44>
    1030:	390b3b0b 	stmdbcc	fp, {r0, r1, r3, r8, r9, fp, ip, sp}
    1034:	0013490b 	andseq	r4, r3, fp, lsl #18
    1038:	010b0d00 	tsteq	fp, r0, lsl #26
    103c:	06120111 			; <UNDEFINED> instruction: 0x06120111
    1040:	00001301 	andeq	r1, r0, r1, lsl #6
    1044:	0300340e 	movweq	r3, #1038	; 0x40e
    1048:	3b0b3a08 	blcc	2cf870 <__bss_end__+0x2c5880>
    104c:	490b390b 	stmdbmi	fp, {r0, r1, r3, r8, fp, ip, sp}
    1050:	000b1c13 	andeq	r1, fp, r3, lsl ip
    1054:	82890f00 	addhi	r0, r9, #0, 30
    1058:	01110001 	tsteq	r1, r1
    105c:	00001331 	andeq	r1, r0, r1, lsr r3
    1060:	3f002e10 	svccc	0x00002e10
    1064:	6e193c19 	mrcvs	12, 0, r3, cr9, cr9, {0}
    1068:	3a0e030e 	bcc	381ca8 <__bss_end__+0x377cb8>
    106c:	39053b0b 	stmdbcc	r5, {r0, r1, r3, r8, r9, fp, ip, sp}
    1070:	1100000b 	tstne	r0, fp
    1074:	193f002e 	ldmdbne	pc!, {r1, r2, r3, r5}	; <UNPREDICTABLE>
    1078:	0e6e193c 			; <UNDEFINED> instruction: 0x0e6e193c
    107c:	0b3a0e03 	bleq	e84890 <__bss_end__+0xe7a8a0>
    1080:	0b390b3b 	bleq	e43d74 <__bss_end__+0xe39d84>
    1084:	01000000 	mrseq	r0, (UNDEF: 0)
    1088:	0e250111 	mcreq	1, 1, r0, cr5, cr1, {0}
    108c:	0e030b13 	vmoveq.32	d3[0], r0
    1090:	01110e1b 	tsteq	r1, fp, lsl lr
    1094:	17100612 			; <UNDEFINED> instruction: 0x17100612
    1098:	24020000 	strcs	r0, [r2], #-0
    109c:	3e0b0b00 	vmlacc.f64	d0, d11, d0
    10a0:	0008030b 	andeq	r0, r8, fp, lsl #6
    10a4:	00240300 	eoreq	r0, r4, r0, lsl #6
    10a8:	0b3e0b0b 	bleq	f83cdc <__bss_end__+0xf79cec>
    10ac:	00000e03 	andeq	r0, r0, r3, lsl #28
    10b0:	27011504 	strcs	r1, [r1, -r4, lsl #10]
    10b4:	01134919 	tsteq	r3, r9, lsl r9
    10b8:	05000013 	streq	r0, [r0, #-19]	; 0xffffffed
    10bc:	13490005 	movtne	r0, #36869	; 0x9005
    10c0:	34060000 	strcc	r0, [r6], #-0
    10c4:	3a0e0300 	bcc	381ccc <__bss_end__+0x377cdc>
    10c8:	390b3b0b 	stmdbcc	fp, {r0, r1, r3, r8, r9, fp, ip, sp}
    10cc:	3f13490b 	svccc	0x0013490b
    10d0:	00193c19 	andseq	r3, r9, r9, lsl ip
    10d4:	000f0700 	andeq	r0, pc, r0, lsl #14
    10d8:	13490b0b 	movtne	r0, #39691	; 0x9b0b
    10dc:	26080000 	strcs	r0, [r8], -r0
    10e0:	00134900 	andseq	r4, r3, r0, lsl #18
    10e4:	002e0900 	eoreq	r0, lr, r0, lsl #18
    10e8:	0e03193f 			; <UNDEFINED> instruction: 0x0e03193f
    10ec:	0b3b0b3a 	bleq	ec3ddc <__bss_end__+0xeb9dec>
    10f0:	19270b39 	stmdbne	r7!, {r0, r3, r4, r5, r8, r9, fp}
    10f4:	06120111 			; <UNDEFINED> instruction: 0x06120111
    10f8:	42971840 	addsmi	r1, r7, #64, 16	; 0x400000
    10fc:	00000019 	andeq	r0, r0, r9, lsl r0
    1100:	25011101 	strcs	r1, [r1, #-257]	; 0xfffffeff
    1104:	030b130e 	movweq	r1, #45838	; 0xb30e
    1108:	550e1b0e 	strpl	r1, [lr, #-2830]	; 0xfffff4f2
    110c:	10011117 	andne	r1, r1, r7, lsl r1
    1110:	02000017 	andeq	r0, r0, #23, 0
    1114:	0b0b0024 	bleq	2c11ac <__bss_end__+0x2b71bc>
    1118:	08030b3e 	stmdaeq	r3, {r1, r2, r3, r4, r5, r8, r9, fp}
    111c:	26030000 	strcs	r0, [r3], -r0
    1120:	00134900 	andseq	r4, r3, r0, lsl #18
    1124:	00240400 	eoreq	r0, r4, r0, lsl #8
    1128:	0b3e0b0b 	bleq	f83d5c <__bss_end__+0xf79d6c>
    112c:	00000e03 	andeq	r0, r0, r3, lsl #28
    1130:	27011505 	strcs	r1, [r1, -r5, lsl #10]
    1134:	01134919 	tsteq	r3, r9, lsl r9
    1138:	06000013 			; <UNDEFINED> instruction: 0x06000013
    113c:	13490005 	movtne	r0, #36869	; 0x9005
    1140:	34070000 	strcc	r0, [r7], #-0
    1144:	3a0e0300 	bcc	381d4c <__bss_end__+0x377d5c>
    1148:	390b3b0b 	stmdbcc	fp, {r0, r1, r3, r8, r9, fp, ip, sp}
    114c:	3f13490b 	svccc	0x0013490b
    1150:	00193c19 	andseq	r3, r9, r9, lsl ip
    1154:	000f0800 	andeq	r0, pc, r0, lsl #16
    1158:	13490b0b 	movtne	r0, #39691	; 0x9b0b
    115c:	34090000 	strcc	r0, [r9], #-0
    1160:	3a0e0300 	bcc	381d68 <__bss_end__+0x377d78>
    1164:	390b3b0b 	stmdbcc	fp, {r0, r1, r3, r8, r9, fp, ip, sp}
    1168:	0013490b 	andseq	r4, r3, fp, lsl #18
    116c:	012e0a00 			; <UNDEFINED> instruction: 0x012e0a00
    1170:	0e03193f 			; <UNDEFINED> instruction: 0x0e03193f
    1174:	0b3b0b3a 	bleq	ec3e64 <__bss_end__+0xeb9e74>
    1178:	19270b39 	stmdbne	r7!, {r0, r3, r4, r5, r8, r9, fp}
    117c:	11190187 	tstne	r9, r7, lsl #3
    1180:	40061201 	andmi	r1, r6, r1, lsl #4
    1184:	19429718 	stmdbne	r2, {r3, r4, r8, r9, sl, ip, pc}^
    1188:	00001301 	andeq	r1, r0, r1, lsl #6
    118c:	0300340b 	movweq	r3, #1035	; 0x40b
    1190:	3b0b3a0e 	blcc	2cf9d0 <__bss_end__+0x2c59e0>
    1194:	490b390b 	stmdbmi	fp, {r0, r1, r3, r8, fp, ip, sp}
    1198:	b7170213 			; <UNDEFINED> instruction: 0xb7170213
    119c:	00001742 	andeq	r1, r0, r2, asr #14
    11a0:	0182890c 	orreq	r8, r2, ip, lsl #18
    11a4:	31011100 	mrscc	r1, (UNDEF: 17)
    11a8:	0d000013 	stceq	0, cr0, [r0, #-76]	; 0xffffffb4
    11ac:	01018289 	smlabbeq	r1, r9, r2, r8
    11b0:	13310111 	teqne	r1, #1073741828	; 0x40000004
    11b4:	00001301 	andeq	r1, r0, r1, lsl #6
    11b8:	01828a0e 	orreq	r8, r2, lr, lsl #20
    11bc:	91180200 	tstls	r8, r0, lsl #4
    11c0:	00001842 	andeq	r1, r0, r2, asr #16
    11c4:	3f012e0f 	svccc	0x00012e0f
    11c8:	3a0e0319 	bcc	381e34 <__bss_end__+0x377e44>
    11cc:	390b3b0b 	stmdbcc	fp, {r0, r1, r3, r8, r9, fp, ip, sp}
    11d0:	1119270b 	tstne	r9, fp, lsl #14
    11d4:	40061201 	andmi	r1, r6, r1, lsl #4
    11d8:	19429718 	stmdbne	r2, {r3, r4, r8, r9, sl, ip, pc}^
    11dc:	00001301 	andeq	r1, r0, r1, lsl #6
    11e0:	3f012e10 	svccc	0x00012e10
    11e4:	3a0e0319 	bcc	381e50 <__bss_end__+0x377e60>
    11e8:	390b3b0b 	stmdbcc	fp, {r0, r1, r3, r8, r9, fp, ip, sp}
    11ec:	4919270b 	ldmdbmi	r9, {r0, r1, r3, r8, r9, sl, sp}
    11f0:	12011113 	andne	r1, r1, #-1073741820	; 0xc0000004
    11f4:	97184006 	ldrls	r4, [r8, -r6]
    11f8:	13011942 	movwne	r1, #6466	; 0x1942
    11fc:	2e110000 	cdpcs	0, 1, cr0, cr1, cr0, {0}
    1200:	3c193f00 	ldccc	15, cr3, [r9], {-0}
    1204:	030e6e19 	movweq	r6, #60953	; 0xee19
    1208:	3b0b3a0e 	blcc	2cfa48 <__bss_end__+0x2c5a58>
    120c:	000b3905 	andeq	r3, fp, r5, lsl #18
    1210:	002e1200 	eoreq	r1, lr, r0, lsl #4
    1214:	193c193f 	ldmdbne	ip!, {r0, r1, r2, r3, r4, r5, r8, fp, ip}
    1218:	0e030e6e 	cdpeq	14, 0, cr0, cr3, cr14, {3}
    121c:	0b3b0b3a 	bleq	ec3f0c <__bss_end__+0xeb9f1c>
    1220:	00000b39 	andeq	r0, r0, r9, lsr fp
    1224:	01110100 	tsteq	r1, r0, lsl #2
    1228:	0b130e25 	bleq	4c4ac4 <__bss_end__+0x4baad4>
    122c:	0e1b0e03 	cdpeq	14, 1, cr0, cr11, cr3, {0}
    1230:	06120111 			; <UNDEFINED> instruction: 0x06120111
    1234:	00001710 	andeq	r1, r0, r0, lsl r7
    1238:	0b002402 	bleq	a248 <__bss_end__+0x258>
    123c:	030b3e0b 	movweq	r3, #48651	; 0xbe0b
    1240:	03000008 	movweq	r0, #8
    1244:	0b0b0024 	bleq	2c12dc <__bss_end__+0x2b72ec>
    1248:	0e030b3e 	vmoveq.16	d3[0], r0
    124c:	15040000 	strne	r0, [r4, #-0]
    1250:	49192701 	ldmdbmi	r9, {r0, r8, r9, sl, sp}
    1254:	00130113 	andseq	r0, r3, r3, lsl r1
    1258:	00050500 	andeq	r0, r5, r0, lsl #10
    125c:	00001349 	andeq	r1, r0, r9, asr #6
    1260:	03003406 	movweq	r3, #1030	; 0x406
    1264:	3b0b3a0e 	blcc	2cfaa4 <__bss_end__+0x2c5ab4>
    1268:	490b390b 	stmdbmi	fp, {r0, r1, r3, r8, fp, ip, sp}
    126c:	3c193f13 	ldccc	15, cr3, [r9], {19}
    1270:	07000019 	smladeq	r0, r9, r0, r0
    1274:	0b0b000f 	bleq	2c12b8 <__bss_end__+0x2b72c8>
    1278:	00001349 	andeq	r1, r0, r9, asr #6
    127c:	49002608 	stmdbmi	r0, {r3, r9, sl, sp}
    1280:	09000013 	stmdbeq	r0, {r0, r1, r4}
    1284:	193f012e 	ldmdbne	pc!, {r1, r2, r3, r5, r8}	; <UNPREDICTABLE>
    1288:	0b3a0e03 	bleq	e84a9c <__bss_end__+0xe7aaac>
    128c:	0b390b3b 	bleq	e43f80 <__bss_end__+0xe39f90>
    1290:	01111927 	tsteq	r1, r7, lsr #18
    1294:	18400612 	stmdane	r0, {r1, r4, r9, sl}^
    1298:	01194297 			; <UNDEFINED> instruction: 0x01194297
    129c:	0a000013 	beq	12f0 <__code_start__-0x6d10>
    12a0:	08030005 	stmdaeq	r3, {r0, r2}
    12a4:	0b3b0b3a 	bleq	ec3f94 <__bss_end__+0xeb9fa4>
    12a8:	13490b39 	movtne	r0, #39737	; 0x9b39
    12ac:	42b71702 	adcsmi	r1, r7, #524288	; 0x80000
    12b0:	0b000017 	bleq	1314 <__code_start__-0x6cec>
    12b4:	01018289 	smlabbeq	r1, r9, r2, r8
    12b8:	13310111 	teqne	r1, #1073741828	; 0x40000004
    12bc:	8a0c0000 	bhi	3012c4 <__bss_end__+0x2f72d4>
    12c0:	02000182 	andeq	r0, r0, #-2147483616	; 0x80000020
    12c4:	18429118 	stmdane	r2, {r3, r4, r8, ip, pc}^
    12c8:	340d0000 	strcc	r0, [sp], #-0
    12cc:	3a080300 	bcc	201ed4 <__bss_end__+0x1f7ee4>
    12d0:	390b3b0b 	stmdbcc	fp, {r0, r1, r3, r8, r9, fp, ip, sp}
    12d4:	0213490b 	andseq	r4, r3, #180224	; 0x2c000
    12d8:	1742b717 	smlaldne	fp, r2, r7, r7
    12dc:	0b0e0000 	bleq	3812e4 <__bss_end__+0x3772f4>
    12e0:	12011101 	andne	r1, r1, #1073741824	; 0x40000000
    12e4:	00130106 	andseq	r0, r3, r6, lsl #2
    12e8:	82890f00 	addhi	r0, r9, #0, 30
    12ec:	01110001 	tsteq	r1, r1
    12f0:	00001331 	andeq	r1, r0, r1, lsr r3
    12f4:	3f012e10 	svccc	0x00012e10
    12f8:	3a0e0319 	bcc	381f64 <__bss_end__+0x377f74>
    12fc:	390b3b0b 	stmdbcc	fp, {r0, r1, r3, r8, r9, fp, ip, sp}
    1300:	4919270b 	ldmdbmi	r9, {r0, r1, r3, r8, r9, sl, sp}
    1304:	12011113 	andne	r1, r1, #-1073741820	; 0xc0000004
    1308:	97184006 	ldrls	r4, [r8, -r6]
    130c:	13011942 	movwne	r1, #6466	; 0x1942
    1310:	2e110000 	cdpcs	0, 1, cr0, cr1, cr0, {0}
    1314:	3c193f00 	ldccc	15, cr3, [r9], {-0}
    1318:	030e6e19 	movweq	r6, #60953	; 0xee19
    131c:	3b0b3a0e 	blcc	2cfb5c <__bss_end__+0x2c5b6c>
    1320:	000b390b 	andeq	r3, fp, fp, lsl #18
    1324:	11010000 	mrsne	r0, (UNDEF: 1)
    1328:	130e2501 	movwne	r2, #58625	; 0xe501
    132c:	1b0e030b 	blne	381f60 <__bss_end__+0x377f70>
    1330:	1201110e 	andne	r1, r1, #-2147483645	; 0x80000003
    1334:	00171006 	andseq	r1, r7, r6
    1338:	00240200 	eoreq	r0, r4, r0, lsl #4
    133c:	0b3e0b0b 	bleq	f83f70 <__bss_end__+0xf79f80>
    1340:	00000803 	andeq	r0, r0, r3, lsl #16
    1344:	0b002403 	bleq	a358 <__bss_end__+0x368>
    1348:	030b3e0b 	movweq	r3, #48651	; 0xbe0b
    134c:	0400000e 	streq	r0, [r0], #-14
    1350:	13490035 	movtne	r0, #36917	; 0x9035
    1354:	16050000 	strne	r0, [r5], -r0
    1358:	3a0e0300 	bcc	381f60 <__bss_end__+0x377f70>
    135c:	390b3b0b 	stmdbcc	fp, {r0, r1, r3, r8, r9, fp, ip, sp}
    1360:	0013490b 	andseq	r4, r3, fp, lsl #18
    1364:	01040600 	tsteq	r4, r0, lsl #12
    1368:	0b0b0b3e 	bleq	2c4068 <__bss_end__+0x2ba078>
    136c:	0b3a1349 	bleq	e86098 <__bss_end__+0xe7c0a8>
    1370:	0b390b3b 	bleq	e44064 <__bss_end__+0xe3a074>
    1374:	00001301 	andeq	r1, r0, r1, lsl #6
    1378:	03002807 	movweq	r2, #2055	; 0x807
    137c:	000b1c0e 	andeq	r1, fp, lr, lsl #24
    1380:	01130800 	tsteq	r3, r0, lsl #16
    1384:	0b0b0e03 	bleq	2c4b98 <__bss_end__+0x2baba8>
    1388:	0b3b0b3a 	bleq	ec4078 <__bss_end__+0xeba088>
    138c:	13010b39 	movwne	r0, #6969	; 0x1b39
    1390:	0d090000 	stceq	0, cr0, [r9, #-0]
    1394:	3a080300 	bcc	201f9c <__bss_end__+0x1f7fac>
    1398:	390b3b0b 	stmdbcc	fp, {r0, r1, r3, r8, r9, fp, ip, sp}
    139c:	3813490b 	ldmdacc	r3, {r0, r1, r3, r8, fp, lr}
    13a0:	0a00000b 	beq	13d4 <__code_start__-0x6c2c>
    13a4:	0e03000d 	cdpeq	0, 0, cr0, cr3, cr13, {0}
    13a8:	0b3b0b3a 	bleq	ec4098 <__bss_end__+0xeba0a8>
    13ac:	13490b39 	movtne	r0, #39737	; 0x9b39
    13b0:	00000b38 	andeq	r0, r0, r8, lsr fp
    13b4:	0300340b 	movweq	r3, #1035	; 0x40b
    13b8:	3b0b3a0e 	blcc	2cfbf8 <__bss_end__+0x2c5c08>
    13bc:	490b390b 	stmdbmi	fp, {r0, r1, r3, r8, fp, ip, sp}
    13c0:	00061c13 	andeq	r1, r6, r3, lsl ip
    13c4:	000f0c00 	andeq	r0, pc, r0, lsl #24
    13c8:	13490b0b 	movtne	r0, #39691	; 0x9b0b
    13cc:	260d0000 	strcs	r0, [sp], -r0
    13d0:	00134900 	andseq	r4, r3, r0, lsl #18
    13d4:	012e0e00 			; <UNDEFINED> instruction: 0x012e0e00
    13d8:	0e03193f 			; <UNDEFINED> instruction: 0x0e03193f
    13dc:	0b3b0b3a 	bleq	ec40cc <__bss_end__+0xeba0dc>
    13e0:	19270b39 	stmdbne	r7!, {r0, r3, r4, r5, r8, r9, fp}
    13e4:	06120111 			; <UNDEFINED> instruction: 0x06120111
    13e8:	42971840 	addsmi	r1, r7, #64, 16	; 0x400000
    13ec:	00130119 	andseq	r0, r3, r9, lsl r1
    13f0:	82890f00 	addhi	r0, r9, #0, 30
    13f4:	01110001 	tsteq	r1, r1
    13f8:	00001331 	andeq	r1, r0, r1, lsr r3
    13fc:	3f012e10 	svccc	0x00012e10
    1400:	3a0e0319 	bcc	38206c <__bss_end__+0x37807c>
    1404:	390b3b0b 	stmdbcc	fp, {r0, r1, r3, r8, r9, fp, ip, sp}
    1408:	4919270b 	ldmdbmi	r9, {r0, r1, r3, r8, r9, sl, sp}
    140c:	12011113 	andne	r1, r1, #-1073741820	; 0xc0000004
    1410:	97184006 	ldrls	r4, [r8, -r6]
    1414:	13011942 	movwne	r1, #6466	; 0x1942
    1418:	89110000 	ldmdbhi	r1, {}	; <UNPREDICTABLE>
    141c:	11010182 	smlabbne	r1, r2, r1, r0
    1420:	00133101 	andseq	r3, r3, r1, lsl #2
    1424:	828a1200 	addhi	r1, sl, #0, 4
    1428:	18020001 	stmdane	r2, {r0}
    142c:	00184291 	mulseq	r8, r1, r2
    1430:	00051300 	andeq	r1, r5, r0, lsl #6
    1434:	0b3a0803 	bleq	e83448 <__bss_end__+0xe79458>
    1438:	0b390b3b 	bleq	e4412c <__bss_end__+0xe3a13c>
    143c:	17021349 	strne	r1, [r2, -r9, asr #6]
    1440:	001742b7 			; <UNDEFINED> instruction: 0x001742b7
    1444:	82891400 	addhi	r1, r9, #0, 8
    1448:	01110101 	tsteq	r1, r1, lsl #2
    144c:	13011331 	movwne	r1, #4913	; 0x1331
    1450:	34150000 	ldrcc	r0, [r5], #-0
    1454:	3a080300 	bcc	20205c <__bss_end__+0x1f806c>
    1458:	390b3b0b 	stmdbcc	fp, {r0, r1, r3, r8, r9, fp, ip, sp}
    145c:	0213490b 	andseq	r4, r3, #180224	; 0x2c000
    1460:	1742b717 	smlaldne	fp, r2, r7, r7
    1464:	34160000 	ldrcc	r0, [r6], #-0
    1468:	3a0e0300 	bcc	382070 <__bss_end__+0x378080>
    146c:	390b3b0b 	stmdbcc	fp, {r0, r1, r3, r8, r9, fp, ip, sp}
    1470:	1c13490b 			; <UNDEFINED> instruction: 0x1c13490b
    1474:	17000005 	strne	r0, [r0, -r5]
    1478:	0e03012e 	adfeqsp	f0, f3, #0.5
    147c:	0b3b0b3a 	bleq	ec416c <__bss_end__+0xeba17c>
    1480:	19270b39 	stmdbne	r7!, {r0, r3, r4, r5, r8, r9, fp}
    1484:	06120111 			; <UNDEFINED> instruction: 0x06120111
    1488:	42971840 	addsmi	r1, r7, #64, 16	; 0x400000
    148c:	00130119 	andseq	r0, r3, r9, lsl r1
    1490:	00051800 	andeq	r1, r5, r0, lsl #16
    1494:	0b3a0e03 	bleq	e84ca8 <__bss_end__+0xe7acb8>
    1498:	0b390b3b 	bleq	e4418c <__bss_end__+0xe3a19c>
    149c:	17021349 	strne	r1, [r2, -r9, asr #6]
    14a0:	001742b7 			; <UNDEFINED> instruction: 0x001742b7
    14a4:	00351900 	eorseq	r1, r5, r0, lsl #18
    14a8:	2e1a0000 	cdpcs	0, 1, cr0, cr10, cr0, {0}
    14ac:	3c193f00 	ldccc	15, cr3, [r9], {-0}
    14b0:	030e6e19 	movweq	r6, #60953	; 0xee19
    14b4:	3b0b3a0e 	blcc	2cfcf4 <__bss_end__+0x2c5d04>
    14b8:	000b390b 	andeq	r3, fp, fp, lsl #18
    14bc:	11010000 	mrsne	r0, (UNDEF: 1)
    14c0:	130e2501 	movwne	r2, #58625	; 0xe501
    14c4:	1b0e030b 	blne	3820f8 <__bss_end__+0x378108>
    14c8:	1201110e 	andne	r1, r1, #-2147483645	; 0x80000003
    14cc:	00171006 	andseq	r1, r7, r6
    14d0:	00240200 	eoreq	r0, r4, r0, lsl #4
    14d4:	0b3e0b0b 	bleq	f84108 <__bss_end__+0xf7a118>
    14d8:	00000803 	andeq	r0, r0, r3, lsl #16
    14dc:	0b002403 	bleq	a4f0 <__bss_end__+0x500>
    14e0:	030b3e0b 	movweq	r3, #48651	; 0xbe0b
    14e4:	0400000e 	streq	r0, [r0], #-14
    14e8:	19270115 	stmdbne	r7!, {r0, r2, r4, r8}
    14ec:	13011349 	movwne	r1, #4937	; 0x1349
    14f0:	05050000 	streq	r0, [r5, #-0]
    14f4:	00134900 	andseq	r4, r3, r0, lsl #18
    14f8:	00340600 	eorseq	r0, r4, r0, lsl #12
    14fc:	0b3a0e03 	bleq	e84d10 <__bss_end__+0xe7ad20>
    1500:	0b390b3b 	bleq	e441f4 <__bss_end__+0xe3a204>
    1504:	193f1349 	ldmdbne	pc!, {r0, r3, r6, r8, r9, ip}	; <UNPREDICTABLE>
    1508:	0000193c 	andeq	r1, r0, ip, lsr r9
    150c:	0b000f07 	bleq	5130 <__code_start__-0x2ed0>
    1510:	0013490b 	andseq	r4, r3, fp, lsl #18
    1514:	00260800 	eoreq	r0, r6, r0, lsl #16
    1518:	00001349 	andeq	r1, r0, r9, asr #6
    151c:	3f012e09 	svccc	0x00012e09
    1520:	3a0e0319 	bcc	38218c <__bss_end__+0x37819c>
    1524:	390b3b0b 	stmdbcc	fp, {r0, r1, r3, r8, r9, fp, ip, sp}
    1528:	4919270b 	ldmdbmi	r9, {r0, r1, r3, r8, r9, sl, sp}
    152c:	12011113 	andne	r1, r1, #-1073741820	; 0xc0000004
    1530:	97184006 	ldrls	r4, [r8, -r6]
    1534:	13011942 	movwne	r1, #6466	; 0x1942
    1538:	050a0000 	streq	r0, [sl, #-0]
    153c:	3a0e0300 	bcc	382144 <__bss_end__+0x378154>
    1540:	390b3b0b 	stmdbcc	fp, {r0, r1, r3, r8, r9, fp, ip, sp}
    1544:	0213490b 	andseq	r4, r3, #180224	; 0x2c000
    1548:	0b000018 	bleq	15b0 <__code_start__-0x6a50>
    154c:	08030005 	stmdaeq	r3, {r0, r2}
    1550:	0b3b0b3a 	bleq	ec4240 <__bss_end__+0xeba250>
    1554:	13490b39 	movtne	r0, #39737	; 0x9b39
    1558:	42b71702 	adcsmi	r1, r7, #524288	; 0x80000
    155c:	0c000017 	stceq	0, cr0, [r0], {23}
    1560:	08030034 	stmdaeq	r3, {r2, r4, r5}
    1564:	0b3b0b3a 	bleq	ec4254 <__bss_end__+0xeba264>
    1568:	13490b39 	movtne	r0, #39737	; 0x9b39
    156c:	42b71702 	adcsmi	r1, r7, #524288	; 0x80000
    1570:	00000017 	andeq	r0, r0, r7, lsl r0
    1574:	25011101 	strcs	r1, [r1, #-257]	; 0xfffffeff
    1578:	030b130e 	movweq	r1, #45838	; 0xb30e
    157c:	110e1b0e 	tstne	lr, lr, lsl #22
    1580:	10061201 	andne	r1, r6, r1, lsl #4
    1584:	02000017 	andeq	r0, r0, #23, 0
    1588:	0b0b0024 	bleq	2c1620 <__bss_end__+0x2b7630>
    158c:	08030b3e 	stmdaeq	r3, {r1, r2, r3, r4, r5, r8, r9, fp}
    1590:	24030000 	strcs	r0, [r3], #-0
    1594:	3e0b0b00 	vmlacc.f64	d0, d11, d0
    1598:	000e030b 	andeq	r0, lr, fp, lsl #6
    159c:	01150400 	tsteq	r5, r0, lsl #8
    15a0:	13491927 	movtne	r1, #39207	; 0x9927
    15a4:	00001301 	andeq	r1, r0, r1, lsl #6
    15a8:	49000505 	stmdbmi	r0, {r0, r2, r8, sl}
    15ac:	06000013 			; <UNDEFINED> instruction: 0x06000013
    15b0:	0e030034 	mcreq	0, 0, r0, cr3, cr4, {1}
    15b4:	0b3b0b3a 	bleq	ec42a4 <__bss_end__+0xeba2b4>
    15b8:	13490b39 	movtne	r0, #39737	; 0x9b39
    15bc:	193c193f 	ldmdbne	ip!, {r0, r1, r2, r3, r4, r5, r8, fp, ip}
    15c0:	0f070000 	svceq	0x00070000
    15c4:	490b0b00 	stmdbmi	fp, {r8, r9, fp}
    15c8:	08000013 	stmdaeq	r0, {r0, r1, r4}
    15cc:	13490026 	movtne	r0, #36902	; 0x9026
    15d0:	2e090000 	cdpcs	0, 0, cr0, cr9, cr0, {0}
    15d4:	03193f01 	tsteq	r9, #1, 30
    15d8:	3b0b3a0e 	blcc	2cfe18 <__bss_end__+0x2c5e28>
    15dc:	270b390b 	strcs	r3, [fp, -fp, lsl #18]
    15e0:	11134919 	tstne	r3, r9, lsl r9
    15e4:	40061201 	andmi	r1, r6, r1, lsl #4
    15e8:	19429718 	stmdbne	r2, {r3, r4, r8, r9, sl, ip, pc}^
    15ec:	050a0000 	streq	r0, [sl, #-0]
    15f0:	3a080300 	bcc	2021f8 <__bss_end__+0x1f8208>
    15f4:	390b3b0b 	stmdbcc	fp, {r0, r1, r3, r8, r9, fp, ip, sp}
    15f8:	0213490b 	andseq	r4, r3, #180224	; 0x2c000
    15fc:	1742b717 	smlaldne	fp, r2, r7, r7
    1600:	01000000 	mrseq	r0, (UNDEF: 0)
    1604:	0e250111 	mcreq	1, 1, r0, cr5, cr1, {0}
    1608:	0e030b13 	vmoveq.32	d3[0], r0
    160c:	01110e1b 	tsteq	r1, fp, lsl lr
    1610:	17100612 			; <UNDEFINED> instruction: 0x17100612
    1614:	24020000 	strcs	r0, [r2], #-0
    1618:	3e0b0b00 	vmlacc.f64	d0, d11, d0
    161c:	0008030b 	andeq	r0, r8, fp, lsl #6
    1620:	00240300 	eoreq	r0, r4, r0, lsl #6
    1624:	0b3e0b0b 	bleq	f84258 <__bss_end__+0xf7a268>
    1628:	00000e03 	andeq	r0, r0, r3, lsl #28
    162c:	27011504 	strcs	r1, [r1, -r4, lsl #10]
    1630:	01134919 	tsteq	r3, r9, lsl r9
    1634:	05000013 	streq	r0, [r0, #-19]	; 0xffffffed
    1638:	13490005 	movtne	r0, #36869	; 0x9005
    163c:	34060000 	strcc	r0, [r6], #-0
    1640:	3a0e0300 	bcc	382248 <__bss_end__+0x378258>
    1644:	390b3b0b 	stmdbcc	fp, {r0, r1, r3, r8, r9, fp, ip, sp}
    1648:	3f13490b 	svccc	0x0013490b
    164c:	00193c19 	andseq	r3, r9, r9, lsl ip
    1650:	000f0700 	andeq	r0, pc, r0, lsl #14
    1654:	13490b0b 	movtne	r0, #39691	; 0x9b0b
    1658:	26080000 	strcs	r0, [r8], -r0
    165c:	00134900 	andseq	r4, r3, r0, lsl #18
    1660:	012e0900 			; <UNDEFINED> instruction: 0x012e0900
    1664:	0e03193f 			; <UNDEFINED> instruction: 0x0e03193f
    1668:	0b3b0b3a 	bleq	ec4358 <__bss_end__+0xeba368>
    166c:	19270b39 	stmdbne	r7!, {r0, r3, r4, r5, r8, r9, fp}
    1670:	01111349 	tsteq	r1, r9, asr #6
    1674:	18400612 	stmdane	r0, {r1, r4, r9, sl}^
    1678:	01194297 			; <UNDEFINED> instruction: 0x01194297
    167c:	0a000013 	beq	16d0 <__code_start__-0x6930>
    1680:	08030005 	stmdaeq	r3, {r0, r2}
    1684:	0b3b0b3a 	bleq	ec4374 <__bss_end__+0xeba384>
    1688:	13490b39 	movtne	r0, #39737	; 0x9b39
    168c:	00001802 	andeq	r1, r0, r2, lsl #16
    1690:	0300050b 	movweq	r0, #1291	; 0x50b
    1694:	3b0b3a08 	blcc	2cfebc <__bss_end__+0x2c5ecc>
    1698:	490b390b 	stmdbmi	fp, {r0, r1, r3, r8, fp, ip, sp}
    169c:	b7170213 			; <UNDEFINED> instruction: 0xb7170213
    16a0:	00001742 	andeq	r1, r0, r2, asr #14
    16a4:	0300340c 	movweq	r3, #1036	; 0x40c
    16a8:	3b0b3a08 	blcc	2cfed0 <__bss_end__+0x2c5ee0>
    16ac:	490b390b 	stmdbmi	fp, {r0, r1, r3, r8, fp, ip, sp}
    16b0:	b7170213 			; <UNDEFINED> instruction: 0xb7170213
    16b4:	00001742 	andeq	r1, r0, r2, asr #14
    16b8:	01110100 	tsteq	r1, r0, lsl #2
    16bc:	0b130e25 	bleq	4c4f58 <__bss_end__+0x4baf68>
    16c0:	0e1b0e03 	cdpeq	14, 1, cr0, cr11, cr3, {0}
    16c4:	01111755 	tsteq	r1, r5, asr r7
    16c8:	00001710 	andeq	r1, r0, r0, lsl r7
    16cc:	0b002402 	bleq	a6dc <__bss_end__+0x6ec>
    16d0:	030b3e0b 	movweq	r3, #48651	; 0xbe0b
    16d4:	03000008 	movweq	r0, #8
    16d8:	0e030016 	mcreq	0, 0, r0, cr3, cr6, {0}
    16dc:	0b3b0b3a 	bleq	ec43cc <__bss_end__+0xeba3dc>
    16e0:	13490b39 	movtne	r0, #39737	; 0x9b39
    16e4:	24040000 	strcs	r0, [r4], #-0
    16e8:	3e0b0b00 	vmlacc.f64	d0, d11, d0
    16ec:	000e030b 	andeq	r0, lr, fp, lsl #6
    16f0:	00260500 	eoreq	r0, r6, r0, lsl #10
    16f4:	00001349 	andeq	r1, r0, r9, asr #6
    16f8:	27011506 	strcs	r1, [r1, -r6, lsl #10]
    16fc:	01134919 	tsteq	r3, r9, lsl r9
    1700:	07000013 	smladeq	r0, r3, r0, r0
    1704:	13490005 	movtne	r0, #36869	; 0x9005
    1708:	34080000 	strcc	r0, [r8], #-0
    170c:	3a0e0300 	bcc	382314 <__bss_end__+0x378324>
    1710:	390b3b0b 	stmdbcc	fp, {r0, r1, r3, r8, r9, fp, ip, sp}
    1714:	3f13490b 	svccc	0x0013490b
    1718:	00193c19 	andseq	r3, r9, r9, lsl ip
    171c:	000f0900 	andeq	r0, pc, r0, lsl #18
    1720:	13490b0b 	movtne	r0, #39691	; 0x9b0b
    1724:	2e0a0000 	cdpcs	0, 0, cr0, cr10, cr0, {0}
    1728:	03193f01 	tsteq	r9, #1, 30
    172c:	3b0b3a0e 	blcc	2cff6c <__bss_end__+0x2c5f7c>
    1730:	270b390b 	strcs	r3, [fp, -fp, lsl #18]
    1734:	11134919 	tstne	r3, r9, lsl r9
    1738:	40061201 	andmi	r1, r6, r1, lsl #4
    173c:	19429718 	stmdbne	r2, {r3, r4, r8, r9, sl, ip, pc}^
    1740:	00001301 	andeq	r1, r0, r1, lsl #6
    1744:	0300050b 	movweq	r0, #1291	; 0x50b
    1748:	3b0b3a08 	blcc	2cff70 <__bss_end__+0x2c5f80>
    174c:	490b390b 	stmdbmi	fp, {r0, r1, r3, r8, fp, ip, sp}
    1750:	b7170213 			; <UNDEFINED> instruction: 0xb7170213
    1754:	00001742 	andeq	r1, r0, r2, asr #14
    1758:	0300340c 	movweq	r3, #1036	; 0x40c
    175c:	3b0b3a08 	blcc	2cff84 <__bss_end__+0x2c5f94>
    1760:	490b390b 	stmdbmi	fp, {r0, r1, r3, r8, fp, ip, sp}
    1764:	b7170213 			; <UNDEFINED> instruction: 0xb7170213
    1768:	00001742 	andeq	r1, r0, r2, asr #14
    176c:	01110100 	tsteq	r1, r0, lsl #2
    1770:	0b130e25 	bleq	4c500c <__bss_end__+0x4bb01c>
    1774:	0e1b0e03 	cdpeq	14, 1, cr0, cr11, cr3, {0}
    1778:	06120111 			; <UNDEFINED> instruction: 0x06120111
    177c:	00001710 	andeq	r1, r0, r0, lsl r7
    1780:	0b002402 	bleq	a790 <__bss_end__+0x7a0>
    1784:	030b3e0b 	movweq	r3, #48651	; 0xbe0b
    1788:	03000008 	movweq	r0, #8
    178c:	0b0b0024 	bleq	2c1824 <__bss_end__+0x2b7834>
    1790:	0e030b3e 	vmoveq.16	d3[0], r0
    1794:	15040000 	strne	r0, [r4, #-0]
    1798:	49192701 	ldmdbmi	r9, {r0, r8, r9, sl, sp}
    179c:	00130113 	andseq	r0, r3, r3, lsl r1
    17a0:	00050500 	andeq	r0, r5, r0, lsl #10
    17a4:	00001349 	andeq	r1, r0, r9, asr #6
    17a8:	03003406 	movweq	r3, #1030	; 0x406
    17ac:	3b0b3a0e 	blcc	2cffec <__bss_end__+0x2c5ffc>
    17b0:	490b390b 	stmdbmi	fp, {r0, r1, r3, r8, fp, ip, sp}
    17b4:	3c193f13 	ldccc	15, cr3, [r9], {19}
    17b8:	07000019 	smladeq	r0, r9, r0, r0
    17bc:	0b0b000f 	bleq	2c1800 <__bss_end__+0x2b7810>
    17c0:	00001349 	andeq	r1, r0, r9, asr #6
    17c4:	49002608 	stmdbmi	r0, {r3, r9, sl, sp}
    17c8:	09000013 	stmdbeq	r0, {r0, r1, r4}
    17cc:	193f002e 	ldmdbne	pc!, {r1, r2, r3, r5}	; <UNPREDICTABLE>
    17d0:	0b3a0e03 	bleq	e84fe4 <__bss_end__+0xe7aff4>
    17d4:	0b390b3b 	bleq	e444c8 <__bss_end__+0xe3a4d8>
    17d8:	01111927 	tsteq	r1, r7, lsr #18
    17dc:	18400612 	stmdane	r0, {r1, r4, r9, sl}^
    17e0:	00194297 	mulseq	r9, r7, r2
	...

Disassembly of section .debug_loc:

00000000 <.debug_loc>:
       0:	00000000 	andeq	r0, r0, r0
       4:	00000094 	muleq	r0, r4, r0
       8:	000000a0 	andeq	r0, r0, r0, lsr #1
       c:	a0500001 	subsge	r0, r0, r1
      10:	30000000 	andcc	r0, r0, r0
      14:	01000001 	tsteq	r0, r1
      18:	00005500 	andeq	r5, r0, r0, lsl #10
      1c:	00000000 	andeq	r0, r0, r0
      20:	00020000 	andeq	r0, r2, r0
      24:	00940000 	addseq	r0, r4, r0
      28:	00a00000 	adceq	r0, r0, r0
      2c:	00020000 	andeq	r0, r2, r0
      30:	00a09f30 	adceq	r9, r0, r0, lsr pc
      34:	01300000 	teqeq	r0, r0
      38:	00010000 	andeq	r0, r1, r0
      3c:	00000059 	andeq	r0, r0, r9, asr r0
      40:	00000000 	andeq	r0, r0, r0
      44:	00000200 	andeq	r0, r0, r0, lsl #4
      48:	01010000 	mrseq	r0, (UNDEF: 1)
      4c:	0000ac00 	andeq	sl, r0, r0, lsl #24
      50:	0000b400 	andeq	fp, r0, r0, lsl #8
      54:	30000200 	andcc	r0, r0, r0, lsl #4
      58:	0000b49f 	muleq	r0, pc, r4	; <UNPREDICTABLE>
      5c:	00010800 	andeq	r0, r1, r0, lsl #16
      60:	54000100 	strpl	r0, [r0], #-256	; 0xffffff00
      64:	00000108 	andeq	r0, r0, r8, lsl #2
      68:	00000110 	andeq	r0, r0, r0, lsl r1
      6c:	7f740003 	svcvc	0x00740003
      70:	0001109f 	muleq	r1, pc, r0	; <UNPREDICTABLE>
      74:	00013000 	andeq	r3, r1, r0
      78:	54000100 	strpl	r0, [r0], #-256	; 0xffffff00
	...
      84:	00b40001 	adcseq	r0, r4, r1
      88:	01040000 	mrseq	r0, (UNDEF: 4)
      8c:	00010000 	andeq	r0, r1, r0
      90:	00000054 	andeq	r0, r0, r4, asr r0
      94:	00000000 	andeq	r0, r0, r0
      98:	b4000100 	strlt	r0, [r0], #-256	; 0xffffff00
      9c:	04000000 	streq	r0, [r0], #-0
      a0:	01000001 	tsteq	r0, r1
      a4:	00005500 	andeq	r5, r0, r0, lsl #10
	...
      b8:	00270000 	eoreq	r0, r7, r0
      bc:	00010000 	andeq	r0, r1, r0
      c0:	00002750 	andeq	r2, r0, r0, asr r7
      c4:	00006800 	andeq	r6, r0, r0, lsl #16
      c8:	54000100 	strpl	r0, [r0], #-256	; 0xffffff00
      cc:	00000068 	andeq	r0, r0, r8, rrx
      d0:	0000006b 	andeq	r0, r0, fp, rrx
      d4:	6b500001 	blvs	14000e0 <__bss_end__+0x13f60f0>
      d8:	6c000000 	stcvs	0, cr0, [r0], {-0}
      dc:	04000000 	streq	r0, [r0], #-0
      e0:	5001f300 	andpl	pc, r1, r0, lsl #6
      e4:	0000009f 	muleq	r0, pc, r0	; <UNPREDICTABLE>
	...
      f4:	20000000 	andcs	r0, r0, r0
      f8:	01000000 	mrseq	r0, (UNDEF: 0)
      fc:	00205100 	eoreq	r5, r0, r0, lsl #2
     100:	00680000 	rsbeq	r0, r8, r0
     104:	00010000 	andeq	r0, r1, r0
     108:	00006856 	andeq	r6, r0, r6, asr r8
     10c:	00006c00 	andeq	r6, r0, r0, lsl #24
     110:	f3000400 	vshl.u8	d0, d0, d0
     114:	009f5101 	addseq	r5, pc, r1, lsl #2
	...
     120:	0c000000 	stceq	0, cr0, [r0], {-0}
     124:	20000006 	andcs	r0, r0, r6
     128:	01000006 	tsteq	r0, r6
     12c:	06205000 	strteq	r5, [r0], -r0
     130:	06300000 	ldrteq	r0, [r0], -r0
     134:	00040000 	andeq	r0, r4, r0
     138:	9f5001f3 	svcls	0x005001f3
	...
     148:	0000060c 	andeq	r0, r0, ip, lsl #12
     14c:	00000618 	andeq	r0, r0, r8, lsl r6
     150:	18510001 	ldmdane	r1, {r0}^
     154:	30000006 	andcc	r0, r0, r6
     158:	04000006 	streq	r0, [r0], #-6
     15c:	5101f300 	mrspl	pc, SP_irq	; <UNPREDICTABLE>
     160:	0000009f 	muleq	r0, pc, r0	; <UNPREDICTABLE>
	...
     16c:	00051c00 	andeq	r1, r5, r0, lsl #24
     170:	00060700 	andeq	r0, r6, r0, lsl #14
     174:	50000100 	andpl	r0, r0, r0, lsl #2
     178:	00000607 	andeq	r0, r0, r7, lsl #12
     17c:	0000060c 	andeq	r0, r0, ip, lsl #12
     180:	01f30004 	mvnseq	r0, r4
     184:	00009f50 	andeq	r9, r0, r0, asr pc
	...
     190:	05240000 	streq	r0, [r4, #-0]!
     194:	06040000 	streq	r0, [r4], -r0
     198:	00010000 	andeq	r0, r1, r0
     19c:	00060454 	andeq	r0, r6, r4, asr r4
     1a0:	00060700 	andeq	r0, r6, r0, lsl #14
     1a4:	70000200 	andvc	r0, r0, r0, lsl #4
     1a8:	00000004 	andeq	r0, r0, r4
	...
     1b4:	00052400 	andeq	r2, r5, r0, lsl #8
     1b8:	00060700 	andeq	r0, r6, r0, lsl #14
     1bc:	50000100 	andpl	r0, r0, r0, lsl #2
     1c0:	00000607 	andeq	r0, r0, r7, lsl #12
     1c4:	0000060c 	andeq	r0, r0, ip, lsl #12
     1c8:	01f30004 	mvnseq	r0, r4
     1cc:	00009f50 	andeq	r9, r0, r0, asr pc
     1d0:	00000000 	andeq	r0, r0, r0
     1d4:	00010000 	andeq	r0, r1, r0
     1d8:	05240000 	streq	r0, [r4, #-0]!
     1dc:	05400000 	strbeq	r0, [r0, #-0]
     1e0:	00020000 	andeq	r0, r2, r0
     1e4:	05409f30 	strbeq	r9, [r0, #-3888]	; 0xfffff0d0
     1e8:	06000000 	streq	r0, [r0], -r0
     1ec:	00010000 	andeq	r0, r1, r0
     1f0:	0000005e 	andeq	r0, r0, lr, asr r0
     1f4:	00000000 	andeq	r0, r0, r0
     1f8:	40000200 	andmi	r0, r0, r0, lsl #4
     1fc:	f4000005 	vst4.8	{d0-d3}, [r0], r5
     200:	02000005 	andeq	r0, r0, #5, 0
     204:	009f3000 	addseq	r3, pc, r0
     208:	00000000 	andeq	r0, r0, r0
     20c:	04000000 	streq	r0, [r0], #-0
     210:	00054000 	andeq	r4, r5, r0
     214:	00058000 	andeq	r8, r5, r0
     218:	30000200 	andcc	r0, r0, r0, lsl #4
     21c:	0000009f 	muleq	r0, pc, r0	; <UNPREDICTABLE>
     220:	00000000 	andeq	r0, r0, r0
     224:	40000700 	andmi	r0, r0, r0, lsl #14
     228:	44000005 	strmi	r0, [r0], #-5
     22c:	02000005 	andeq	r0, r0, #5, 0
     230:	009f3700 	addseq	r3, pc, r0, lsl #14
     234:	00000000 	andeq	r0, r0, r0
     238:	01000000 	mrseq	r0, (UNDEF: 0)
     23c:	00054400 	andeq	r4, r5, r0, lsl #8
     240:	00057400 	andeq	r7, r5, r0, lsl #8
     244:	30000200 	andcc	r0, r0, r0, lsl #4
     248:	0000009f 	muleq	r0, pc, r0	; <UNPREDICTABLE>
     24c:	00000000 	andeq	r0, r0, r0
     250:	44000600 	strmi	r0, [r0], #-1536	; 0xfffffa00
     254:	5c000005 	stcpl	0, cr0, [r0], {5}
     258:	03000005 	movweq	r0, #5
     25c:	9f730800 	svcls	0x00730800
	...
     268:	0544000a 	strbeq	r0, [r4, #-10]
     26c:	06000000 	streq	r0, [r0], -r0
     270:	00060000 	andeq	r0, r6, r0
     274:	20001c0c 	andcs	r1, r0, ip, lsl #24
     278:	00009f20 	andeq	r9, r0, r0, lsr #30
	...
     284:	0000054c 	andeq	r0, r0, ip, asr #10
     288:	0000055c 	andeq	r0, r0, ip, asr r5
     28c:	00550001 	subseq	r0, r5, r1
     290:	00000000 	andeq	r0, r0, r0
     294:	01000000 	mrseq	r0, (UNDEF: 0)
     298:	00054c00 	andeq	r4, r5, r0, lsl #24
     29c:	00055c00 	andeq	r5, r5, r0, lsl #24
     2a0:	08000300 	stmdaeq	r0, {r8, r9}
     2a4:	00009f73 	andeq	r9, r0, r3, ror pc
     2a8:	00000000 	andeq	r0, r0, r0
     2ac:	00010000 	andeq	r0, r1, r0
     2b0:	0000054c 	andeq	r0, r0, ip, asr #10
     2b4:	0000055c 	andeq	r0, r0, ip, asr r5
     2b8:	00550001 	subseq	r0, r5, r1
     2bc:	00000000 	andeq	r0, r0, r0
     2c0:	04000000 	streq	r0, [r0], #-0
     2c4:	4c000606 	stcmi	6, cr0, [r0], {6}
     2c8:	4c000005 	stcmi	0, cr0, [r0], {5}
     2cc:	03000005 	movweq	r0, #5
     2d0:	9f730800 	svcls	0x00730800
     2d4:	0000054c 	andeq	r0, r0, ip, asr #10
     2d8:	0000055c 	andeq	r0, r0, ip, asr r5
     2dc:	5f080003 	svcpl	0x00080003
     2e0:	0000009f 	muleq	r0, pc, r0	; <UNPREDICTABLE>
     2e4:	00000000 	andeq	r0, r0, r0
     2e8:	4c000400 	cfstrsmi	mvf0, [r0], {-0}
     2ec:	5c000005 	stcpl	0, cr0, [r0], {5}
     2f0:	01000005 	tsteq	r0, r5
     2f4:	00005500 	andeq	r5, r0, r0, lsl #10
	...
     300:	00000550 	andeq	r0, r0, r0, asr r5
     304:	00000554 	andeq	r0, r0, r4, asr r5
     308:	005c0001 	subseq	r0, ip, r1
     30c:	00000000 	andeq	r0, r0, r0
     310:	04000000 	streq	r0, [r0], #-0
     314:	00055c00 	andeq	r5, r5, r0, lsl #24
     318:	00057400 	andeq	r7, r5, r0, lsl #8
     31c:	0a000400 	beq	1324 <__code_start__-0x6cdc>
     320:	009f01f4 			; <UNDEFINED> instruction: 0x009f01f4
     324:	00000000 	andeq	r0, r0, r0
     328:	08000000 	stmdaeq	r0, {}	; <UNPREDICTABLE>
     32c:	00055c00 	andeq	r5, r5, r0, lsl #24
     330:	00060000 	andeq	r0, r6, r0
     334:	0c000600 	stceq	6, cr0, [r0], {-0}
     338:	20200028 	eorcs	r0, r0, r8, lsr #32
     33c:	0000009f 	muleq	r0, pc, r0	; <UNPREDICTABLE>
     340:	00000000 	andeq	r0, r0, r0
     344:	64000000 	strvs	r0, [r0], #-0
     348:	74000005 	strvc	r0, [r0], #-5
     34c:	01000005 	tsteq	r0, r5
     350:	00005500 	andeq	r5, r0, r0, lsl #10
     354:	00000000 	andeq	r0, r0, r0
     358:	00010000 	andeq	r0, r1, r0
     35c:	00000564 	andeq	r0, r0, r4, ror #10
     360:	00000574 	andeq	r0, r0, r4, ror r5
     364:	f40a0004 	vst4.8	{d0-d3}, [sl], r4
     368:	00009f01 	andeq	r9, r0, r1, lsl #30
     36c:	00000000 	andeq	r0, r0, r0
     370:	00010000 	andeq	r0, r1, r0
     374:	00000564 	andeq	r0, r0, r4, ror #10
     378:	00000574 	andeq	r0, r0, r4, ror r5
     37c:	00550001 	subseq	r0, r5, r1
     380:	00000000 	andeq	r0, r0, r0
     384:	04000000 	streq	r0, [r0], #-0
     388:	64000606 	strvs	r0, [r0], #-1542	; 0xfffff9fa
     38c:	64000005 	strvs	r0, [r0], #-5
     390:	04000005 	streq	r0, [r0], #-5
     394:	01f40a00 	mvnseq	r0, r0, lsl #20
     398:	0005649f 	muleq	r5, pc, r4	; <UNPREDICTABLE>
     39c:	00057400 	andeq	r7, r5, r0, lsl #8
     3a0:	0a000400 	beq	13a8 <__code_start__-0x6c58>
     3a4:	009f01e0 	addseq	r0, pc, r0, ror #3
     3a8:	00000000 	andeq	r0, r0, r0
     3ac:	04000000 	streq	r0, [r0], #-0
     3b0:	00056400 	andeq	r6, r5, r0, lsl #8
     3b4:	00057400 	andeq	r7, r5, r0, lsl #8
     3b8:	55000100 	strpl	r0, [r0, #-256]	; 0xffffff00
	...
     3c4:	05680000 	strbeq	r0, [r8, #-0]!
     3c8:	056c0000 	strbeq	r0, [ip, #-0]!
     3cc:	00010000 	andeq	r0, r1, r0
     3d0:	0000005c 	andeq	r0, r0, ip, asr r0
     3d4:	00000000 	andeq	r0, r0, r0
     3d8:	80000200 	andhi	r0, r0, r0, lsl #4
     3dc:	b0000005 	andlt	r0, r0, r5
     3e0:	02000005 	andeq	r0, r0, #5, 0
     3e4:	009f3000 	addseq	r3, pc, r0
     3e8:	00000000 	andeq	r0, r0, r0
     3ec:	07000000 	streq	r0, [r0, -r0]
     3f0:	00058000 	andeq	r8, r5, r0
     3f4:	00059800 	andeq	r9, r5, r0, lsl #16
     3f8:	08000300 	stmdaeq	r0, {r8, r9}
     3fc:	00009f73 	andeq	r9, r0, r3, ror pc
     400:	00000000 	andeq	r0, r0, r0
     404:	000b0000 	andeq	r0, fp, r0
     408:	00000580 	andeq	r0, r0, r0, lsl #11
     40c:	00000600 	andeq	r0, r0, r0, lsl #12
     410:	1c0c0006 	stcne	0, cr0, [ip], {6}
     414:	9f202000 	svcls	0x00202000
	...
     420:	05880000 	streq	r0, [r8]
     424:	05980000 	ldreq	r0, [r8]
     428:	00010000 	andeq	r0, r1, r0
     42c:	00000055 	andeq	r0, r0, r5, asr r0
     430:	00000000 	andeq	r0, r0, r0
     434:	88000100 	stmdahi	r0, {r8}
     438:	98000005 	stmdals	r0, {r0, r2}
     43c:	03000005 	movweq	r0, #5
     440:	9f730800 	svcls	0x00730800
	...
     44c:	05880001 	streq	r0, [r8, #1]
     450:	05980000 	ldreq	r0, [r8]
     454:	00010000 	andeq	r0, r1, r0
     458:	00000055 	andeq	r0, r0, r5, asr r0
     45c:	00000000 	andeq	r0, r0, r0
     460:	06060400 	streq	r0, [r6], -r0, lsl #8
     464:	00058800 	andeq	r8, r5, r0, lsl #16
     468:	00058800 	andeq	r8, r5, r0, lsl #16
     46c:	08000300 	stmdaeq	r0, {r8, r9}
     470:	05889f73 	streq	r9, [r8, #3955]	; 0xf73
     474:	05980000 	ldreq	r0, [r8]
     478:	00030000 	andeq	r0, r3, r0
     47c:	009f5f08 	addseq	r5, pc, r8, lsl #30
     480:	00000000 	andeq	r0, r0, r0
     484:	04000000 	streq	r0, [r0], #-0
     488:	00058800 	andeq	r8, r5, r0, lsl #16
     48c:	00059800 	andeq	r9, r5, r0, lsl #16
     490:	55000100 	strpl	r0, [r0, #-256]	; 0xffffff00
	...
     49c:	058c0000 	streq	r0, [ip]
     4a0:	05900000 	ldreq	r0, [r0]
     4a4:	00010000 	andeq	r0, r1, r0
     4a8:	0000005c 	andeq	r0, r0, ip, asr r0
     4ac:	00000000 	andeq	r0, r0, r0
     4b0:	98000400 	stmdals	r0, {sl}
     4b4:	b0000005 	andlt	r0, r0, r5
     4b8:	04000005 	streq	r0, [r0], #-5
     4bc:	01f40a00 	mvnseq	r0, r0, lsl #20
     4c0:	0000009f 	muleq	r0, pc, r0	; <UNPREDICTABLE>
     4c4:	00000000 	andeq	r0, r0, r0
     4c8:	98000800 	stmdals	r0, {fp}
     4cc:	00000005 	andeq	r0, r0, r5
     4d0:	06000006 	streq	r0, [r0], -r6
     4d4:	00280c00 	eoreq	r0, r8, r0, lsl #24
     4d8:	009f2020 	addseq	r2, pc, r0, lsr #32
	...
     4e4:	0005a000 	andeq	sl, r5, r0
     4e8:	0005b000 	andeq	fp, r5, r0
     4ec:	55000100 	strpl	r0, [r0, #-256]	; 0xffffff00
	...
     4f8:	05a00001 	streq	r0, [r0, #1]!
     4fc:	05b00000 	ldreq	r0, [r0, #0]!
     500:	00040000 	andeq	r0, r4, r0
     504:	9f01f40a 	svcls	0x0001f40a
	...
     510:	05a00001 	streq	r0, [r0, #1]!
     514:	05b00000 	ldreq	r0, [r0, #0]!
     518:	00010000 	andeq	r0, r1, r0
     51c:	00000055 	andeq	r0, r0, r5, asr r0
     520:	00000000 	andeq	r0, r0, r0
     524:	06060400 	streq	r0, [r6], -r0, lsl #8
     528:	0005a000 	andeq	sl, r5, r0
     52c:	0005a000 	andeq	sl, r5, r0
     530:	0a000400 	beq	1538 <__code_start__-0x6ac8>
     534:	a09f01f4 			; <UNDEFINED> instruction: 0xa09f01f4
     538:	b0000005 	andlt	r0, r0, r5
     53c:	04000005 	streq	r0, [r0], #-5
     540:	01e00a00 	mvneq	r0, r0, lsl #20
     544:	0000009f 	muleq	r0, pc, r0	; <UNPREDICTABLE>
     548:	00000000 	andeq	r0, r0, r0
     54c:	a0000400 	andge	r0, r0, r0, lsl #8
     550:	b0000005 	andlt	r0, r0, r5
     554:	01000005 	tsteq	r0, r5
     558:	00005500 	andeq	r5, r0, r0, lsl #10
	...
     564:	000005a4 	andeq	r0, r0, r4, lsr #11
     568:	000005a8 	andeq	r0, r0, r8, lsr #11
     56c:	005c0001 	subseq	r0, ip, r1
     570:	00000000 	andeq	r0, r0, r0
     574:	01000000 	mrseq	r0, (UNDEF: 0)
     578:	0005bc00 	andeq	fp, r5, r0, lsl #24
     57c:	0005ec00 	andeq	lr, r5, r0, lsl #24
     580:	30000200 	andcc	r0, r0, r0, lsl #4
     584:	0000009f 	muleq	r0, pc, r0	; <UNPREDICTABLE>
     588:	00000000 	andeq	r0, r0, r0
     58c:	bc000600 	stclt	6, cr0, [r0], {-0}
     590:	d4000005 	strle	r0, [r0], #-5
     594:	03000005 	movweq	r0, #5
     598:	9f730800 	svcls	0x00730800
	...
     5a4:	05bc000a 	ldreq	r0, [ip, #10]!
     5a8:	06000000 	streq	r0, [r0], -r0
     5ac:	00060000 	andeq	r0, r6, r0
     5b0:	20001c0c 	andcs	r1, r0, ip, lsl #24
     5b4:	00009f20 	andeq	r9, r0, r0, lsr #30
	...
     5c0:	000005c4 	andeq	r0, r0, r4, asr #11
     5c4:	000005d4 	ldrdeq	r0, [r0], -r4
     5c8:	00550001 	subseq	r0, r5, r1
     5cc:	00000000 	andeq	r0, r0, r0
     5d0:	01000000 	mrseq	r0, (UNDEF: 0)
     5d4:	0005c400 	andeq	ip, r5, r0, lsl #8
     5d8:	0005d400 	andeq	sp, r5, r0, lsl #8
     5dc:	08000300 	stmdaeq	r0, {r8, r9}
     5e0:	00009f73 	andeq	r9, r0, r3, ror pc
     5e4:	00000000 	andeq	r0, r0, r0
     5e8:	00010000 	andeq	r0, r1, r0
     5ec:	000005c4 	andeq	r0, r0, r4, asr #11
     5f0:	000005d4 	ldrdeq	r0, [r0], -r4
     5f4:	00550001 	subseq	r0, r5, r1
     5f8:	00000000 	andeq	r0, r0, r0
     5fc:	04000000 	streq	r0, [r0], #-0
     600:	c4000606 	strgt	r0, [r0], #-1542	; 0xfffff9fa
     604:	c4000005 	strgt	r0, [r0], #-5
     608:	03000005 	movweq	r0, #5
     60c:	9f730800 	svcls	0x00730800
     610:	000005c4 	andeq	r0, r0, r4, asr #11
     614:	000005d4 	ldrdeq	r0, [r0], -r4
     618:	5f080003 	svcpl	0x00080003
     61c:	0000009f 	muleq	r0, pc, r0	; <UNPREDICTABLE>
     620:	00000000 	andeq	r0, r0, r0
     624:	c4000400 	strgt	r0, [r0], #-1024	; 0xfffffc00
     628:	d4000005 	strle	r0, [r0], #-5
     62c:	01000005 	tsteq	r0, r5
     630:	00005500 	andeq	r5, r0, r0, lsl #10
	...
     63c:	000005c8 	andeq	r0, r0, r8, asr #11
     640:	000005cc 	andeq	r0, r0, ip, asr #11
     644:	005c0001 	subseq	r0, ip, r1
     648:	00000000 	andeq	r0, r0, r0
     64c:	04000000 	streq	r0, [r0], #-0
     650:	0005d400 	andeq	sp, r5, r0, lsl #8
     654:	0005ec00 	andeq	lr, r5, r0, lsl #24
     658:	0a000400 	beq	1660 <__code_start__-0x69a0>
     65c:	009f01f4 			; <UNDEFINED> instruction: 0x009f01f4
     660:	00000000 	andeq	r0, r0, r0
     664:	08000000 	stmdaeq	r0, {}	; <UNPREDICTABLE>
     668:	0005d400 	andeq	sp, r5, r0, lsl #8
     66c:	00060000 	andeq	r0, r6, r0
     670:	0c000600 	stceq	6, cr0, [r0], {-0}
     674:	20200028 	eorcs	r0, r0, r8, lsr #32
     678:	0000009f 	muleq	r0, pc, r0	; <UNPREDICTABLE>
     67c:	00000000 	andeq	r0, r0, r0
     680:	dc000000 	stcle	0, cr0, [r0], {-0}
     684:	ec000005 	stc	0, cr0, [r0], {5}
     688:	01000005 	tsteq	r0, r5
     68c:	00005500 	andeq	r5, r0, r0, lsl #10
     690:	00000000 	andeq	r0, r0, r0
     694:	00010000 	andeq	r0, r1, r0
     698:	000005dc 	ldrdeq	r0, [r0], -ip
     69c:	000005ec 	andeq	r0, r0, ip, ror #11
     6a0:	f40a0004 	vst4.8	{d0-d3}, [sl], r4
     6a4:	00009f01 	andeq	r9, r0, r1, lsl #30
     6a8:	00000000 	andeq	r0, r0, r0
     6ac:	00010000 	andeq	r0, r1, r0
     6b0:	000005dc 	ldrdeq	r0, [r0], -ip
     6b4:	000005ec 	andeq	r0, r0, ip, ror #11
     6b8:	00550001 	subseq	r0, r5, r1
     6bc:	00000000 	andeq	r0, r0, r0
     6c0:	04000000 	streq	r0, [r0], #-0
     6c4:	dc000606 	stcle	6, cr0, [r0], {6}
     6c8:	dc000005 	stcle	0, cr0, [r0], {5}
     6cc:	04000005 	streq	r0, [r0], #-5
     6d0:	01f40a00 	mvnseq	r0, r0, lsl #20
     6d4:	0005dc9f 	muleq	r5, pc, ip	; <UNPREDICTABLE>
     6d8:	0005ec00 	andeq	lr, r5, r0, lsl #24
     6dc:	0a000400 	beq	16e4 <__code_start__-0x691c>
     6e0:	009f01e0 	addseq	r0, pc, r0, ror #3
     6e4:	00000000 	andeq	r0, r0, r0
     6e8:	04000000 	streq	r0, [r0], #-0
     6ec:	0005dc00 	andeq	sp, r5, r0, lsl #24
     6f0:	0005ec00 	andeq	lr, r5, r0, lsl #24
     6f4:	55000100 	strpl	r0, [r0, #-256]	; 0xffffff00
	...
     700:	05e00000 	strbeq	r0, [r0, #0]!
     704:	05e40000 	strbeq	r0, [r4, #0]!
     708:	00010000 	andeq	r0, r1, r0
     70c:	0000005c 	andeq	r0, r0, ip, asr r0
	...
     718:	00027c00 	andeq	r7, r2, r0, lsl #24
     71c:	00028c00 	andeq	r8, r2, r0, lsl #24
     720:	50000100 	andpl	r0, r0, r0, lsl #2
     724:	0000028c 	andeq	r0, r0, ip, lsl #5
     728:	0000042c 	andeq	r0, r0, ip, lsr #8
     72c:	01f30004 	mvnseq	r0, r4
     730:	00009f50 	andeq	r9, r0, r0, asr pc
	...
     740:	0000027c 	andeq	r0, r0, ip, ror r2
     744:	00000328 	andeq	r0, r0, r8, lsr #6
     748:	28510001 	ldmdacs	r1, {r0}^
     74c:	b8000003 	stmdalt	r0, {r0, r1}
     750:	04000003 	streq	r0, [r0], #-3
     754:	5101f300 	mrspl	pc, SP_irq	; <UNPREDICTABLE>
     758:	0003b89f 	muleq	r3, pc, r8	; <UNPREDICTABLE>
     75c:	00042c00 	andeq	r2, r4, r0, lsl #24
     760:	51000100 	mrspl	r0, (UNDEF: 16)
	...
     770:	027c0000 	rsbseq	r0, ip, #0, 0
     774:	02e00000 	rsceq	r0, r0, #0, 0
     778:	00010000 	andeq	r0, r1, r0
     77c:	0002e052 	andeq	lr, r2, r2, asr r0
     780:	0003f000 	andeq	pc, r3, r0
     784:	f3000400 	vshl.u8	d0, d0, d0
     788:	f09f5201 			; <UNDEFINED> instruction: 0xf09f5201
     78c:	2c000003 	stccs	0, cr0, [r0], {3}
     790:	01000004 	tsteq	r0, r4
     794:	00005200 	andeq	r5, r0, r0, lsl #4
	...
     7a0:	00000284 	andeq	r0, r0, r4, lsl #5
     7a4:	0000042c 	andeq	r0, r0, ip, lsr #8
     7a8:	00530001 	subseq	r0, r3, r1
	...
     7b8:	00028400 	andeq	r8, r2, r0, lsl #8
     7bc:	0002e000 	andeq	lr, r2, r0
     7c0:	52000100 	andpl	r0, r0, #0
     7c4:	000002e0 	andeq	r0, r0, r0, ror #5
     7c8:	000003f0 	strdeq	r0, [r0], -r0	; <UNPREDICTABLE>
     7cc:	01f30004 	mvnseq	r0, r4
     7d0:	03f09f52 	mvnseq	r9, #328	; 0x148
     7d4:	042c0000 	strteq	r0, [ip], #-0
     7d8:	00010000 	andeq	r0, r1, r0
     7dc:	00000052 	andeq	r0, r0, r2, asr r0
	...
     7e8:	84000000 	strhi	r0, [r0], #-0
     7ec:	28000002 	stmdacs	r0, {r1}
     7f0:	01000003 	tsteq	r0, r3
     7f4:	03285100 			; <UNDEFINED> instruction: 0x03285100
     7f8:	03b80000 			; <UNDEFINED> instruction: 0x03b80000
     7fc:	00040000 	andeq	r0, r4, r0
     800:	9f5101f3 	svcls	0x005101f3
     804:	000003b8 			; <UNDEFINED> instruction: 0x000003b8
     808:	0000042c 	andeq	r0, r0, ip, lsr #8
     80c:	00510001 	subseq	r0, r1, r1
     810:	00000000 	andeq	r0, r0, r0
     814:	02000000 	andeq	r0, r0, #0, 0
     818:	7c000000 	stcvc	0, cr0, [r0], {-0}
     81c:	8c000002 	stchi	0, cr0, [r0], {2}
     820:	08000002 	stmdaeq	r0, {r1}
     824:	94007000 	strls	r7, [r0], #-0
     828:	1aff0801 	bne	fffc2834 <__bss_end__+0xfffb8844>
     82c:	00028c9f 	muleq	r2, pc, ip	; <UNPREDICTABLE>
     830:	00029400 	andeq	r9, r2, r0, lsl #8
     834:	f3000900 	vmls.i8	d0, d0, d0
     838:	01945001 	orrseq	r5, r4, r1
     83c:	9f1aff08 	svcls	0x001aff08
	...
     848:	00000003 	andeq	r0, r0, r3
     84c:	00000284 	andeq	r0, r0, r4, lsl #5
     850:	000002e0 	andeq	r0, r0, r0, ror #5
     854:	f0520001 			; <UNDEFINED> instruction: 0xf0520001
     858:	2c000003 	stccs	0, cr0, [r0], {3}
     85c:	01000004 	tsteq	r0, r4
     860:	00005200 	andeq	r5, r0, r0, lsl #4
     864:	00000000 	andeq	r0, r0, r0
     868:	00030000 	andeq	r0, r3, r0
     86c:	02840000 	addeq	r0, r4, #0, 0
     870:	028c0000 	addeq	r0, ip, #0, 0
     874:	00080000 	andeq	r0, r8, r0
     878:	01940070 	orrseq	r0, r4, r0, ror r0
     87c:	9f1aff08 	svcls	0x001aff08
     880:	0000028c 	andeq	r0, r0, ip, lsl #5
     884:	00000294 	muleq	r0, r4, r2
     888:	00500001 	subseq	r0, r0, r1
     88c:	00000000 	andeq	r0, r0, r0
     890:	06000000 	streq	r0, [r0], -r0
	...
     89c:	00028400 	andeq	r8, r2, r0, lsl #8
     8a0:	00029400 	andeq	r9, r2, r0, lsl #8
     8a4:	37000200 	strcc	r0, [r0, -r0, lsl #4]
     8a8:	0002949f 	muleq	r2, pc, r4	; <UNPREDICTABLE>
     8ac:	0002d400 	andeq	sp, r2, r0, lsl #8
     8b0:	5e000100 	adfpls	f0, f0, f0
     8b4:	000002d4 	ldrdeq	r0, [r0], -r4
     8b8:	000002d8 	ldrdeq	r0, [r0], -r8
     8bc:	017e0003 	cmneq	lr, r3
     8c0:	0003f09f 	muleq	r3, pc, r0	; <UNPREDICTABLE>
     8c4:	00042000 	andeq	r2, r4, r0
     8c8:	5e000100 	adfpls	f0, f0, f0
     8cc:	00000420 	andeq	r0, r0, r0, lsr #8
     8d0:	0000042c 	andeq	r0, r0, ip, lsr #8
     8d4:	017e0003 	cmneq	lr, r3
     8d8:	0000009f 	muleq	r0, pc, r0	; <UNPREDICTABLE>
     8dc:	00000000 	andeq	r0, r0, r0
     8e0:	00000200 	andeq	r0, r0, r0, lsl #4
     8e4:	00029400 	andeq	r9, r2, r0, lsl #8
     8e8:	0002d000 	andeq	sp, r2, r0
     8ec:	72000800 	andvc	r0, r0, #0, 16
     8f0:	26007e00 	strcs	r7, [r0], -r0, lsl #28
     8f4:	f09f1a31 			; <UNDEFINED> instruction: 0xf09f1a31
     8f8:	1c000003 	stcne	0, cr0, [r0], {3}
     8fc:	08000004 	stmdaeq	r0, {r2}
     900:	7e007200 	cdpvc	2, 0, cr7, cr0, cr0, {0}
     904:	1a312600 	bne	c4a10c <__bss_end__+0xc4011c>
     908:	0000009f 	muleq	r0, pc, r0	; <UNPREDICTABLE>
     90c:	00000000 	andeq	r0, r0, r0
     910:	f0000400 			; <UNDEFINED> instruction: 0xf0000400
     914:	04000003 	streq	r0, [r0], #-3
     918:	03000004 	movweq	r0, #4
     91c:	9f730800 	svcls	0x00730800
	...
     928:	03f40000 	mvnseq	r0, #0, 0
     92c:	04040000 	streq	r0, [r4], #-0
     930:	00010000 	andeq	r0, r1, r0
     934:	00000055 	andeq	r0, r0, r5, asr r0
     938:	00000000 	andeq	r0, r0, r0
     93c:	f4000100 	vst4.8	{d0,d2,d4,d6}, [r0], r0
     940:	04000003 	streq	r0, [r0], #-3
     944:	03000004 	movweq	r0, #4
     948:	9f730800 	svcls	0x00730800
	...
     954:	03f40001 	mvnseq	r0, #1, 0
     958:	04040000 	streq	r0, [r4], #-0
     95c:	00010000 	andeq	r0, r1, r0
     960:	00000055 	andeq	r0, r0, r5, asr r0
     964:	00000000 	andeq	r0, r0, r0
     968:	06060400 	streq	r0, [r6], -r0, lsl #8
     96c:	0003f400 	andeq	pc, r3, r0, lsl #8
     970:	0003f400 	andeq	pc, r3, r0, lsl #8
     974:	08000300 	stmdaeq	r0, {r8, r9}
     978:	03f49f73 	mvnseq	r9, #460	; 0x1cc
     97c:	04040000 	streq	r0, [r4], #-0
     980:	00030000 	andeq	r0, r3, r0
     984:	009f5f08 	addseq	r5, pc, r8, lsl #30
     988:	00000000 	andeq	r0, r0, r0
     98c:	04000000 	streq	r0, [r0], #-0
     990:	0003f400 	andeq	pc, r3, r0, lsl #8
     994:	00040400 	andeq	r0, r4, r0, lsl #8
     998:	55000100 	strpl	r0, [r0, #-256]	; 0xffffff00
	...
     9a4:	03f80000 	mvnseq	r0, #0, 0
     9a8:	03fc0000 	mvnseq	r0, #0, 0
     9ac:	00010000 	andeq	r0, r1, r0
     9b0:	00000054 	andeq	r0, r0, r4, asr r0
     9b4:	00000000 	andeq	r0, r0, r0
     9b8:	a4000300 	strge	r0, [r0], #-768	; 0xfffffd00
     9bc:	b8000002 	stmdalt	r0, {r1}
     9c0:	04000002 	streq	r0, [r0], #-2
     9c4:	01f40a00 	mvnseq	r0, r0, lsl #20
     9c8:	0000009f 	muleq	r0, pc, r0	; <UNPREDICTABLE>
     9cc:	00000000 	andeq	r0, r0, r0
     9d0:	a4000700 	strge	r0, [r0], #-1792	; 0xfffff900
     9d4:	d8000002 	stmdale	r0, {r1}
     9d8:	06000002 	streq	r0, [r0], -r2
     9dc:	001c0c00 	andseq	r0, ip, r0, lsl #24
     9e0:	009f2020 	addseq	r2, pc, r0, lsr #32
	...
     9ec:	0002a800 	andeq	sl, r2, r0, lsl #16
     9f0:	0002b800 	andeq	fp, r2, r0, lsl #16
     9f4:	55000100 	strpl	r0, [r0, #-256]	; 0xffffff00
	...
     a00:	02a80001 	adceq	r0, r8, #1, 0
     a04:	02b80000 	adcseq	r0, r8, #0, 0
     a08:	00040000 	andeq	r0, r4, r0
     a0c:	9f01f40a 	svcls	0x0001f40a
	...
     a18:	02a80001 	adceq	r0, r8, #1, 0
     a1c:	02b80000 	adcseq	r0, r8, #0, 0
     a20:	00010000 	andeq	r0, r1, r0
     a24:	00000055 	andeq	r0, r0, r5, asr r0
     a28:	00000000 	andeq	r0, r0, r0
     a2c:	06060400 	streq	r0, [r6], -r0, lsl #8
     a30:	0002a800 	andeq	sl, r2, r0, lsl #16
     a34:	0002a800 	andeq	sl, r2, r0, lsl #16
     a38:	0a000400 	beq	1a40 <__code_start__-0x65c0>
     a3c:	a89f01f4 	ldmge	pc, {r2, r4, r5, r6, r7, r8}	; <UNPREDICTABLE>
     a40:	b8000002 	stmdalt	r0, {r1}
     a44:	04000002 	streq	r0, [r0], #-2
     a48:	01e00a00 	mvneq	r0, r0, lsl #20
     a4c:	0000009f 	muleq	r0, pc, r0	; <UNPREDICTABLE>
     a50:	00000000 	andeq	r0, r0, r0
     a54:	a8000400 	stmdage	r0, {sl}
     a58:	b8000002 	stmdalt	r0, {r1}
     a5c:	01000002 	tsteq	r0, r2
     a60:	00005500 	andeq	r5, r0, r0, lsl #10
	...
     a6c:	000002ac 	andeq	r0, r0, ip, lsr #5
     a70:	000002b0 			; <UNDEFINED> instruction: 0x000002b0
     a74:	00540001 	subseq	r0, r4, r1
     a78:	00000000 	andeq	r0, r0, r0
     a7c:	04000000 	streq	r0, [r0], #-0
     a80:	0002b800 	andeq	fp, r2, r0, lsl #16
     a84:	0002d000 	andeq	sp, r2, r0
     a88:	08000300 	stmdaeq	r0, {r8, r9}
     a8c:	00009f73 	andeq	r9, r0, r3, ror pc
     a90:	00000000 	andeq	r0, r0, r0
     a94:	00080000 	andeq	r0, r8, r0
     a98:	000002b8 			; <UNDEFINED> instruction: 0x000002b8
     a9c:	000002d8 	ldrdeq	r0, [r0], -r8
     aa0:	280c0006 	stmdacs	ip, {r1, r2}
     aa4:	9f202000 	svcls	0x00202000
	...
     ab0:	02c00000 	sbceq	r0, r0, #0, 0
     ab4:	02d00000 	sbcseq	r0, r0, #0, 0
     ab8:	00010000 	andeq	r0, r1, r0
     abc:	00000055 	andeq	r0, r0, r5, asr r0
     ac0:	00000000 	andeq	r0, r0, r0
     ac4:	c0000100 	andgt	r0, r0, r0, lsl #2
     ac8:	d0000002 	andle	r0, r0, r2
     acc:	03000002 	movweq	r0, #2
     ad0:	9f730800 	svcls	0x00730800
	...
     adc:	02c00001 	sbceq	r0, r0, #1, 0
     ae0:	02d00000 	sbcseq	r0, r0, #0, 0
     ae4:	00010000 	andeq	r0, r1, r0
     ae8:	00000055 	andeq	r0, r0, r5, asr r0
     aec:	00000000 	andeq	r0, r0, r0
     af0:	06060400 	streq	r0, [r6], -r0, lsl #8
     af4:	0002c000 	andeq	ip, r2, r0
     af8:	0002c000 	andeq	ip, r2, r0
     afc:	08000300 	stmdaeq	r0, {r8, r9}
     b00:	02c09f73 	sbceq	r9, r0, #460	; 0x1cc
     b04:	02d00000 	sbcseq	r0, r0, #0, 0
     b08:	00030000 	andeq	r0, r3, r0
     b0c:	009f5f08 	addseq	r5, pc, r8, lsl #30
     b10:	00000000 	andeq	r0, r0, r0
     b14:	04000000 	streq	r0, [r0], #-0
     b18:	0002c000 	andeq	ip, r2, r0
     b1c:	0002d000 	andeq	sp, r2, r0
     b20:	55000100 	strpl	r0, [r0, #-256]	; 0xffffff00
	...
     b2c:	02c40000 	sbceq	r0, r4, #0, 0
     b30:	02c80000 	sbceq	r0, r8, #0, 0
     b34:	00010000 	andeq	r0, r1, r0
     b38:	00000054 	andeq	r0, r0, r4, asr r0
     b3c:	00000000 	andeq	r0, r0, r0
     b40:	04000400 	streq	r0, [r0], #-1024	; 0xfffffc00
     b44:	1c000004 	stcne	0, cr0, [r0], {4}
     b48:	04000004 	streq	r0, [r0], #-4
     b4c:	01f40a00 	mvnseq	r0, r0, lsl #20
     b50:	0000009f 	muleq	r0, pc, r0	; <UNPREDICTABLE>
     b54:	00000000 	andeq	r0, r0, r0
     b58:	0c000000 	stceq	0, cr0, [r0], {-0}
     b5c:	1c000004 	stcne	0, cr0, [r0], {4}
     b60:	01000004 	tsteq	r0, r4
     b64:	00005500 	andeq	r5, r0, r0, lsl #10
     b68:	00000000 	andeq	r0, r0, r0
     b6c:	00010000 	andeq	r0, r1, r0
     b70:	0000040c 	andeq	r0, r0, ip, lsl #8
     b74:	0000041c 	andeq	r0, r0, ip, lsl r4
     b78:	f40a0004 	vst4.8	{d0-d3}, [sl], r4
     b7c:	00009f01 	andeq	r9, r0, r1, lsl #30
     b80:	00000000 	andeq	r0, r0, r0
     b84:	00010000 	andeq	r0, r1, r0
     b88:	0000040c 	andeq	r0, r0, ip, lsl #8
     b8c:	0000041c 	andeq	r0, r0, ip, lsl r4
     b90:	00550001 	subseq	r0, r5, r1
     b94:	00000000 	andeq	r0, r0, r0
     b98:	04000000 	streq	r0, [r0], #-0
     b9c:	0c000606 	stceq	6, cr0, [r0], {6}
     ba0:	0c000004 	stceq	0, cr0, [r0], {4}
     ba4:	04000004 	streq	r0, [r0], #-4
     ba8:	01f40a00 	mvnseq	r0, r0, lsl #20
     bac:	00040c9f 	muleq	r4, pc, ip	; <UNPREDICTABLE>
     bb0:	00041c00 	andeq	r1, r4, r0, lsl #24
     bb4:	0a000400 	beq	1bbc <__code_start__-0x6444>
     bb8:	009f01e0 	addseq	r0, pc, r0, ror #3
     bbc:	00000000 	andeq	r0, r0, r0
     bc0:	04000000 	streq	r0, [r0], #-0
     bc4:	00040c00 	andeq	r0, r4, r0, lsl #24
     bc8:	00041c00 	andeq	r1, r4, r0, lsl #24
     bcc:	55000100 	strpl	r0, [r0, #-256]	; 0xffffff00
	...
     bd8:	04100000 	ldreq	r0, [r0], #-0
     bdc:	04140000 	ldreq	r0, [r4], #-0
     be0:	00010000 	andeq	r0, r1, r0
     be4:	00000054 	andeq	r0, r0, r4, asr r0
	...
     bf4:	0002e000 	andeq	lr, r2, r0
     bf8:	00032000 	andeq	r2, r3, r0
     bfc:	5c000100 	stfpls	f0, [r0], {-0}
     c00:	00000320 	andeq	r0, r0, r0, lsr #6
     c04:	00000324 	andeq	r0, r0, r4, lsr #6
     c08:	017c0003 	cmneq	ip, r3
     c0c:	0003b89f 	muleq	r3, pc, r8	; <UNPREDICTABLE>
     c10:	0003e800 	andeq	lr, r3, r0, lsl #16
     c14:	5c000100 	stfpls	f0, [r0], {-0}
     c18:	000003e8 	andeq	r0, r0, r8, ror #7
     c1c:	000003f0 	strdeq	r0, [r0], -r0	; <UNPREDICTABLE>
     c20:	017c0003 	cmneq	ip, r3
     c24:	0000009f 	muleq	r0, pc, r0	; <UNPREDICTABLE>
     c28:	00000000 	andeq	r0, r0, r0
     c2c:	00000200 	andeq	r0, r0, r0, lsl #4
     c30:	0002e000 	andeq	lr, r2, r0
     c34:	00031c00 	andeq	r1, r3, r0, lsl #24
     c38:	71000800 	tstvc	r0, r0, lsl #16
     c3c:	26007c00 	strcs	r7, [r0], -r0, lsl #24
     c40:	b89f1a31 	ldmlt	pc, {r0, r4, r5, r9, fp, ip}	; <UNPREDICTABLE>
     c44:	e4000003 	str	r0, [r0], #-3
     c48:	08000003 	stmdaeq	r0, {r0, r1}
     c4c:	7c007100 	stfvcs	f7, [r0], {-0}
     c50:	1a312600 	bne	c4a458 <__bss_end__+0xc40468>
     c54:	0000009f 	muleq	r0, pc, r0	; <UNPREDICTABLE>
     c58:	00000000 	andeq	r0, r0, r0
     c5c:	b8000400 	stmdalt	r0, {sl}
     c60:	cc000003 	stcgt	0, cr0, [r0], {3}
     c64:	03000003 	movweq	r0, #3
     c68:	9f730800 	svcls	0x00730800
	...
     c74:	03b80008 			; <UNDEFINED> instruction: 0x03b80008
     c78:	03f00000 	mvnseq	r0, #0, 0
     c7c:	00060000 	andeq	r0, r6, r0
     c80:	20001c0c 	andcs	r1, r0, ip, lsl #24
     c84:	00009f20 	andeq	r9, r0, r0, lsr #30
	...
     c90:	000003bc 			; <UNDEFINED> instruction: 0x000003bc
     c94:	000003cc 	andeq	r0, r0, ip, asr #7
     c98:	00540001 	subseq	r0, r4, r1
     c9c:	00000000 	andeq	r0, r0, r0
     ca0:	01000000 	mrseq	r0, (UNDEF: 0)
     ca4:	0003bc00 	andeq	fp, r3, r0, lsl #24
     ca8:	0003cc00 	andeq	ip, r3, r0, lsl #24
     cac:	08000300 	stmdaeq	r0, {r8, r9}
     cb0:	00009f73 	andeq	r9, r0, r3, ror pc
     cb4:	00000000 	andeq	r0, r0, r0
     cb8:	00010000 	andeq	r0, r1, r0
     cbc:	000003bc 			; <UNDEFINED> instruction: 0x000003bc
     cc0:	000003cc 	andeq	r0, r0, ip, asr #7
     cc4:	00540001 	subseq	r0, r4, r1
     cc8:	00000000 	andeq	r0, r0, r0
     ccc:	04000000 	streq	r0, [r0], #-0
     cd0:	bc000606 	stclt	6, cr0, [r0], {6}
     cd4:	bc000003 	stclt	0, cr0, [r0], {3}
     cd8:	03000003 	movweq	r0, #3
     cdc:	9f730800 	svcls	0x00730800
     ce0:	000003bc 			; <UNDEFINED> instruction: 0x000003bc
     ce4:	000003cc 	andeq	r0, r0, ip, asr #7
     ce8:	5f080003 	svcpl	0x00080003
     cec:	0000009f 	muleq	r0, pc, r0	; <UNPREDICTABLE>
     cf0:	00000000 	andeq	r0, r0, r0
     cf4:	bc000400 	cfstrslt	mvf0, [r0], {-0}
     cf8:	cc000003 	stcgt	0, cr0, [r0], {3}
     cfc:	01000003 	tsteq	r0, r3
     d00:	00005400 	andeq	r5, r0, r0, lsl #8
	...
     d0c:	000003c0 	andeq	r0, r0, r0, asr #7
     d10:	000003c4 	andeq	r0, r0, r4, asr #7
     d14:	005e0001 	subseq	r0, lr, r1
     d18:	00000000 	andeq	r0, r0, r0
     d1c:	03000000 	movweq	r0, #0
     d20:	0002f000 	andeq	pc, r2, r0
     d24:	00030400 	andeq	r0, r3, r0, lsl #8
     d28:	0a000400 	beq	1d30 <__code_start__-0x62d0>
     d2c:	009f01f4 			; <UNDEFINED> instruction: 0x009f01f4
     d30:	00000000 	andeq	r0, r0, r0
     d34:	07000000 	streq	r0, [r0, -r0]
     d38:	0002f000 	andeq	pc, r2, r0
     d3c:	00032400 	andeq	r2, r3, r0, lsl #8
     d40:	0c000600 	stceq	6, cr0, [r0], {-0}
     d44:	2020001c 	eorcs	r0, r0, ip, lsl r0
     d48:	0000009f 	muleq	r0, pc, r0	; <UNPREDICTABLE>
     d4c:	00000000 	andeq	r0, r0, r0
     d50:	f4000000 	vst4.8	{d0-d3}, [r0], r0
     d54:	04000002 	streq	r0, [r0], #-2
     d58:	01000003 	tsteq	r0, r3
     d5c:	00005400 	andeq	r5, r0, r0, lsl #8
     d60:	00000000 	andeq	r0, r0, r0
     d64:	00010000 	andeq	r0, r1, r0
     d68:	000002f4 	strdeq	r0, [r0], -r4
     d6c:	00000304 	andeq	r0, r0, r4, lsl #6
     d70:	f40a0004 	vst4.8	{d0-d3}, [sl], r4
     d74:	00009f01 	andeq	r9, r0, r1, lsl #30
     d78:	00000000 	andeq	r0, r0, r0
     d7c:	00010000 	andeq	r0, r1, r0
     d80:	000002f4 	strdeq	r0, [r0], -r4
     d84:	00000304 	andeq	r0, r0, r4, lsl #6
     d88:	00540001 	subseq	r0, r4, r1
     d8c:	00000000 	andeq	r0, r0, r0
     d90:	04000000 	streq	r0, [r0], #-0
     d94:	f4000606 	vst1.8	{d0-d2}, [r0], r6
     d98:	f4000002 	vst4.8	{d0-d3}, [r0], r2
     d9c:	04000002 	streq	r0, [r0], #-2
     da0:	01f40a00 	mvnseq	r0, r0, lsl #20
     da4:	0002f49f 	muleq	r2, pc, r4	; <UNPREDICTABLE>
     da8:	00030400 	andeq	r0, r3, r0, lsl #8
     dac:	0a000400 	beq	1db4 <__code_start__-0x624c>
     db0:	009f01e0 	addseq	r0, pc, r0, ror #3
     db4:	00000000 	andeq	r0, r0, r0
     db8:	04000000 	streq	r0, [r0], #-0
     dbc:	0002f400 	andeq	pc, r2, r0, lsl #8
     dc0:	00030400 	andeq	r0, r3, r0, lsl #8
     dc4:	54000100 	strpl	r0, [r0], #-256	; 0xffffff00
	...
     dd0:	02f80000 	rscseq	r0, r8, #0, 0
     dd4:	02fc0000 	rscseq	r0, ip, #0, 0
     dd8:	00010000 	andeq	r0, r1, r0
     ddc:	0000005e 	andeq	r0, r0, lr, asr r0
     de0:	00000000 	andeq	r0, r0, r0
     de4:	04000400 	streq	r0, [r0], #-1024	; 0xfffffc00
     de8:	1c000003 	stcne	0, cr0, [r0], {3}
     dec:	03000003 	movweq	r0, #3
     df0:	9f730800 	svcls	0x00730800
	...
     dfc:	03040008 	movweq	r0, #16392	; 0x4008
     e00:	03240000 			; <UNDEFINED> instruction: 0x03240000
     e04:	00060000 	andeq	r0, r6, r0
     e08:	2000280c 	andcs	r2, r0, ip, lsl #16
     e0c:	00009f20 	andeq	r9, r0, r0, lsr #30
	...
     e18:	0000030c 	andeq	r0, r0, ip, lsl #6
     e1c:	0000031c 	andeq	r0, r0, ip, lsl r3
     e20:	00540001 	subseq	r0, r4, r1
     e24:	00000000 	andeq	r0, r0, r0
     e28:	01000000 	mrseq	r0, (UNDEF: 0)
     e2c:	00030c00 	andeq	r0, r3, r0, lsl #24
     e30:	00031c00 	andeq	r1, r3, r0, lsl #24
     e34:	08000300 	stmdaeq	r0, {r8, r9}
     e38:	00009f73 	andeq	r9, r0, r3, ror pc
     e3c:	00000000 	andeq	r0, r0, r0
     e40:	00010000 	andeq	r0, r1, r0
     e44:	0000030c 	andeq	r0, r0, ip, lsl #6
     e48:	0000031c 	andeq	r0, r0, ip, lsl r3
     e4c:	00540001 	subseq	r0, r4, r1
     e50:	00000000 	andeq	r0, r0, r0
     e54:	04000000 	streq	r0, [r0], #-0
     e58:	0c000606 	stceq	6, cr0, [r0], {6}
     e5c:	0c000003 	stceq	0, cr0, [r0], {3}
     e60:	03000003 	movweq	r0, #3
     e64:	9f730800 	svcls	0x00730800
     e68:	0000030c 	andeq	r0, r0, ip, lsl #6
     e6c:	0000031c 	andeq	r0, r0, ip, lsl r3
     e70:	5f080003 	svcpl	0x00080003
     e74:	0000009f 	muleq	r0, pc, r0	; <UNPREDICTABLE>
     e78:	00000000 	andeq	r0, r0, r0
     e7c:	0c000400 	cfstrseq	mvf0, [r0], {-0}
     e80:	1c000003 	stcne	0, cr0, [r0], {3}
     e84:	01000003 	tsteq	r0, r3
     e88:	00005400 	andeq	r5, r0, r0, lsl #8
	...
     e94:	00000310 	andeq	r0, r0, r0, lsl r3
     e98:	00000314 	andeq	r0, r0, r4, lsl r3
     e9c:	005e0001 	subseq	r0, lr, r1
     ea0:	00000000 	andeq	r0, r0, r0
     ea4:	04000000 	streq	r0, [r0], #-0
     ea8:	0003cc00 	andeq	ip, r3, r0, lsl #24
     eac:	0003e400 	andeq	lr, r3, r0, lsl #8
     eb0:	0a000400 	beq	1eb8 <__code_start__-0x6148>
     eb4:	009f01f4 			; <UNDEFINED> instruction: 0x009f01f4
     eb8:	00000000 	andeq	r0, r0, r0
     ebc:	08000000 	stmdaeq	r0, {}	; <UNPREDICTABLE>
     ec0:	0003cc00 	andeq	ip, r3, r0, lsl #24
     ec4:	0003f000 	andeq	pc, r3, r0
     ec8:	0c000600 	stceq	6, cr0, [r0], {-0}
     ecc:	20200028 	eorcs	r0, r0, r8, lsr #32
     ed0:	0000009f 	muleq	r0, pc, r0	; <UNPREDICTABLE>
     ed4:	00000000 	andeq	r0, r0, r0
     ed8:	d4000000 	strle	r0, [r0], #-0
     edc:	e4000003 	str	r0, [r0], #-3
     ee0:	01000003 	tsteq	r0, r3
     ee4:	00005400 	andeq	r5, r0, r0, lsl #8
     ee8:	00000000 	andeq	r0, r0, r0
     eec:	00010000 	andeq	r0, r1, r0
     ef0:	000003d4 	ldrdeq	r0, [r0], -r4
     ef4:	000003e4 	andeq	r0, r0, r4, ror #7
     ef8:	f40a0004 	vst4.8	{d0-d3}, [sl], r4
     efc:	00009f01 	andeq	r9, r0, r1, lsl #30
     f00:	00000000 	andeq	r0, r0, r0
     f04:	00010000 	andeq	r0, r1, r0
     f08:	000003d4 	ldrdeq	r0, [r0], -r4
     f0c:	000003e4 	andeq	r0, r0, r4, ror #7
     f10:	00540001 	subseq	r0, r4, r1
     f14:	00000000 	andeq	r0, r0, r0
     f18:	04000000 	streq	r0, [r0], #-0
     f1c:	d4000606 	strle	r0, [r0], #-1542	; 0xfffff9fa
     f20:	d4000003 	strle	r0, [r0], #-3
     f24:	04000003 	streq	r0, [r0], #-3
     f28:	01f40a00 	mvnseq	r0, r0, lsl #20
     f2c:	0003d49f 	muleq	r3, pc, r4	; <UNPREDICTABLE>
     f30:	0003e400 	andeq	lr, r3, r0, lsl #8
     f34:	0a000400 	beq	1f3c <__code_start__-0x60c4>
     f38:	009f01e0 	addseq	r0, pc, r0, ror #3
     f3c:	00000000 	andeq	r0, r0, r0
     f40:	04000000 	streq	r0, [r0], #-0
     f44:	0003d400 	andeq	sp, r3, r0, lsl #8
     f48:	0003e400 	andeq	lr, r3, r0, lsl #8
     f4c:	54000100 	strpl	r0, [r0], #-256	; 0xffffff00
	...
     f58:	03d80000 	bicseq	r0, r8, #0, 0
     f5c:	03dc0000 	bicseq	r0, ip, #0, 0
     f60:	00010000 	andeq	r0, r1, r0
     f64:	0000005e 	andeq	r0, r0, lr, asr r0
	...
     f74:	00032800 	andeq	r2, r3, r0, lsl #16
     f78:	00036c00 	andeq	r6, r3, r0, lsl #24
     f7c:	51000100 	mrspl	r0, (UNDEF: 16)
     f80:	0000036c 	andeq	r0, r0, ip, ror #6
     f84:	00000370 	andeq	r0, r0, r0, ror r3
     f88:	01710003 	cmneq	r1, r3
     f8c:	0003709f 	muleq	r3, pc, r0	; <UNPREDICTABLE>
     f90:	0003b000 	andeq	fp, r3, r0
     f94:	51000100 	mrspl	r0, (UNDEF: 16)
     f98:	000003b0 			; <UNDEFINED> instruction: 0x000003b0
     f9c:	000003b8 			; <UNDEFINED> instruction: 0x000003b8
     fa0:	01710003 	cmneq	r1, r3
     fa4:	0000009f 	muleq	r0, pc, r0	; <UNPREDICTABLE>
     fa8:	00000000 	andeq	r0, r0, r0
     fac:	01000100 	mrseq	r0, (UNDEF: 16)
     fb0:	00032800 	andeq	r2, r3, r0, lsl #16
     fb4:	00033c00 	andeq	r3, r3, r0, lsl #24
     fb8:	73000800 	movwvc	r0, #2048	; 0x800
     fbc:	26007100 	strcs	r7, [r0], -r0, lsl #2
     fc0:	709f1a31 	addsvc	r1, pc, r1, lsr sl	; <UNPREDICTABLE>
     fc4:	80000003 	andhi	r0, r0, r3
     fc8:	08000003 	stmdaeq	r0, {r0, r1}
     fcc:	71007300 	mrsvc	r7, LR_irq
     fd0:	1a312600 	bne	c4a7d8 <__bss_end__+0xc407e8>
     fd4:	0000009f 	muleq	r0, pc, r0	; <UNPREDICTABLE>
     fd8:	00000000 	andeq	r0, r0, r0
     fdc:	80000300 	andhi	r0, r0, r0, lsl #6
     fe0:	94000003 	strls	r0, [r0], #-3
     fe4:	03000003 	movweq	r0, #3
     fe8:	9f730800 	svcls	0x00730800
	...
     ff4:	03800007 	orreq	r0, r0, #7, 0
     ff8:	03b80000 			; <UNDEFINED> instruction: 0x03b80000
     ffc:	00060000 	andeq	r0, r6, r0
    1000:	20001c0c 	andcs	r1, r0, ip, lsl #24
    1004:	00009f20 	andeq	r9, r0, r0, lsr #30
	...
    1010:	00000384 	andeq	r0, r0, r4, lsl #7
    1014:	00000394 	muleq	r0, r4, r3
    1018:	005e0001 	subseq	r0, lr, r1
    101c:	00000000 	andeq	r0, r0, r0
    1020:	01000000 	mrseq	r0, (UNDEF: 0)
    1024:	00038400 	andeq	r8, r3, r0, lsl #8
    1028:	00039400 	andeq	r9, r3, r0, lsl #8
    102c:	08000300 	stmdaeq	r0, {r8, r9}
    1030:	00009f73 	andeq	r9, r0, r3, ror pc
    1034:	00000000 	andeq	r0, r0, r0
    1038:	00010000 	andeq	r0, r1, r0
    103c:	00000384 	andeq	r0, r0, r4, lsl #7
    1040:	00000394 	muleq	r0, r4, r3
    1044:	005e0001 	subseq	r0, lr, r1
    1048:	00000000 	andeq	r0, r0, r0
    104c:	04000000 	streq	r0, [r0], #-0
    1050:	84000606 	strhi	r0, [r0], #-1542	; 0xfffff9fa
    1054:	84000003 	strhi	r0, [r0], #-3
    1058:	03000003 	movweq	r0, #3
    105c:	9f730800 	svcls	0x00730800
    1060:	00000384 	andeq	r0, r0, r4, lsl #7
    1064:	00000394 	muleq	r0, r4, r3
    1068:	5f080003 	svcpl	0x00080003
    106c:	0000009f 	muleq	r0, pc, r0	; <UNPREDICTABLE>
    1070:	00000000 	andeq	r0, r0, r0
    1074:	84000400 	strhi	r0, [r0], #-1024	; 0xfffffc00
    1078:	94000003 	strls	r0, [r0], #-3
    107c:	01000003 	tsteq	r0, r3
    1080:	00005e00 	andeq	r5, r0, r0, lsl #28
	...
    108c:	00000388 	andeq	r0, r0, r8, lsl #7
    1090:	0000038c 	andeq	r0, r0, ip, lsl #7
    1094:	005c0001 	subseq	r0, ip, r1
    1098:	00000000 	andeq	r0, r0, r0
    109c:	03000000 	movweq	r0, #0
    10a0:	00033c00 	andeq	r3, r3, r0, lsl #24
    10a4:	00035000 	andeq	r5, r3, r0
    10a8:	0a000400 	beq	20b0 <__code_start__-0x5f50>
    10ac:	009f01f4 			; <UNDEFINED> instruction: 0x009f01f4
    10b0:	00000000 	andeq	r0, r0, r0
    10b4:	07000000 	streq	r0, [r0, -r0]
    10b8:	00033c00 	andeq	r3, r3, r0, lsl #24
    10bc:	00037000 	andeq	r7, r3, r0
    10c0:	0c000600 	stceq	6, cr0, [r0], {-0}
    10c4:	2020001c 	eorcs	r0, r0, ip, lsl r0
    10c8:	0000009f 	muleq	r0, pc, r0	; <UNPREDICTABLE>
    10cc:	00000000 	andeq	r0, r0, r0
    10d0:	40000000 	andmi	r0, r0, r0
    10d4:	50000003 	andpl	r0, r0, r3
    10d8:	01000003 	tsteq	r0, r3
    10dc:	00005e00 	andeq	r5, r0, r0, lsl #28
    10e0:	00000000 	andeq	r0, r0, r0
    10e4:	00010000 	andeq	r0, r1, r0
    10e8:	00000340 	andeq	r0, r0, r0, asr #6
    10ec:	00000350 	andeq	r0, r0, r0, asr r3
    10f0:	f40a0004 	vst4.8	{d0-d3}, [sl], r4
    10f4:	00009f01 	andeq	r9, r0, r1, lsl #30
    10f8:	00000000 	andeq	r0, r0, r0
    10fc:	00010000 	andeq	r0, r1, r0
    1100:	00000340 	andeq	r0, r0, r0, asr #6
    1104:	00000350 	andeq	r0, r0, r0, asr r3
    1108:	005e0001 	subseq	r0, lr, r1
    110c:	00000000 	andeq	r0, r0, r0
    1110:	04000000 	streq	r0, [r0], #-0
    1114:	40000606 	andmi	r0, r0, r6, lsl #12
    1118:	40000003 	andmi	r0, r0, r3
    111c:	04000003 	streq	r0, [r0], #-3
    1120:	01f40a00 	mvnseq	r0, r0, lsl #20
    1124:	0003409f 	muleq	r3, pc, r0	; <UNPREDICTABLE>
    1128:	00035000 	andeq	r5, r3, r0
    112c:	0a000400 	beq	2134 <__code_start__-0x5ecc>
    1130:	009f01e0 	addseq	r0, pc, r0, ror #3
    1134:	00000000 	andeq	r0, r0, r0
    1138:	04000000 	streq	r0, [r0], #-0
    113c:	00034000 	andeq	r4, r3, r0
    1140:	00035000 	andeq	r5, r3, r0
    1144:	5e000100 	adfpls	f0, f0, f0
	...
    1150:	03440000 	movteq	r0, #16384	; 0x4000
    1154:	03480000 	movteq	r0, #32768	; 0x8000
    1158:	00010000 	andeq	r0, r1, r0
    115c:	0000005c 	andeq	r0, r0, ip, asr r0
    1160:	00000000 	andeq	r0, r0, r0
    1164:	50000400 	andpl	r0, r0, r0, lsl #8
    1168:	68000003 	stmdavs	r0, {r0, r1}
    116c:	03000003 	movweq	r0, #3
    1170:	9f730800 	svcls	0x00730800
	...
    117c:	03500008 	cmpeq	r0, #8, 0
    1180:	03700000 	cmneq	r0, #0, 0
    1184:	00060000 	andeq	r0, r6, r0
    1188:	2000280c 	andcs	r2, r0, ip, lsl #16
    118c:	00009f20 	andeq	r9, r0, r0, lsr #30
	...
    1198:	00000358 	andeq	r0, r0, r8, asr r3
    119c:	00000368 	andeq	r0, r0, r8, ror #6
    11a0:	005e0001 	subseq	r0, lr, r1
    11a4:	00000000 	andeq	r0, r0, r0
    11a8:	01000000 	mrseq	r0, (UNDEF: 0)
    11ac:	00035800 	andeq	r5, r3, r0, lsl #16
    11b0:	00036800 	andeq	r6, r3, r0, lsl #16
    11b4:	08000300 	stmdaeq	r0, {r8, r9}
    11b8:	00009f73 	andeq	r9, r0, r3, ror pc
    11bc:	00000000 	andeq	r0, r0, r0
    11c0:	00010000 	andeq	r0, r1, r0
    11c4:	00000358 	andeq	r0, r0, r8, asr r3
    11c8:	00000368 	andeq	r0, r0, r8, ror #6
    11cc:	005e0001 	subseq	r0, lr, r1
    11d0:	00000000 	andeq	r0, r0, r0
    11d4:	04000000 	streq	r0, [r0], #-0
    11d8:	58000606 	stmdapl	r0, {r1, r2, r9, sl}
    11dc:	58000003 	stmdapl	r0, {r0, r1}
    11e0:	03000003 	movweq	r0, #3
    11e4:	9f730800 	svcls	0x00730800
    11e8:	00000358 	andeq	r0, r0, r8, asr r3
    11ec:	00000368 	andeq	r0, r0, r8, ror #6
    11f0:	5f080003 	svcpl	0x00080003
    11f4:	0000009f 	muleq	r0, pc, r0	; <UNPREDICTABLE>
    11f8:	00000000 	andeq	r0, r0, r0
    11fc:	58000400 	stmdapl	r0, {sl}
    1200:	68000003 	stmdavs	r0, {r0, r1}
    1204:	01000003 	tsteq	r0, r3
    1208:	00005e00 	andeq	r5, r0, r0, lsl #28
	...
    1214:	0000035c 	andeq	r0, r0, ip, asr r3
    1218:	00000360 	andeq	r0, r0, r0, ror #6
    121c:	005c0001 	subseq	r0, ip, r1
    1220:	00000000 	andeq	r0, r0, r0
    1224:	04000000 	streq	r0, [r0], #-0
    1228:	00039400 	andeq	r9, r3, r0, lsl #8
    122c:	0003ac00 	andeq	sl, r3, r0, lsl #24
    1230:	0a000400 	beq	2238 <__code_start__-0x5dc8>
    1234:	009f01f4 			; <UNDEFINED> instruction: 0x009f01f4
    1238:	00000000 	andeq	r0, r0, r0
    123c:	08000000 	stmdaeq	r0, {}	; <UNPREDICTABLE>
    1240:	00039400 	andeq	r9, r3, r0, lsl #8
    1244:	0003b800 	andeq	fp, r3, r0, lsl #16
    1248:	0c000600 	stceq	6, cr0, [r0], {-0}
    124c:	20200028 	eorcs	r0, r0, r8, lsr #32
    1250:	0000009f 	muleq	r0, pc, r0	; <UNPREDICTABLE>
    1254:	00000000 	andeq	r0, r0, r0
    1258:	9c000000 	stcls	0, cr0, [r0], {-0}
    125c:	ac000003 	stcge	0, cr0, [r0], {3}
    1260:	01000003 	tsteq	r0, r3
    1264:	00005e00 	andeq	r5, r0, r0, lsl #28
    1268:	00000000 	andeq	r0, r0, r0
    126c:	00010000 	andeq	r0, r1, r0
    1270:	0000039c 	muleq	r0, ip, r3
    1274:	000003ac 	andeq	r0, r0, ip, lsr #7
    1278:	f40a0004 	vst4.8	{d0-d3}, [sl], r4
    127c:	00009f01 	andeq	r9, r0, r1, lsl #30
    1280:	00000000 	andeq	r0, r0, r0
    1284:	00010000 	andeq	r0, r1, r0
    1288:	0000039c 	muleq	r0, ip, r3
    128c:	000003ac 	andeq	r0, r0, ip, lsr #7
    1290:	005e0001 	subseq	r0, lr, r1
    1294:	00000000 	andeq	r0, r0, r0
    1298:	04000000 	streq	r0, [r0], #-0
    129c:	9c000606 	stcls	6, cr0, [r0], {6}
    12a0:	9c000003 	stcls	0, cr0, [r0], {3}
    12a4:	04000003 	streq	r0, [r0], #-3
    12a8:	01f40a00 	mvnseq	r0, r0, lsl #20
    12ac:	00039c9f 	muleq	r3, pc, ip	; <UNPREDICTABLE>
    12b0:	0003ac00 	andeq	sl, r3, r0, lsl #24
    12b4:	0a000400 	beq	22bc <__code_start__-0x5d44>
    12b8:	009f01e0 	addseq	r0, pc, r0, ror #3
    12bc:	00000000 	andeq	r0, r0, r0
    12c0:	04000000 	streq	r0, [r0], #-0
    12c4:	00039c00 	andeq	r9, r3, r0, lsl #24
    12c8:	0003ac00 	andeq	sl, r3, r0, lsl #24
    12cc:	5e000100 	adfpls	f0, f0, f0
	...
    12d8:	03a00000 	moveq	r0, #0, 0
    12dc:	03a40000 			; <UNDEFINED> instruction: 0x03a40000
    12e0:	00010000 	andeq	r0, r1, r0
    12e4:	0000005c 	andeq	r0, r0, ip, asr r0
	...
    12f0:	00023400 	andeq	r3, r2, r0, lsl #8
    12f4:	00024b00 	andeq	r4, r2, r0, lsl #22
    12f8:	50000100 	andpl	r0, r0, r0, lsl #2
    12fc:	0000024b 	andeq	r0, r0, fp, asr #4
    1300:	0000027c 	andeq	r0, r0, ip, ror r2
    1304:	01f30004 	mvnseq	r0, r4
    1308:	00009f50 	andeq	r9, r0, r0, asr pc
	...
    1314:	02340000 	eorseq	r0, r4, #0, 0
    1318:	024b0000 	subeq	r0, fp, #0, 0
    131c:	00010000 	andeq	r0, r1, r0
    1320:	00024b51 	andeq	r4, r2, r1, asr fp
    1324:	00027c00 	andeq	r7, r2, r0, lsl #24
    1328:	55000100 	strpl	r0, [r0, #-256]	; 0xffffff00
	...
    1338:	00000258 	andeq	r0, r0, r8, asr r2
    133c:	00000263 	andeq	r0, r0, r3, ror #4
    1340:	63500001 	cmpvs	r0, #1, 0
    1344:	7c000002 	stcvc	0, cr0, [r0], {2}
    1348:	01000002 	tsteq	r0, r2
    134c:	00005400 	andeq	r5, r0, r0, lsl #8
    1350:	00000000 	andeq	r0, r0, r0
    1354:	00010000 	andeq	r0, r1, r0
    1358:	0000024c 	andeq	r0, r0, ip, asr #4
    135c:	0000027c 	andeq	r0, r0, ip, ror r2
    1360:	00570001 	subseq	r0, r7, r1
	...
    1378:	48000000 	stmdami	r0, {}	; <UNPREDICTABLE>
    137c:	01000001 	tsteq	r0, r1
    1380:	01485000 	mrseq	r5, (UNDEF: 72)
    1384:	014b0000 	mrseq	r0, (UNDEF: 75)
    1388:	00030000 	andeq	r0, r3, r0
    138c:	4b9f7870 	blmi	fe7df554 <__bss_end__+0xfe7d5564>
    1390:	4c000001 	stcmi	0, cr0, [r0], {1}
    1394:	04000001 	streq	r0, [r0], #-1
    1398:	5001f300 	andpl	pc, r1, r0, lsl #6
    139c:	00014c9f 	muleq	r1, pc, ip	; <UNPREDICTABLE>
    13a0:	00022800 	andeq	r2, r2, r0, lsl #16
    13a4:	50000100 	andpl	r0, r0, r0, lsl #2
    13a8:	00000228 	andeq	r0, r0, r8, lsr #4
    13ac:	0000022b 	andeq	r0, r0, fp, lsr #4
    13b0:	78700003 	ldmdavc	r0!, {r0, r1}^
    13b4:	00022b9f 	muleq	r2, pc, fp	; <UNPREDICTABLE>
    13b8:	00023400 	andeq	r3, r2, r0, lsl #8
    13bc:	f3000400 	vshl.u8	d0, d0, d0
    13c0:	009f5001 	addseq	r5, pc, r1
    13c4:	00000000 	andeq	r0, r0, r0
    13c8:	03000000 	movweq	r0, #0
    13cc:	00000000 	andeq	r0, r0, r0
    13d0:	2c000000 	stccs	0, cr0, [r0], {-0}
    13d4:	02000000 	andeq	r0, r0, #0, 0
    13d8:	f49f3000 			; <UNDEFINED> instruction: 0xf49f3000
    13dc:	34000001 	strcc	r0, [r0], #-1
    13e0:	02000002 	andeq	r0, r0, #2, 0
    13e4:	009f3000 	addseq	r3, pc, r0
	...
    13fc:	34000000 	strcc	r0, [r0], #-0
    1400:	38000000 	stmdacc	r0, {}	; <UNPREDICTABLE>
    1404:	09000000 	stmdbeq	r0, {}	; <UNPREDICTABLE>
    1408:	01935700 	orrseq	r5, r3, r0, lsl #14
    140c:	0193097c 	orrseq	r0, r3, ip, ror r9
    1410:	00380193 	mlaseq	r8, r3, r1, r0
    1414:	003c0000 	eorseq	r0, ip, r0
    1418:	000a0000 	andeq	r0, sl, r0
    141c:	7c019357 	stcvc	3, cr9, [r1], {87}	; 0x57
    1420:	55019309 	strpl	r9, [r1, #-777]	; 0xfffffcf7
    1424:	003c0193 	mlaseq	ip, r3, r1, r0
    1428:	00840000 	addeq	r0, r4, r0
    142c:	00090000 	andeq	r0, r9, r0
    1430:	58019357 	stmdapl	r1, {r0, r1, r2, r4, r6, r8, r9, ip, pc}
    1434:	93550193 	cmpls	r5, #-1073741788	; 0xc0000024
    1438:	00008401 	andeq	r8, r0, r1, lsl #8
    143c:	0000cc00 	andeq	ip, r0, r0, lsl #24
    1440:	57000800 	strpl	r0, [r0, -r0, lsl #16]
    1444:	01930193 			; <UNDEFINED> instruction: 0x01930193
    1448:	cc019355 	stcgt	3, cr9, [r1], {85}	; 0x55
    144c:	10000000 	andne	r0, r0, r0
    1450:	09000001 	stmdbeq	r0, {r0}
    1454:	93087c00 	movwls	r7, #35840	; 0x8c00
    1458:	55019301 	strpl	r9, [r1, #-769]	; 0xfffffcff
    145c:	014c0193 			; <UNDEFINED> instruction: 0x014c0193
    1460:	01840000 	orreq	r0, r4, r0
    1464:	00090000 	andeq	r0, r9, r0
    1468:	0193087c 	orrseq	r0, r3, ip, ror r8
    146c:	93550193 	cmpls	r5, #-1073741788	; 0xc0000024
    1470:	00018401 	andeq	r8, r1, r1, lsl #8
    1474:	0001bc00 	andeq	fp, r1, r0, lsl #24
    1478:	57000800 	strpl	r0, [r0, -r0, lsl #16]
    147c:	01930193 			; <UNDEFINED> instruction: 0x01930193
    1480:	bc019355 	stclt	3, cr9, [r1], {85}	; 0x55
    1484:	f4000001 	vst4.8	{d0-d3}, [r0], r1
    1488:	09000001 	stmdbeq	r0, {r0}
    148c:	01935700 	orrseq	r5, r3, r0, lsl #14
    1490:	55019358 	strpl	r9, [r1, #-856]	; 0xfffffca8
    1494:	00000193 	muleq	r0, r3, r1
    1498:	00000000 	andeq	r0, r0, r0
    149c:	00010000 	andeq	r0, r1, r0
    14a0:	00380000 	eorseq	r0, r8, r0
    14a4:	01100000 	tsteq	r0, r0
    14a8:	00010000 	andeq	r0, r1, r0
    14ac:	00014c55 	andeq	r4, r1, r5, asr ip
    14b0:	0001f400 	andeq	pc, r1, r0, lsl #8
    14b4:	55000100 	strpl	r0, [r0, #-256]	; 0xffffff00
	...
    14c0:	00000001 	andeq	r0, r0, r1
    14c4:	00380000 	eorseq	r0, r8, r0
    14c8:	003c0000 	eorseq	r0, ip, r0
    14cc:	00020000 	andeq	r0, r2, r0
    14d0:	003c097c 	eorseq	r0, ip, ip, ror r9
    14d4:	00840000 	addeq	r0, r4, r0
    14d8:	00010000 	andeq	r0, r1, r0
    14dc:	0001bc58 	andeq	fp, r1, r8, asr ip
    14e0:	0001f400 	andeq	pc, r1, r0, lsl #8
    14e4:	58000100 	stmdapl	r0, {r8}
	...
    14f0:	00000001 	andeq	r0, r0, r1
    14f4:	00000000 	andeq	r0, r0, r0
    14f8:	00000038 	andeq	r0, r0, r8, lsr r0
    14fc:	000000cc 	andeq	r0, r0, ip, asr #1
    1500:	cc570001 	mrrcgt	0, 0, r0, r7, cr1
    1504:	10000000 	andne	r0, r0, r0
    1508:	02000001 	andeq	r0, r0, #1, 0
    150c:	4c087c00 	stcmi	12, cr7, [r8], {-0}
    1510:	84000001 	strhi	r0, [r0], #-1
    1514:	02000001 	andeq	r0, r0, #1, 0
    1518:	84087c00 	strhi	r7, [r8], #-3072	; 0xfffff400
    151c:	f4000001 	vst4.8	{d0-d3}, [r0], r1
    1520:	01000001 	tsteq	r0, r1
    1524:	00005700 	andeq	r5, r0, r0, lsl #14
    1528:	00000000 	andeq	r0, r0, r0
    152c:	00030000 	andeq	r0, r3, r0
    1530:	00000000 	andeq	r0, r0, r0
    1534:	00000038 	andeq	r0, r0, r8, lsr r0
    1538:	0000003c 	andeq	r0, r0, ip, lsr r0
    153c:	097c0002 	ldmdbeq	ip!, {r1}^
    1540:	0000003c 	andeq	r0, r0, ip, lsr r0
    1544:	00000084 	andeq	r0, r0, r4, lsl #1
    1548:	bc580001 	mrrclt	0, 0, r0, r8, cr1
    154c:	f4000001 	vst4.8	{d0-d3}, [r0], r1
    1550:	01000001 	tsteq	r0, r1
    1554:	00005800 	andeq	r5, r0, r0, lsl #16
    1558:	00000000 	andeq	r0, r0, r0
    155c:	00060000 	andeq	r0, r6, r0
	...
    1568:	00000038 	andeq	r0, r0, r8, lsr r0
    156c:	0000003c 	andeq	r0, r0, ip, lsr r0
    1570:	9f370002 	svcls	0x00370002
    1574:	0000003c 	andeq	r0, r0, ip, lsr r0
    1578:	0000007c 	andeq	r0, r0, ip, ror r0
    157c:	7c5e0001 	mrrcvc	0, 0, r0, lr, cr1
    1580:	80000000 	andhi	r0, r0, r0
    1584:	03000000 	movweq	r0, #0
    1588:	9f017e00 	svcls	0x00017e00
    158c:	000001bc 			; <UNDEFINED> instruction: 0x000001bc
    1590:	000001ec 	andeq	r0, r0, ip, ror #3
    1594:	ec5e0001 	mrrc	0, 0, r0, lr, cr1
    1598:	f4000001 	vst4.8	{d0-d3}, [r0], r1
    159c:	03000001 	movweq	r0, #1
    15a0:	9f017e00 	svcls	0x00017e00
	...
    15ac:	00000001 	andeq	r0, r0, r1
    15b0:	0000003c 	andeq	r0, r0, ip, lsr r0
    15b4:	00000078 	andeq	r0, r0, r8, ror r0
    15b8:	00780008 	rsbseq	r0, r8, r8
    15bc:	3126007e 			; <UNDEFINED> instruction: 0x3126007e
    15c0:	01bc9f1a 			; <UNDEFINED> instruction: 0x01bc9f1a
    15c4:	01e80000 	mvneq	r0, r0
    15c8:	00080000 	andeq	r0, r8, r0
    15cc:	007e0078 	rsbseq	r0, lr, r8, ror r0
    15d0:	9f1a3126 	svcls	0x001a3126
	...
    15dc:	01bc0004 			; <UNDEFINED> instruction: 0x01bc0004
    15e0:	01d00000 	bicseq	r0, r0, r0
    15e4:	00030000 	andeq	r0, r3, r0
    15e8:	009f7308 	addseq	r7, pc, r8, lsl #6
    15ec:	00000000 	andeq	r0, r0, r0
    15f0:	08000000 	stmdaeq	r0, {}	; <UNPREDICTABLE>
    15f4:	0001bc00 	andeq	fp, r1, r0, lsl #24
    15f8:	0001f400 	andeq	pc, r1, r0, lsl #8
    15fc:	0c000600 	stceq	6, cr0, [r0], {-0}
    1600:	2020001c 	eorcs	r0, r0, ip, lsl r0
    1604:	0000009f 	muleq	r0, pc, r0	; <UNPREDICTABLE>
    1608:	00000000 	andeq	r0, r0, r0
    160c:	c0000000 	andgt	r0, r0, r0
    1610:	d0000001 	andle	r0, r0, r1
    1614:	01000001 	tsteq	r0, r1
    1618:	00005900 	andeq	r5, r0, r0, lsl #18
    161c:	00000000 	andeq	r0, r0, r0
    1620:	00010000 	andeq	r0, r1, r0
    1624:	000001c0 	andeq	r0, r0, r0, asr #3
    1628:	000001d0 	ldrdeq	r0, [r0], -r0	; <UNPREDICTABLE>
    162c:	73080003 	movwvc	r0, #32771	; 0x8003
    1630:	0000009f 	muleq	r0, pc, r0	; <UNPREDICTABLE>
    1634:	00000000 	andeq	r0, r0, r0
    1638:	c0000100 	andgt	r0, r0, r0, lsl #2
    163c:	d0000001 	andle	r0, r0, r1
    1640:	01000001 	tsteq	r0, r1
    1644:	00005900 	andeq	r5, r0, r0, lsl #18
    1648:	00000000 	andeq	r0, r0, r0
    164c:	06040000 	streq	r0, [r4], -r0
    1650:	01c00006 	biceq	r0, r0, r6
    1654:	01c00000 	biceq	r0, r0, r0
    1658:	00030000 	andeq	r0, r3, r0
    165c:	c09f7308 	addsgt	r7, pc, r8, lsl #6
    1660:	d0000001 	andle	r0, r0, r1
    1664:	03000001 	movweq	r0, #1
    1668:	9f5f0800 	svcls	0x005f0800
	...
    1674:	01c00004 	biceq	r0, r0, r4
    1678:	01d00000 	bicseq	r0, r0, r0
    167c:	00010000 	andeq	r0, r1, r0
    1680:	00000059 	andeq	r0, r0, r9, asr r0
    1684:	00000000 	andeq	r0, r0, r0
    1688:	c4000000 	strgt	r0, [r0], #-0
    168c:	c8000001 	stmdagt	r0, {r0}
    1690:	01000001 	tsteq	r0, r1
    1694:	00005400 	andeq	r5, r0, r0, lsl #8
    1698:	00000000 	andeq	r0, r0, r0
    169c:	00030000 	andeq	r0, r3, r0
    16a0:	0000004c 	andeq	r0, r0, ip, asr #32
    16a4:	00000060 	andeq	r0, r0, r0, rrx
    16a8:	f40a0004 	vst4.8	{d0-d3}, [sl], r4
    16ac:	00009f01 	andeq	r9, r0, r1, lsl #30
    16b0:	00000000 	andeq	r0, r0, r0
    16b4:	00070000 	andeq	r0, r7, r0
    16b8:	0000004c 	andeq	r0, r0, ip, asr #32
    16bc:	00000080 	andeq	r0, r0, r0, lsl #1
    16c0:	1c0c0006 	stcne	0, cr0, [ip], {6}
    16c4:	9f202000 	svcls	0x00202000
	...
    16d0:	00500000 	subseq	r0, r0, r0
    16d4:	00600000 	rsbeq	r0, r0, r0
    16d8:	00010000 	andeq	r0, r1, r0
    16dc:	00000059 	andeq	r0, r0, r9, asr r0
    16e0:	00000000 	andeq	r0, r0, r0
    16e4:	50000100 	andpl	r0, r0, r0, lsl #2
    16e8:	60000000 	andvs	r0, r0, r0
    16ec:	04000000 	streq	r0, [r0], #-0
    16f0:	01f40a00 	mvnseq	r0, r0, lsl #20
    16f4:	0000009f 	muleq	r0, pc, r0	; <UNPREDICTABLE>
    16f8:	00000000 	andeq	r0, r0, r0
    16fc:	50000100 	andpl	r0, r0, r0, lsl #2
    1700:	60000000 	andvs	r0, r0, r0
    1704:	01000000 	mrseq	r0, (UNDEF: 0)
    1708:	00005900 	andeq	r5, r0, r0, lsl #18
    170c:	00000000 	andeq	r0, r0, r0
    1710:	06040000 	streq	r0, [r4], -r0
    1714:	00500006 	subseq	r0, r0, r6
    1718:	00500000 	subseq	r0, r0, r0
    171c:	00040000 	andeq	r0, r4, r0
    1720:	9f01f40a 	svcls	0x0001f40a
    1724:	00000050 	andeq	r0, r0, r0, asr r0
    1728:	00000060 	andeq	r0, r0, r0, rrx
    172c:	e00a0004 	and	r0, sl, r4
    1730:	00009f01 	andeq	r9, r0, r1, lsl #30
    1734:	00000000 	andeq	r0, r0, r0
    1738:	00040000 	andeq	r0, r4, r0
    173c:	00000050 	andeq	r0, r0, r0, asr r0
    1740:	00000060 	andeq	r0, r0, r0, rrx
    1744:	00590001 	subseq	r0, r9, r1
	...
    1750:	00005400 	andeq	r5, r0, r0, lsl #8
    1754:	00005800 	andeq	r5, r0, r0, lsl #16
    1758:	54000100 	strpl	r0, [r0], #-256	; 0xffffff00
	...
    1764:	00600004 	rsbeq	r0, r0, r4
    1768:	00780000 	rsbseq	r0, r8, r0
    176c:	00030000 	andeq	r0, r3, r0
    1770:	009f7308 	addseq	r7, pc, r8, lsl #6
    1774:	00000000 	andeq	r0, r0, r0
    1778:	08000000 	stmdaeq	r0, {}	; <UNPREDICTABLE>
    177c:	00006000 	andeq	r6, r0, r0
    1780:	00008000 	andeq	r8, r0, r0
    1784:	0c000600 	stceq	6, cr0, [r0], {-0}
    1788:	20200028 	eorcs	r0, r0, r8, lsr #32
    178c:	0000009f 	muleq	r0, pc, r0	; <UNPREDICTABLE>
    1790:	00000000 	andeq	r0, r0, r0
    1794:	68000000 	stmdavs	r0, {}	; <UNPREDICTABLE>
    1798:	78000000 	stmdavc	r0, {}	; <UNPREDICTABLE>
    179c:	01000000 	mrseq	r0, (UNDEF: 0)
    17a0:	00005900 	andeq	r5, r0, r0, lsl #18
    17a4:	00000000 	andeq	r0, r0, r0
    17a8:	00010000 	andeq	r0, r1, r0
    17ac:	00000068 	andeq	r0, r0, r8, rrx
    17b0:	00000078 	andeq	r0, r0, r8, ror r0
    17b4:	73080003 	movwvc	r0, #32771	; 0x8003
    17b8:	0000009f 	muleq	r0, pc, r0	; <UNPREDICTABLE>
    17bc:	00000000 	andeq	r0, r0, r0
    17c0:	68000100 	stmdavs	r0, {r8}
    17c4:	78000000 	stmdavc	r0, {}	; <UNPREDICTABLE>
    17c8:	01000000 	mrseq	r0, (UNDEF: 0)
    17cc:	00005900 	andeq	r5, r0, r0, lsl #18
    17d0:	00000000 	andeq	r0, r0, r0
    17d4:	06040000 	streq	r0, [r4], -r0
    17d8:	00680006 	rsbeq	r0, r8, r6
    17dc:	00680000 	rsbeq	r0, r8, r0
    17e0:	00030000 	andeq	r0, r3, r0
    17e4:	689f7308 	ldmvs	pc, {r3, r8, r9, ip, sp, lr}	; <UNPREDICTABLE>
    17e8:	78000000 	stmdavc	r0, {}	; <UNPREDICTABLE>
    17ec:	03000000 	movweq	r0, #0
    17f0:	9f5f0800 	svcls	0x005f0800
	...
    17fc:	00680004 	rsbeq	r0, r8, r4
    1800:	00780000 	rsbseq	r0, r8, r0
    1804:	00010000 	andeq	r0, r1, r0
    1808:	00000059 	andeq	r0, r0, r9, asr r0
    180c:	00000000 	andeq	r0, r0, r0
    1810:	6c000000 	stcvs	0, cr0, [r0], {-0}
    1814:	70000000 	andvc	r0, r0, r0
    1818:	01000000 	mrseq	r0, (UNDEF: 0)
    181c:	00005400 	andeq	r5, r0, r0, lsl #8
    1820:	00000000 	andeq	r0, r0, r0
    1824:	00040000 	andeq	r0, r4, r0
    1828:	000001d0 	ldrdeq	r0, [r0], -r0	; <UNPREDICTABLE>
    182c:	000001e8 	andeq	r0, r0, r8, ror #3
    1830:	f40a0004 	vst4.8	{d0-d3}, [sl], r4
    1834:	00009f01 	andeq	r9, r0, r1, lsl #30
    1838:	00000000 	andeq	r0, r0, r0
    183c:	00080000 	andeq	r0, r8, r0
    1840:	000001d0 	ldrdeq	r0, [r0], -r0	; <UNPREDICTABLE>
    1844:	000001f4 	strdeq	r0, [r0], -r4
    1848:	280c0006 	stmdacs	ip, {r1, r2}
    184c:	9f202000 	svcls	0x00202000
	...
    1858:	01d80000 	bicseq	r0, r8, r0
    185c:	01e80000 	mvneq	r0, r0
    1860:	00010000 	andeq	r0, r1, r0
    1864:	00000059 	andeq	r0, r0, r9, asr r0
    1868:	00000000 	andeq	r0, r0, r0
    186c:	d8000100 	stmdale	r0, {r8}
    1870:	e8000001 	stmda	r0, {r0}
    1874:	04000001 	streq	r0, [r0], #-1
    1878:	01f40a00 	mvnseq	r0, r0, lsl #20
    187c:	0000009f 	muleq	r0, pc, r0	; <UNPREDICTABLE>
    1880:	00000000 	andeq	r0, r0, r0
    1884:	d8000100 	stmdale	r0, {r8}
    1888:	e8000001 	stmda	r0, {r0}
    188c:	01000001 	tsteq	r0, r1
    1890:	00005900 	andeq	r5, r0, r0, lsl #18
    1894:	00000000 	andeq	r0, r0, r0
    1898:	06040000 	streq	r0, [r4], -r0
    189c:	01d80006 	bicseq	r0, r8, r6
    18a0:	01d80000 	bicseq	r0, r8, r0
    18a4:	00040000 	andeq	r0, r4, r0
    18a8:	9f01f40a 	svcls	0x0001f40a
    18ac:	000001d8 	ldrdeq	r0, [r0], -r8
    18b0:	000001e8 	andeq	r0, r0, r8, ror #3
    18b4:	e00a0004 	and	r0, sl, r4
    18b8:	00009f01 	andeq	r9, r0, r1, lsl #30
    18bc:	00000000 	andeq	r0, r0, r0
    18c0:	00040000 	andeq	r0, r4, r0
    18c4:	000001d8 	ldrdeq	r0, [r0], -r8
    18c8:	000001e8 	andeq	r0, r0, r8, ror #3
    18cc:	00590001 	subseq	r0, r9, r1
	...
    18d8:	0001dc00 	andeq	sp, r1, r0, lsl #24
    18dc:	0001e000 	andeq	lr, r1, r0
    18e0:	54000100 	strpl	r0, [r0], #-256	; 0xffffff00
	...
    18f4:	00000084 	andeq	r0, r0, r4, lsl #1
    18f8:	000000c4 	andeq	r0, r0, r4, asr #1
    18fc:	c45e0001 	ldrbgt	r0, [lr], #-1
    1900:	c8000000 	stmdagt	r0, {}	; <UNPREDICTABLE>
    1904:	03000000 	movweq	r0, #0
    1908:	9f017e00 	svcls	0x00017e00
    190c:	00000184 	andeq	r0, r0, r4, lsl #3
    1910:	000001b4 			; <UNDEFINED> instruction: 0x000001b4
    1914:	b45e0001 	ldrblt	r0, [lr], #-1
    1918:	bc000001 	stclt	0, cr0, [r0], {1}
    191c:	03000001 	movweq	r0, #1
    1920:	9f017e00 	svcls	0x00017e00
	...
    192c:	00000001 	andeq	r0, r0, r1
    1930:	00000084 	andeq	r0, r0, r4, lsl #1
    1934:	000000c0 	andeq	r0, r0, r0, asr #1
    1938:	00770008 	rsbseq	r0, r7, r8
    193c:	3126007e 			; <UNDEFINED> instruction: 0x3126007e
    1940:	01849f1a 	orreq	r9, r4, sl, lsl pc
    1944:	01b00000 	movseq	r0, r0
    1948:	00080000 	andeq	r0, r8, r0
    194c:	007e0077 	rsbseq	r0, lr, r7, ror r0
    1950:	9f1a3126 	svcls	0x001a3126
	...
    195c:	00940003 	addseq	r0, r4, r3
    1960:	00a80000 	adceq	r0, r8, r0
    1964:	00040000 	andeq	r0, r4, r0
    1968:	9f01f40a 	svcls	0x0001f40a
	...
    1974:	00940007 	addseq	r0, r4, r7
    1978:	00c80000 	sbceq	r0, r8, r0
    197c:	00060000 	andeq	r0, r6, r0
    1980:	20001c0c 	andcs	r1, r0, ip, lsl #24
    1984:	00009f20 	andeq	r9, r0, r0, lsr #30
	...
    1990:	00000098 	muleq	r0, r8, r0
    1994:	000000a8 	andeq	r0, r0, r8, lsr #1
    1998:	00580001 	subseq	r0, r8, r1
    199c:	00000000 	andeq	r0, r0, r0
    19a0:	01000000 	mrseq	r0, (UNDEF: 0)
    19a4:	00009800 	andeq	r9, r0, r0, lsl #16
    19a8:	0000a800 	andeq	sl, r0, r0, lsl #16
    19ac:	0a000400 	beq	29b4 <__code_start__-0x564c>
    19b0:	009f01f4 			; <UNDEFINED> instruction: 0x009f01f4
    19b4:	00000000 	andeq	r0, r0, r0
    19b8:	01000000 	mrseq	r0, (UNDEF: 0)
    19bc:	00009800 	andeq	r9, r0, r0, lsl #16
    19c0:	0000a800 	andeq	sl, r0, r0, lsl #16
    19c4:	58000100 	stmdapl	r0, {r8}
	...
    19d0:	00060604 	andeq	r0, r6, r4, lsl #12
    19d4:	00000098 	muleq	r0, r8, r0
    19d8:	00000098 	muleq	r0, r8, r0
    19dc:	f40a0004 	vst4.8	{d0-d3}, [sl], r4
    19e0:	00989f01 	addseq	r9, r8, r1, lsl #30
    19e4:	00a80000 	adceq	r0, r8, r0
    19e8:	00040000 	andeq	r0, r4, r0
    19ec:	9f01e00a 	svcls	0x0001e00a
	...
    19f8:	00980004 	addseq	r0, r8, r4
    19fc:	00a80000 	adceq	r0, r8, r0
    1a00:	00010000 	andeq	r0, r1, r0
    1a04:	00000058 	andeq	r0, r0, r8, asr r0
    1a08:	00000000 	andeq	r0, r0, r0
    1a0c:	9c000000 	stcls	0, cr0, [r0], {-0}
    1a10:	a0000000 	andge	r0, r0, r0
    1a14:	01000000 	mrseq	r0, (UNDEF: 0)
    1a18:	00005400 	andeq	r5, r0, r0, lsl #8
    1a1c:	00000000 	andeq	r0, r0, r0
    1a20:	00040000 	andeq	r0, r4, r0
    1a24:	000000a8 	andeq	r0, r0, r8, lsr #1
    1a28:	000000c0 	andeq	r0, r0, r0, asr #1
    1a2c:	73080003 	movwvc	r0, #32771	; 0x8003
    1a30:	0000009f 	muleq	r0, pc, r0	; <UNPREDICTABLE>
    1a34:	00000000 	andeq	r0, r0, r0
    1a38:	a8000800 	stmdage	r0, {fp}
    1a3c:	c8000000 	stmdagt	r0, {}	; <UNPREDICTABLE>
    1a40:	06000000 	streq	r0, [r0], -r0
    1a44:	00280c00 	eoreq	r0, r8, r0, lsl #24
    1a48:	009f2020 	addseq	r2, pc, r0, lsr #32
	...
    1a54:	0000b000 	andeq	fp, r0, r0
    1a58:	0000c000 	andeq	ip, r0, r0
    1a5c:	58000100 	stmdapl	r0, {r8}
	...
    1a68:	00b00001 	adcseq	r0, r0, r1
    1a6c:	00c00000 	sbceq	r0, r0, r0
    1a70:	00030000 	andeq	r0, r3, r0
    1a74:	009f7308 	addseq	r7, pc, r8, lsl #6
    1a78:	00000000 	andeq	r0, r0, r0
    1a7c:	01000000 	mrseq	r0, (UNDEF: 0)
    1a80:	0000b000 	andeq	fp, r0, r0
    1a84:	0000c000 	andeq	ip, r0, r0
    1a88:	58000100 	stmdapl	r0, {r8}
	...
    1a94:	00060604 	andeq	r0, r6, r4, lsl #12
    1a98:	000000b0 	strheq	r0, [r0], -r0	; <UNPREDICTABLE>
    1a9c:	000000b0 	strheq	r0, [r0], -r0	; <UNPREDICTABLE>
    1aa0:	73080003 	movwvc	r0, #32771	; 0x8003
    1aa4:	0000b09f 	muleq	r0, pc, r0	; <UNPREDICTABLE>
    1aa8:	0000c000 	andeq	ip, r0, r0
    1aac:	08000300 	stmdaeq	r0, {r8, r9}
    1ab0:	00009f5f 	andeq	r9, r0, pc, asr pc
    1ab4:	00000000 	andeq	r0, r0, r0
    1ab8:	00040000 	andeq	r0, r4, r0
    1abc:	000000b0 	strheq	r0, [r0], -r0	; <UNPREDICTABLE>
    1ac0:	000000c0 	andeq	r0, r0, r0, asr #1
    1ac4:	00580001 	subseq	r0, r8, r1
	...
    1ad0:	0000b400 	andeq	fp, r0, r0, lsl #8
    1ad4:	0000b800 	andeq	fp, r0, r0, lsl #16
    1ad8:	54000100 	strpl	r0, [r0], #-256	; 0xffffff00
	...
    1ae4:	01840004 	orreq	r0, r4, r4
    1ae8:	01980000 	orrseq	r0, r8, r0
    1aec:	00030000 	andeq	r0, r3, r0
    1af0:	009f7308 	addseq	r7, pc, r8, lsl #6
    1af4:	00000000 	andeq	r0, r0, r0
    1af8:	08000000 	stmdaeq	r0, {}	; <UNPREDICTABLE>
    1afc:	00018400 	andeq	r8, r1, r0, lsl #8
    1b00:	0001bc00 	andeq	fp, r1, r0, lsl #24
    1b04:	0c000600 	stceq	6, cr0, [r0], {-0}
    1b08:	2020001c 	eorcs	r0, r0, ip, lsl r0
    1b0c:	0000009f 	muleq	r0, pc, r0	; <UNPREDICTABLE>
    1b10:	00000000 	andeq	r0, r0, r0
    1b14:	88000000 	stmdahi	r0, {}	; <UNPREDICTABLE>
    1b18:	98000001 	stmdals	r0, {r0}
    1b1c:	01000001 	tsteq	r0, r1
    1b20:	00005800 	andeq	r5, r0, r0, lsl #16
    1b24:	00000000 	andeq	r0, r0, r0
    1b28:	00010000 	andeq	r0, r1, r0
    1b2c:	00000188 	andeq	r0, r0, r8, lsl #3
    1b30:	00000198 	muleq	r0, r8, r1
    1b34:	73080003 	movwvc	r0, #32771	; 0x8003
    1b38:	0000009f 	muleq	r0, pc, r0	; <UNPREDICTABLE>
    1b3c:	00000000 	andeq	r0, r0, r0
    1b40:	88000100 	stmdahi	r0, {r8}
    1b44:	98000001 	stmdals	r0, {r0}
    1b48:	01000001 	tsteq	r0, r1
    1b4c:	00005800 	andeq	r5, r0, r0, lsl #16
    1b50:	00000000 	andeq	r0, r0, r0
    1b54:	06040000 	streq	r0, [r4], -r0
    1b58:	01880006 	orreq	r0, r8, r6
    1b5c:	01880000 	orreq	r0, r8, r0
    1b60:	00030000 	andeq	r0, r3, r0
    1b64:	889f7308 	ldmhi	pc, {r3, r8, r9, ip, sp, lr}	; <UNPREDICTABLE>
    1b68:	98000001 	stmdals	r0, {r0}
    1b6c:	03000001 	movweq	r0, #1
    1b70:	9f5f0800 	svcls	0x005f0800
	...
    1b7c:	01880004 	orreq	r0, r8, r4
    1b80:	01980000 	orrseq	r0, r8, r0
    1b84:	00010000 	andeq	r0, r1, r0
    1b88:	00000058 	andeq	r0, r0, r8, asr r0
    1b8c:	00000000 	andeq	r0, r0, r0
    1b90:	8c000000 	stchi	0, cr0, [r0], {-0}
    1b94:	90000001 	andls	r0, r0, r1
    1b98:	01000001 	tsteq	r0, r1
    1b9c:	00005400 	andeq	r5, r0, r0, lsl #8
    1ba0:	00000000 	andeq	r0, r0, r0
    1ba4:	00040000 	andeq	r0, r4, r0
    1ba8:	00000198 	muleq	r0, r8, r1
    1bac:	000001b0 			; <UNDEFINED> instruction: 0x000001b0
    1bb0:	f40a0004 	vst4.8	{d0-d3}, [sl], r4
    1bb4:	00009f01 	andeq	r9, r0, r1, lsl #30
    1bb8:	00000000 	andeq	r0, r0, r0
    1bbc:	00080000 	andeq	r0, r8, r0
    1bc0:	00000198 	muleq	r0, r8, r1
    1bc4:	000001bc 			; <UNDEFINED> instruction: 0x000001bc
    1bc8:	280c0006 	stmdacs	ip, {r1, r2}
    1bcc:	9f202000 	svcls	0x00202000
	...
    1bd8:	01a00000 	moveq	r0, r0
    1bdc:	01b00000 	movseq	r0, r0
    1be0:	00010000 	andeq	r0, r1, r0
    1be4:	00000058 	andeq	r0, r0, r8, asr r0
    1be8:	00000000 	andeq	r0, r0, r0
    1bec:	a0000100 	andge	r0, r0, r0, lsl #2
    1bf0:	b0000001 	andlt	r0, r0, r1
    1bf4:	04000001 	streq	r0, [r0], #-1
    1bf8:	01f40a00 	mvnseq	r0, r0, lsl #20
    1bfc:	0000009f 	muleq	r0, pc, r0	; <UNPREDICTABLE>
    1c00:	00000000 	andeq	r0, r0, r0
    1c04:	a0000100 	andge	r0, r0, r0, lsl #2
    1c08:	b0000001 	andlt	r0, r0, r1
    1c0c:	01000001 	tsteq	r0, r1
    1c10:	00005800 	andeq	r5, r0, r0, lsl #16
    1c14:	00000000 	andeq	r0, r0, r0
    1c18:	06040000 	streq	r0, [r4], -r0
    1c1c:	01a00006 	moveq	r0, r6
    1c20:	01a00000 	moveq	r0, r0
    1c24:	00040000 	andeq	r0, r4, r0
    1c28:	9f01f40a 	svcls	0x0001f40a
    1c2c:	000001a0 	andeq	r0, r0, r0, lsr #3
    1c30:	000001b0 			; <UNDEFINED> instruction: 0x000001b0
    1c34:	e00a0004 	and	r0, sl, r4
    1c38:	00009f01 	andeq	r9, r0, r1, lsl #30
    1c3c:	00000000 	andeq	r0, r0, r0
    1c40:	00040000 	andeq	r0, r4, r0
    1c44:	000001a0 	andeq	r0, r0, r0, lsr #3
    1c48:	000001b0 			; <UNDEFINED> instruction: 0x000001b0
    1c4c:	00580001 	subseq	r0, r8, r1
	...
    1c58:	0001a400 	andeq	sl, r1, r0, lsl #8
    1c5c:	0001a800 	andeq	sl, r1, r0, lsl #16
    1c60:	54000100 	strpl	r0, [r0], #-256	; 0xffffff00
	...
    1c74:	000000cc 	andeq	r0, r0, ip, asr #1
    1c78:	0000010c 	andeq	r0, r0, ip, lsl #2
    1c7c:	0c5e0001 	mrrceq	0, 0, r0, lr, cr1
    1c80:	10000001 	andne	r0, r0, r1
    1c84:	03000001 	movweq	r0, #1
    1c88:	9f017e00 	svcls	0x00017e00
    1c8c:	0000014c 	andeq	r0, r0, ip, asr #2
    1c90:	0000017c 	andeq	r0, r0, ip, ror r1
    1c94:	7c5e0001 	mrrcvc	0, 0, r0, lr, cr1
    1c98:	84000001 	strhi	r0, [r0], #-1
    1c9c:	03000001 	movweq	r0, #1
    1ca0:	9f017e00 	svcls	0x00017e00
	...
    1cac:	00000001 	andeq	r0, r0, r1
    1cb0:	000000cc 	andeq	r0, r0, ip, asr #1
    1cb4:	00000108 	andeq	r0, r0, r8, lsl #2
    1cb8:	00750008 	rsbseq	r0, r5, r8
    1cbc:	3126007e 			; <UNDEFINED> instruction: 0x3126007e
    1cc0:	014c9f1a 	cmpeq	ip, sl, lsl pc
    1cc4:	01780000 	cmneq	r8, r0
    1cc8:	00080000 	andeq	r0, r8, r0
    1ccc:	007e0075 	rsbseq	r0, lr, r5, ror r0
    1cd0:	9f1a3126 	svcls	0x001a3126
	...
    1cdc:	00dc0003 	sbcseq	r0, ip, r3
    1ce0:	00f00000 	rscseq	r0, r0, r0
    1ce4:	00040000 	andeq	r0, r4, r0
    1ce8:	9f01f40a 	svcls	0x0001f40a
	...
    1cf4:	00dc0007 	sbcseq	r0, ip, r7
    1cf8:	01100000 	tsteq	r0, r0
    1cfc:	00060000 	andeq	r0, r6, r0
    1d00:	20001c0c 	andcs	r1, r0, ip, lsl #24
    1d04:	00009f20 	andeq	r9, r0, r0, lsr #30
	...
    1d10:	000000e0 	andeq	r0, r0, r0, ror #1
    1d14:	000000f0 	strdeq	r0, [r0], -r0	; <UNPREDICTABLE>
    1d18:	00570001 	subseq	r0, r7, r1
    1d1c:	00000000 	andeq	r0, r0, r0
    1d20:	01000000 	mrseq	r0, (UNDEF: 0)
    1d24:	0000e000 	andeq	lr, r0, r0
    1d28:	0000f000 	andeq	pc, r0, r0
    1d2c:	0a000400 	beq	2d34 <__code_start__-0x52cc>
    1d30:	009f01f4 			; <UNDEFINED> instruction: 0x009f01f4
    1d34:	00000000 	andeq	r0, r0, r0
    1d38:	01000000 	mrseq	r0, (UNDEF: 0)
    1d3c:	0000e000 	andeq	lr, r0, r0
    1d40:	0000f000 	andeq	pc, r0, r0
    1d44:	57000100 	strpl	r0, [r0, -r0, lsl #2]
	...
    1d50:	00060604 	andeq	r0, r6, r4, lsl #12
    1d54:	000000e0 	andeq	r0, r0, r0, ror #1
    1d58:	000000e0 	andeq	r0, r0, r0, ror #1
    1d5c:	f40a0004 	vst4.8	{d0-d3}, [sl], r4
    1d60:	00e09f01 	rsceq	r9, r0, r1, lsl #30
    1d64:	00f00000 	rscseq	r0, r0, r0
    1d68:	00040000 	andeq	r0, r4, r0
    1d6c:	9f01e00a 	svcls	0x0001e00a
	...
    1d78:	00e00004 	rsceq	r0, r0, r4
    1d7c:	00f00000 	rscseq	r0, r0, r0
    1d80:	00010000 	andeq	r0, r1, r0
    1d84:	00000057 	andeq	r0, r0, r7, asr r0
    1d88:	00000000 	andeq	r0, r0, r0
    1d8c:	e4000000 	str	r0, [r0], #-0
    1d90:	e8000000 	stmda	r0, {}	; <UNPREDICTABLE>
    1d94:	01000000 	mrseq	r0, (UNDEF: 0)
    1d98:	00005400 	andeq	r5, r0, r0, lsl #8
    1d9c:	00000000 	andeq	r0, r0, r0
    1da0:	00040000 	andeq	r0, r4, r0
    1da4:	000000f0 	strdeq	r0, [r0], -r0	; <UNPREDICTABLE>
    1da8:	00000108 	andeq	r0, r0, r8, lsl #2
    1dac:	73080003 	movwvc	r0, #32771	; 0x8003
    1db0:	0000009f 	muleq	r0, pc, r0	; <UNPREDICTABLE>
    1db4:	00000000 	andeq	r0, r0, r0
    1db8:	f0000800 			; <UNDEFINED> instruction: 0xf0000800
    1dbc:	10000000 	andne	r0, r0, r0
    1dc0:	06000001 	streq	r0, [r0], -r1
    1dc4:	00280c00 	eoreq	r0, r8, r0, lsl #24
    1dc8:	009f2020 	addseq	r2, pc, r0, lsr #32
	...
    1dd4:	0000f800 	andeq	pc, r0, r0, lsl #16
    1dd8:	00010800 	andeq	r0, r1, r0, lsl #16
    1ddc:	57000100 	strpl	r0, [r0, -r0, lsl #2]
	...
    1de8:	00f80001 	rscseq	r0, r8, r1
    1dec:	01080000 	mrseq	r0, (UNDEF: 8)
    1df0:	00030000 	andeq	r0, r3, r0
    1df4:	009f7308 	addseq	r7, pc, r8, lsl #6
    1df8:	00000000 	andeq	r0, r0, r0
    1dfc:	01000000 	mrseq	r0, (UNDEF: 0)
    1e00:	0000f800 	andeq	pc, r0, r0, lsl #16
    1e04:	00010800 	andeq	r0, r1, r0, lsl #16
    1e08:	57000100 	strpl	r0, [r0, -r0, lsl #2]
	...
    1e14:	00060604 	andeq	r0, r6, r4, lsl #12
    1e18:	000000f8 	strdeq	r0, [r0], -r8
    1e1c:	000000f8 	strdeq	r0, [r0], -r8
    1e20:	73080003 	movwvc	r0, #32771	; 0x8003
    1e24:	0000f89f 	muleq	r0, pc, r8	; <UNPREDICTABLE>
    1e28:	00010800 	andeq	r0, r1, r0, lsl #16
    1e2c:	08000300 	stmdaeq	r0, {r8, r9}
    1e30:	00009f5f 	andeq	r9, r0, pc, asr pc
    1e34:	00000000 	andeq	r0, r0, r0
    1e38:	00040000 	andeq	r0, r4, r0
    1e3c:	000000f8 	strdeq	r0, [r0], -r8
    1e40:	00000108 	andeq	r0, r0, r8, lsl #2
    1e44:	00570001 	subseq	r0, r7, r1
	...
    1e50:	0000fc00 	andeq	pc, r0, r0, lsl #24
    1e54:	00010000 	andeq	r0, r1, r0
    1e58:	54000100 	strpl	r0, [r0], #-256	; 0xffffff00
	...
    1e64:	014c0003 	cmpeq	ip, r3
    1e68:	01600000 	cmneq	r0, r0
    1e6c:	00030000 	andeq	r0, r3, r0
    1e70:	009f7308 	addseq	r7, pc, r8, lsl #6
    1e74:	00000000 	andeq	r0, r0, r0
    1e78:	07000000 	streq	r0, [r0, -r0]
    1e7c:	00014c00 	andeq	r4, r1, r0, lsl #24
    1e80:	00018400 	andeq	r8, r1, r0, lsl #8
    1e84:	0c000600 	stceq	6, cr0, [r0], {-0}
    1e88:	2020001c 	eorcs	r0, r0, ip, lsl r0
    1e8c:	0000009f 	muleq	r0, pc, r0	; <UNPREDICTABLE>
    1e90:	00000000 	andeq	r0, r0, r0
    1e94:	50000000 	andpl	r0, r0, r0
    1e98:	60000001 	andvs	r0, r0, r1
    1e9c:	01000001 	tsteq	r0, r1
    1ea0:	00005700 	andeq	r5, r0, r0, lsl #14
    1ea4:	00000000 	andeq	r0, r0, r0
    1ea8:	00010000 	andeq	r0, r1, r0
    1eac:	00000150 	andeq	r0, r0, r0, asr r1
    1eb0:	00000160 	andeq	r0, r0, r0, ror #2
    1eb4:	73080003 	movwvc	r0, #32771	; 0x8003
    1eb8:	0000009f 	muleq	r0, pc, r0	; <UNPREDICTABLE>
    1ebc:	00000000 	andeq	r0, r0, r0
    1ec0:	50000100 	andpl	r0, r0, r0, lsl #2
    1ec4:	60000001 	andvs	r0, r0, r1
    1ec8:	01000001 	tsteq	r0, r1
    1ecc:	00005700 	andeq	r5, r0, r0, lsl #14
    1ed0:	00000000 	andeq	r0, r0, r0
    1ed4:	06040000 	streq	r0, [r4], -r0
    1ed8:	01500006 	cmpeq	r0, r6
    1edc:	01500000 	cmpeq	r0, r0
    1ee0:	00030000 	andeq	r0, r3, r0
    1ee4:	509f7308 	addspl	r7, pc, r8, lsl #6
    1ee8:	60000001 	andvs	r0, r0, r1
    1eec:	03000001 	movweq	r0, #1
    1ef0:	9f5f0800 	svcls	0x005f0800
	...
    1efc:	01500004 	cmpeq	r0, r4
    1f00:	01600000 	cmneq	r0, r0
    1f04:	00010000 	andeq	r0, r1, r0
    1f08:	00000057 	andeq	r0, r0, r7, asr r0
    1f0c:	00000000 	andeq	r0, r0, r0
    1f10:	54000000 	strpl	r0, [r0], #-0
    1f14:	58000001 	stmdapl	r0, {r0}
    1f18:	01000001 	tsteq	r0, r1
    1f1c:	00005400 	andeq	r5, r0, r0, lsl #8
    1f20:	00000000 	andeq	r0, r0, r0
    1f24:	00040000 	andeq	r0, r4, r0
    1f28:	00000160 	andeq	r0, r0, r0, ror #2
    1f2c:	00000178 	andeq	r0, r0, r8, ror r1
    1f30:	f40a0004 	vst4.8	{d0-d3}, [sl], r4
    1f34:	00009f01 	andeq	r9, r0, r1, lsl #30
    1f38:	00000000 	andeq	r0, r0, r0
    1f3c:	00080000 	andeq	r0, r8, r0
    1f40:	00000160 	andeq	r0, r0, r0, ror #2
    1f44:	00000184 	andeq	r0, r0, r4, lsl #3
    1f48:	280c0006 	stmdacs	ip, {r1, r2}
    1f4c:	9f202000 	svcls	0x00202000
	...
    1f58:	01680000 	cmneq	r8, r0
    1f5c:	01780000 	cmneq	r8, r0
    1f60:	00010000 	andeq	r0, r1, r0
    1f64:	00000057 	andeq	r0, r0, r7, asr r0
    1f68:	00000000 	andeq	r0, r0, r0
    1f6c:	68000100 	stmdavs	r0, {r8}
    1f70:	78000001 	stmdavc	r0, {r0}
    1f74:	04000001 	streq	r0, [r0], #-1
    1f78:	01f40a00 	mvnseq	r0, r0, lsl #20
    1f7c:	0000009f 	muleq	r0, pc, r0	; <UNPREDICTABLE>
    1f80:	00000000 	andeq	r0, r0, r0
    1f84:	68000100 	stmdavs	r0, {r8}
    1f88:	78000001 	stmdavc	r0, {r0}
    1f8c:	01000001 	tsteq	r0, r1
    1f90:	00005700 	andeq	r5, r0, r0, lsl #14
    1f94:	00000000 	andeq	r0, r0, r0
    1f98:	06040000 	streq	r0, [r4], -r0
    1f9c:	01680006 	cmneq	r8, r6
    1fa0:	01680000 	cmneq	r8, r0
    1fa4:	00040000 	andeq	r0, r4, r0
    1fa8:	9f01f40a 	svcls	0x0001f40a
    1fac:	00000168 	andeq	r0, r0, r8, ror #2
    1fb0:	00000178 	andeq	r0, r0, r8, ror r1
    1fb4:	e00a0004 	and	r0, sl, r4
    1fb8:	00009f01 	andeq	r9, r0, r1, lsl #30
    1fbc:	00000000 	andeq	r0, r0, r0
    1fc0:	00040000 	andeq	r0, r4, r0
    1fc4:	00000168 	andeq	r0, r0, r8, ror #2
    1fc8:	00000178 	andeq	r0, r0, r8, ror r1
    1fcc:	00570001 	subseq	r0, r7, r1
	...
    1fd8:	00016c00 	andeq	r6, r1, r0, lsl #24
    1fdc:	00017000 	andeq	r7, r1, r0
    1fe0:	54000100 	strpl	r0, [r0], #-256	; 0xffffff00
	...
    1fec:	00010001 	andeq	r0, r1, r1
    1ff0:	0000011c 	andeq	r0, r0, ip, lsl r1
    1ff4:	00000124 	andeq	r0, r0, r4, lsr #2
    1ff8:	00700008 	rsbseq	r0, r0, r8
    1ffc:	ff080194 			; <UNDEFINED> instruction: 0xff080194
    2000:	02009f1a 	andeq	r9, r0, #104	; 0x68
    2004:	02080000 	andeq	r0, r8, #0, 0
    2008:	00080000 	andeq	r0, r8, r0
    200c:	01940070 	orrseq	r0, r4, r0, ror r0
    2010:	9f1aff08 	svcls	0x001aff08
	...
    201c:	00030003 	andeq	r0, r3, r3
    2020:	0000011c 	andeq	r0, r0, ip, lsl r1
    2024:	00000124 	andeq	r0, r0, r4, lsr #2
    2028:	00700008 	rsbseq	r0, r0, r8
    202c:	ff080194 			; <UNDEFINED> instruction: 0xff080194
    2030:	02009f1a 	andeq	r9, r0, #104	; 0x68
    2034:	02080000 	andeq	r0, r8, #0, 0
    2038:	00080000 	andeq	r0, r8, r0
    203c:	01940070 	orrseq	r0, r4, r0, ror r0
    2040:	9f1aff08 	svcls	0x001aff08
	...
    204c:	00050005 	andeq	r0, r5, r5
    2050:	0000011c 	andeq	r0, r0, ip, lsl r1
    2054:	0000013c 	andeq	r0, r0, ip, lsr r1
    2058:	7c0a0004 	stcvc	0, cr0, [sl], {4}
    205c:	02009f88 	andeq	r9, r0, #136, 30	; 0x220
    2060:	02200000 	eoreq	r0, r0, #0, 0
    2064:	00040000 	andeq	r0, r4, r0
    2068:	9f887c0a 	svcls	0x00887c0a
	...
    2074:	00050005 	andeq	r0, r5, r5
    2078:	0000011c 	andeq	r0, r0, ip, lsl r1
    207c:	00000124 	andeq	r0, r0, r4, lsr #2
    2080:	00700008 	rsbseq	r0, r0, r8
    2084:	ff080194 			; <UNDEFINED> instruction: 0xff080194
    2088:	02009f1a 	andeq	r9, r0, #104	; 0x68
    208c:	02080000 	andeq	r0, r8, #0, 0
    2090:	00080000 	andeq	r0, r8, r0
    2094:	01940070 	orrseq	r0, r4, r0, ror r0
    2098:	9f1aff08 	svcls	0x001aff08
	...
    20a4:	00070007 	andeq	r0, r7, r7
    20a8:	0000011c 	andeq	r0, r0, ip, lsl r1
    20ac:	00000124 	andeq	r0, r0, r4, lsr #2
    20b0:	00700008 	rsbseq	r0, r0, r8
    20b4:	ff080194 			; <UNDEFINED> instruction: 0xff080194
    20b8:	02009f1a 	andeq	r9, r0, #104	; 0x68
    20bc:	02080000 	andeq	r0, r8, #0, 0
    20c0:	00080000 	andeq	r0, r8, r0
    20c4:	01940070 	orrseq	r0, r4, r0, ror r0
    20c8:	9f1aff08 	svcls	0x001aff08
	...
    20d4:	00090009 	andeq	r0, r9, r9
    20d8:	0000011c 	andeq	r0, r0, ip, lsl r1
    20dc:	0000014c 	andeq	r0, r0, ip, asr #2
    20e0:	280c0006 	stmdacs	ip, {r1, r2}
    20e4:	9f202000 	svcls	0x00202000
    20e8:	00000200 	andeq	r0, r0, r0, lsl #4
    20ec:	00000234 	andeq	r0, r0, r4, lsr r2
    20f0:	280c0006 	stmdacs	ip, {r1, r2}
    20f4:	9f202000 	svcls	0x00202000
	...
    2104:	00000128 	andeq	r0, r0, r8, lsr #2
    2108:	0000013c 	andeq	r0, r0, ip, lsr r1
    210c:	0c5c0001 	mrrceq	0, 0, r0, ip, cr1
    2110:	20000002 	andcs	r0, r0, r2
    2114:	01000002 	tsteq	r0, r2
    2118:	00005c00 	andeq	r5, r0, r0, lsl #24
    211c:	00000000 	andeq	r0, r0, r0
    2120:	00010000 	andeq	r0, r1, r0
    2124:	01280001 			; <UNDEFINED> instruction: 0x01280001
    2128:	013c0000 	teqeq	ip, r0
    212c:	00040000 	andeq	r0, r4, r0
    2130:	9f887c0a 	svcls	0x00887c0a
    2134:	0000020c 	andeq	r0, r0, ip, lsl #4
    2138:	00000220 	andeq	r0, r0, r0, lsr #4
    213c:	7c0a0004 	stcvc	0, cr0, [sl], {4}
    2140:	00009f88 	andeq	r9, r0, r8, lsl #31
    2144:	00000000 	andeq	r0, r0, r0
    2148:	00010000 	andeq	r0, r1, r0
    214c:	01280001 			; <UNDEFINED> instruction: 0x01280001
    2150:	013c0000 	teqeq	ip, r0
    2154:	00010000 	andeq	r0, r1, r0
    2158:	00020c5c 	andeq	r0, r2, ip, asr ip
    215c:	00022000 	andeq	r2, r2, r0
    2160:	5c000100 	stfpls	f0, [r0], {-0}
	...
    216c:	00060604 	andeq	r0, r6, r4, lsl #12
    2170:	00060604 	andeq	r0, r6, r4, lsl #12
    2174:	00000128 	andeq	r0, r0, r8, lsr #2
    2178:	00000128 	andeq	r0, r0, r8, lsr #2
    217c:	7c0a0004 	stcvc	0, cr0, [sl], {4}
    2180:	01289f88 	smlawbeq	r8, r8, pc, r9	; <UNPREDICTABLE>
    2184:	013c0000 	teqeq	ip, r0
    2188:	00040000 	andeq	r0, r4, r0
    218c:	9f88680a 	svcls	0x0088680a
    2190:	0000020c 	andeq	r0, r0, ip, lsl #4
    2194:	0000020c 	andeq	r0, r0, ip, lsl #4
    2198:	7c0a0004 	stcvc	0, cr0, [sl], {4}
    219c:	020c9f88 	andeq	r9, ip, #136, 30	; 0x220
    21a0:	02200000 	eoreq	r0, r0, #0, 0
    21a4:	00040000 	andeq	r0, r4, r0
    21a8:	9f88680a 	svcls	0x0088680a
	...
    21b4:	00040004 	andeq	r0, r4, r4
    21b8:	00000128 	andeq	r0, r0, r8, lsr #2
    21bc:	0000013c 	andeq	r0, r0, ip, lsr r1
    21c0:	0c5c0001 	mrrceq	0, 0, r0, ip, cr1
    21c4:	20000002 	andcs	r0, r0, r2
    21c8:	01000002 	tsteq	r0, r2
    21cc:	00005c00 	andeq	r5, r0, r0, lsl #24
	...
    21d8:	01300000 	teqeq	r0, r0
    21dc:	01340000 	teqeq	r4, r0
    21e0:	00010000 	andeq	r0, r1, r0
    21e4:	00021453 	andeq	r1, r2, r3, asr r4
    21e8:	00021800 	andeq	r1, r2, r0, lsl #16
    21ec:	53000100 	movwpl	r0, #256	; 0x100
	...
    2200:	0000042c 	andeq	r0, r0, ip, lsr #8
    2204:	00000513 	andeq	r0, r0, r3, lsl r5
    2208:	13500001 	cmpne	r0, #1, 0
    220c:	14000005 	strne	r0, [r0], #-5
    2210:	04000005 	streq	r0, [r0], #-5
    2214:	5001f300 	andpl	pc, r1, r0, lsl #6
    2218:	0005149f 	muleq	r5, pc, r4	; <UNPREDICTABLE>
    221c:	00051700 	andeq	r1, r5, r0, lsl #14
    2220:	50000100 	andpl	r0, r0, r0, lsl #2
    2224:	00000517 	andeq	r0, r0, r7, lsl r5
    2228:	0000051c 	andeq	r0, r0, ip, lsl r5
    222c:	01f30004 	mvnseq	r0, r4
    2230:	00009f50 	andeq	r9, r0, r0, asr pc
	...
    2240:	042c0000 	strteq	r0, [ip], #-0
    2244:	05130000 	ldreq	r0, [r3, #-0]
    2248:	00010000 	andeq	r0, r1, r0
    224c:	00051351 	andeq	r1, r5, r1, asr r3
    2250:	00051400 	andeq	r1, r5, r0, lsl #8
    2254:	f3000400 	vshl.u8	d0, d0, d0
    2258:	149f5101 	ldrne	r5, [pc], #257	; 2260 <__code_start__-0x5da0>
    225c:	17000005 	strne	r0, [r0, -r5]
    2260:	01000005 	tsteq	r0, r5
    2264:	05175100 	ldreq	r5, [r7, #-256]	; 0xffffff00
    2268:	051c0000 	ldreq	r0, [ip, #-0]
    226c:	00040000 	andeq	r0, r4, r0
    2270:	9f5101f3 	svcls	0x005101f3
	...
    227c:	00000003 	andeq	r0, r0, r3
    2280:	042c0000 	strteq	r0, [ip], #-0
    2284:	044c0000 	strbeq	r0, [ip], #-0
    2288:	00020000 	andeq	r0, r2, r0
    228c:	044c9f30 	strbeq	r9, [ip], #-3888	; 0xfffff0d0
    2290:	05100000 	ldreq	r0, [r0, #-0]
    2294:	00010000 	andeq	r0, r1, r0
    2298:	0005145e 	andeq	r1, r5, lr, asr r4
    229c:	00051c00 	andeq	r1, r5, r0, lsl #24
    22a0:	30000200 	andcc	r0, r0, r0, lsl #4
    22a4:	0000009f 	muleq	r0, pc, r0	; <UNPREDICTABLE>
    22a8:	00000000 	andeq	r0, r0, r0
    22ac:	4c000200 	sfmmi	f0, 4, [r0], {-0}
    22b0:	00000004 	andeq	r0, r0, r4
    22b4:	02000005 	andeq	r0, r0, #5, 0
    22b8:	009f3000 	addseq	r3, pc, r0
    22bc:	00000000 	andeq	r0, r0, r0
    22c0:	04000000 	streq	r0, [r0], #-0
    22c4:	00044c00 	andeq	r4, r4, r0, lsl #24
    22c8:	00048c00 	andeq	r8, r4, r0, lsl #24
    22cc:	30000200 	andcc	r0, r0, r0, lsl #4
    22d0:	0000009f 	muleq	r0, pc, r0	; <UNPREDICTABLE>
    22d4:	00000000 	andeq	r0, r0, r0
    22d8:	4c000700 	stcmi	7, cr0, [r0], {-0}
    22dc:	50000004 	andpl	r0, r0, r4
    22e0:	02000004 	andeq	r0, r0, #4, 0
    22e4:	009f3700 	addseq	r3, pc, r0, lsl #14
    22e8:	00000000 	andeq	r0, r0, r0
    22ec:	01000000 	mrseq	r0, (UNDEF: 0)
    22f0:	00045000 	andeq	r5, r4, r0
    22f4:	00048000 	andeq	r8, r4, r0
    22f8:	30000200 	andcc	r0, r0, r0, lsl #4
    22fc:	0000009f 	muleq	r0, pc, r0	; <UNPREDICTABLE>
    2300:	00000000 	andeq	r0, r0, r0
    2304:	50000600 	andpl	r0, r0, r0, lsl #12
    2308:	68000004 	stmdavs	r0, {r2}
    230c:	03000004 	movweq	r0, #4
    2310:	9f730800 	svcls	0x00730800
	...
    231c:	0450000a 	ldrbeq	r0, [r0], #-10
    2320:	05140000 	ldreq	r0, [r4, #-0]
    2324:	00060000 	andeq	r0, r6, r0
    2328:	20001c0c 	andcs	r1, r0, ip, lsl #24
    232c:	00009f20 	andeq	r9, r0, r0, lsr #30
	...
    2338:	00000458 	andeq	r0, r0, r8, asr r4
    233c:	00000468 	andeq	r0, r0, r8, ror #8
    2340:	00550001 	subseq	r0, r5, r1
    2344:	00000000 	andeq	r0, r0, r0
    2348:	01000000 	mrseq	r0, (UNDEF: 0)
    234c:	00045800 	andeq	r5, r4, r0, lsl #16
    2350:	00046800 	andeq	r6, r4, r0, lsl #16
    2354:	08000300 	stmdaeq	r0, {r8, r9}
    2358:	00009f73 	andeq	r9, r0, r3, ror pc
    235c:	00000000 	andeq	r0, r0, r0
    2360:	00010000 	andeq	r0, r1, r0
    2364:	00000458 	andeq	r0, r0, r8, asr r4
    2368:	00000468 	andeq	r0, r0, r8, ror #8
    236c:	00550001 	subseq	r0, r5, r1
    2370:	00000000 	andeq	r0, r0, r0
    2374:	04000000 	streq	r0, [r0], #-0
    2378:	58000606 	stmdapl	r0, {r1, r2, r9, sl}
    237c:	58000004 	stmdapl	r0, {r2}
    2380:	03000004 	movweq	r0, #4
    2384:	9f730800 	svcls	0x00730800
    2388:	00000458 	andeq	r0, r0, r8, asr r4
    238c:	00000468 	andeq	r0, r0, r8, ror #8
    2390:	5f080003 	svcpl	0x00080003
    2394:	0000009f 	muleq	r0, pc, r0	; <UNPREDICTABLE>
    2398:	00000000 	andeq	r0, r0, r0
    239c:	58000400 	stmdapl	r0, {sl}
    23a0:	68000004 	stmdavs	r0, {r2}
    23a4:	01000004 	tsteq	r0, r4
    23a8:	00005500 	andeq	r5, r0, r0, lsl #10
	...
    23b4:	0000045c 	andeq	r0, r0, ip, asr r4
    23b8:	00000460 	andeq	r0, r0, r0, ror #8
    23bc:	005c0001 	subseq	r0, ip, r1
    23c0:	00000000 	andeq	r0, r0, r0
    23c4:	04000000 	streq	r0, [r0], #-0
    23c8:	00046800 	andeq	r6, r4, r0, lsl #16
    23cc:	00048000 	andeq	r8, r4, r0
    23d0:	0a000400 	beq	33d8 <__code_start__-0x4c28>
    23d4:	009f01f4 			; <UNDEFINED> instruction: 0x009f01f4
    23d8:	00000000 	andeq	r0, r0, r0
    23dc:	08000000 	stmdaeq	r0, {}	; <UNPREDICTABLE>
    23e0:	00046800 	andeq	r6, r4, r0, lsl #16
    23e4:	00051400 	andeq	r1, r5, r0, lsl #8
    23e8:	0c000600 	stceq	6, cr0, [r0], {-0}
    23ec:	20200028 	eorcs	r0, r0, r8, lsr #32
    23f0:	0000009f 	muleq	r0, pc, r0	; <UNPREDICTABLE>
    23f4:	00000000 	andeq	r0, r0, r0
    23f8:	70000000 	andvc	r0, r0, r0
    23fc:	80000004 	andhi	r0, r0, r4
    2400:	01000004 	tsteq	r0, r4
    2404:	00005500 	andeq	r5, r0, r0, lsl #10
    2408:	00000000 	andeq	r0, r0, r0
    240c:	00010000 	andeq	r0, r1, r0
    2410:	00000470 	andeq	r0, r0, r0, ror r4
    2414:	00000480 	andeq	r0, r0, r0, lsl #9
    2418:	f40a0004 	vst4.8	{d0-d3}, [sl], r4
    241c:	00009f01 	andeq	r9, r0, r1, lsl #30
    2420:	00000000 	andeq	r0, r0, r0
    2424:	00010000 	andeq	r0, r1, r0
    2428:	00000470 	andeq	r0, r0, r0, ror r4
    242c:	00000480 	andeq	r0, r0, r0, lsl #9
    2430:	00550001 	subseq	r0, r5, r1
    2434:	00000000 	andeq	r0, r0, r0
    2438:	04000000 	streq	r0, [r0], #-0
    243c:	70000606 	andvc	r0, r0, r6, lsl #12
    2440:	70000004 	andvc	r0, r0, r4
    2444:	04000004 	streq	r0, [r0], #-4
    2448:	01f40a00 	mvnseq	r0, r0, lsl #20
    244c:	0004709f 	muleq	r4, pc, r0	; <UNPREDICTABLE>
    2450:	00048000 	andeq	r8, r4, r0
    2454:	0a000400 	beq	345c <__code_start__-0x4ba4>
    2458:	009f01e0 	addseq	r0, pc, r0, ror #3
    245c:	00000000 	andeq	r0, r0, r0
    2460:	04000000 	streq	r0, [r0], #-0
    2464:	00047000 	andeq	r7, r4, r0
    2468:	00048000 	andeq	r8, r4, r0
    246c:	55000100 	strpl	r0, [r0, #-256]	; 0xffffff00
	...
    2478:	04740000 	ldrbteq	r0, [r4], #-0
    247c:	04780000 	ldrbteq	r0, [r8], #-0
    2480:	00010000 	andeq	r0, r1, r0
    2484:	0000005c 	andeq	r0, r0, ip, asr r0
    2488:	00000000 	andeq	r0, r0, r0
    248c:	8c000200 	sfmhi	f0, 4, [r0], {-0}
    2490:	bc000004 	stclt	0, cr0, [r0], {4}
    2494:	02000004 	andeq	r0, r0, #4, 0
    2498:	009f3000 	addseq	r3, pc, r0
    249c:	00000000 	andeq	r0, r0, r0
    24a0:	07000000 	streq	r0, [r0, -r0]
    24a4:	00048c00 	andeq	r8, r4, r0, lsl #24
    24a8:	0004a400 	andeq	sl, r4, r0, lsl #8
    24ac:	08000300 	stmdaeq	r0, {r8, r9}
    24b0:	00009f73 	andeq	r9, r0, r3, ror pc
    24b4:	00000000 	andeq	r0, r0, r0
    24b8:	000b0000 	andeq	r0, fp, r0
    24bc:	0000048c 	andeq	r0, r0, ip, lsl #9
    24c0:	00000514 	andeq	r0, r0, r4, lsl r5
    24c4:	1c0c0006 	stcne	0, cr0, [ip], {6}
    24c8:	9f202000 	svcls	0x00202000
	...
    24d4:	04940000 	ldreq	r0, [r4], #0
    24d8:	04a40000 	strteq	r0, [r4], #0
    24dc:	00010000 	andeq	r0, r1, r0
    24e0:	00000055 	andeq	r0, r0, r5, asr r0
    24e4:	00000000 	andeq	r0, r0, r0
    24e8:	94000100 	strls	r0, [r0], #-256	; 0xffffff00
    24ec:	a4000004 	strge	r0, [r0], #-4
    24f0:	03000004 	movweq	r0, #4
    24f4:	9f730800 	svcls	0x00730800
	...
    2500:	04940001 	ldreq	r0, [r4], #1
    2504:	04a40000 	strteq	r0, [r4], #0
    2508:	00010000 	andeq	r0, r1, r0
    250c:	00000055 	andeq	r0, r0, r5, asr r0
    2510:	00000000 	andeq	r0, r0, r0
    2514:	06060400 	streq	r0, [r6], -r0, lsl #8
    2518:	00049400 	andeq	r9, r4, r0, lsl #8
    251c:	00049400 	andeq	r9, r4, r0, lsl #8
    2520:	08000300 	stmdaeq	r0, {r8, r9}
    2524:	04949f73 	ldreq	r9, [r4], #3955	; 0xf73
    2528:	04a40000 	strteq	r0, [r4], #0
    252c:	00030000 	andeq	r0, r3, r0
    2530:	009f5f08 	addseq	r5, pc, r8, lsl #30
    2534:	00000000 	andeq	r0, r0, r0
    2538:	04000000 	streq	r0, [r0], #-0
    253c:	00049400 	andeq	r9, r4, r0, lsl #8
    2540:	0004a400 	andeq	sl, r4, r0, lsl #8
    2544:	55000100 	strpl	r0, [r0, #-256]	; 0xffffff00
	...
    2550:	04980000 	ldreq	r0, [r8], #0
    2554:	049c0000 	ldreq	r0, [ip], #0
    2558:	00010000 	andeq	r0, r1, r0
    255c:	0000005c 	andeq	r0, r0, ip, asr r0
    2560:	00000000 	andeq	r0, r0, r0
    2564:	a4000400 	strge	r0, [r0], #-1024	; 0xfffffc00
    2568:	bc000004 	stclt	0, cr0, [r0], {4}
    256c:	04000004 	streq	r0, [r0], #-4
    2570:	01f40a00 	mvnseq	r0, r0, lsl #20
    2574:	0000009f 	muleq	r0, pc, r0	; <UNPREDICTABLE>
    2578:	00000000 	andeq	r0, r0, r0
    257c:	a4000800 	strge	r0, [r0], #-2048	; 0xfffff800
    2580:	14000004 	strne	r0, [r0], #-4
    2584:	06000005 	streq	r0, [r0], -r5
    2588:	00280c00 	eoreq	r0, r8, r0, lsl #24
    258c:	009f2020 	addseq	r2, pc, r0, lsr #32
	...
    2598:	0004ac00 	andeq	sl, r4, r0, lsl #24
    259c:	0004bc00 	andeq	fp, r4, r0, lsl #24
    25a0:	55000100 	strpl	r0, [r0, #-256]	; 0xffffff00
	...
    25ac:	04ac0001 	strteq	r0, [ip], #1
    25b0:	04bc0000 	ldrteq	r0, [ip], #0
    25b4:	00040000 	andeq	r0, r4, r0
    25b8:	9f01f40a 	svcls	0x0001f40a
	...
    25c4:	04ac0001 	strteq	r0, [ip], #1
    25c8:	04bc0000 	ldrteq	r0, [ip], #0
    25cc:	00010000 	andeq	r0, r1, r0
    25d0:	00000055 	andeq	r0, r0, r5, asr r0
    25d4:	00000000 	andeq	r0, r0, r0
    25d8:	06060400 	streq	r0, [r6], -r0, lsl #8
    25dc:	0004ac00 	andeq	sl, r4, r0, lsl #24
    25e0:	0004ac00 	andeq	sl, r4, r0, lsl #24
    25e4:	0a000400 	beq	35ec <__code_start__-0x4a14>
    25e8:	ac9f01f4 	ldfges	f0, [pc], {244}	; 0xf4
    25ec:	bc000004 	stclt	0, cr0, [r0], {4}
    25f0:	04000004 	streq	r0, [r0], #-4
    25f4:	01e00a00 	mvneq	r0, r0, lsl #20
    25f8:	0000009f 	muleq	r0, pc, r0	; <UNPREDICTABLE>
    25fc:	00000000 	andeq	r0, r0, r0
    2600:	ac000400 	cfstrsge	mvf0, [r0], {-0}
    2604:	bc000004 	stclt	0, cr0, [r0], {4}
    2608:	01000004 	tsteq	r0, r4
    260c:	00005500 	andeq	r5, r0, r0, lsl #10
	...
    2618:	000004b0 			; <UNDEFINED> instruction: 0x000004b0
    261c:	000004b4 			; <UNDEFINED> instruction: 0x000004b4
    2620:	005c0001 	subseq	r0, ip, r1
    2624:	00000000 	andeq	r0, r0, r0
    2628:	01000000 	mrseq	r0, (UNDEF: 0)
    262c:	0004c800 	andeq	ip, r4, r0, lsl #16
    2630:	0004f800 	andeq	pc, r4, r0, lsl #16
    2634:	30000200 	andcc	r0, r0, r0, lsl #4
    2638:	0000009f 	muleq	r0, pc, r0	; <UNPREDICTABLE>
    263c:	00000000 	andeq	r0, r0, r0
    2640:	c8000600 	stmdagt	r0, {r9, sl}
    2644:	e0000004 	and	r0, r0, r4
    2648:	03000004 	movweq	r0, #4
    264c:	9f730800 	svcls	0x00730800
	...
    2658:	04c8000a 	strbeq	r0, [r8], #10
    265c:	05140000 	ldreq	r0, [r4, #-0]
    2660:	00060000 	andeq	r0, r6, r0
    2664:	20001c0c 	andcs	r1, r0, ip, lsl #24
    2668:	00009f20 	andeq	r9, r0, r0, lsr #30
	...
    2674:	000004d0 	ldrdeq	r0, [r0], -r0	; <UNPREDICTABLE>
    2678:	000004e0 	andeq	r0, r0, r0, ror #9
    267c:	00550001 	subseq	r0, r5, r1
    2680:	00000000 	andeq	r0, r0, r0
    2684:	01000000 	mrseq	r0, (UNDEF: 0)
    2688:	0004d000 	andeq	sp, r4, r0
    268c:	0004e000 	andeq	lr, r4, r0
    2690:	08000300 	stmdaeq	r0, {r8, r9}
    2694:	00009f73 	andeq	r9, r0, r3, ror pc
    2698:	00000000 	andeq	r0, r0, r0
    269c:	00010000 	andeq	r0, r1, r0
    26a0:	000004d0 	ldrdeq	r0, [r0], -r0	; <UNPREDICTABLE>
    26a4:	000004e0 	andeq	r0, r0, r0, ror #9
    26a8:	00550001 	subseq	r0, r5, r1
    26ac:	00000000 	andeq	r0, r0, r0
    26b0:	04000000 	streq	r0, [r0], #-0
    26b4:	d0000606 	andle	r0, r0, r6, lsl #12
    26b8:	d0000004 	andle	r0, r0, r4
    26bc:	03000004 	movweq	r0, #4
    26c0:	9f730800 	svcls	0x00730800
    26c4:	000004d0 	ldrdeq	r0, [r0], -r0	; <UNPREDICTABLE>
    26c8:	000004e0 	andeq	r0, r0, r0, ror #9
    26cc:	5f080003 	svcpl	0x00080003
    26d0:	0000009f 	muleq	r0, pc, r0	; <UNPREDICTABLE>
    26d4:	00000000 	andeq	r0, r0, r0
    26d8:	d0000400 	andle	r0, r0, r0, lsl #8
    26dc:	e0000004 	and	r0, r0, r4
    26e0:	01000004 	tsteq	r0, r4
    26e4:	00005500 	andeq	r5, r0, r0, lsl #10
	...
    26f0:	000004d4 	ldrdeq	r0, [r0], -r4
    26f4:	000004d8 	ldrdeq	r0, [r0], -r8
    26f8:	005c0001 	subseq	r0, ip, r1
    26fc:	00000000 	andeq	r0, r0, r0
    2700:	04000000 	streq	r0, [r0], #-0
    2704:	0004e000 	andeq	lr, r4, r0
    2708:	0004f800 	andeq	pc, r4, r0, lsl #16
    270c:	0a000400 	beq	3714 <__code_start__-0x48ec>
    2710:	009f01f4 			; <UNDEFINED> instruction: 0x009f01f4
    2714:	00000000 	andeq	r0, r0, r0
    2718:	08000000 	stmdaeq	r0, {}	; <UNPREDICTABLE>
    271c:	0004e000 	andeq	lr, r4, r0
    2720:	00051400 	andeq	r1, r5, r0, lsl #8
    2724:	0c000600 	stceq	6, cr0, [r0], {-0}
    2728:	20200028 	eorcs	r0, r0, r8, lsr #32
    272c:	0000009f 	muleq	r0, pc, r0	; <UNPREDICTABLE>
    2730:	00000000 	andeq	r0, r0, r0
    2734:	e8000000 	stmda	r0, {}	; <UNPREDICTABLE>
    2738:	f8000004 			; <UNDEFINED> instruction: 0xf8000004
    273c:	01000004 	tsteq	r0, r4
    2740:	00005500 	andeq	r5, r0, r0, lsl #10
    2744:	00000000 	andeq	r0, r0, r0
    2748:	00010000 	andeq	r0, r1, r0
    274c:	000004e8 	andeq	r0, r0, r8, ror #9
    2750:	000004f8 	strdeq	r0, [r0], -r8
    2754:	f40a0004 	vst4.8	{d0-d3}, [sl], r4
    2758:	00009f01 	andeq	r9, r0, r1, lsl #30
    275c:	00000000 	andeq	r0, r0, r0
    2760:	00010000 	andeq	r0, r1, r0
    2764:	000004e8 	andeq	r0, r0, r8, ror #9
    2768:	000004f8 	strdeq	r0, [r0], -r8
    276c:	00550001 	subseq	r0, r5, r1
    2770:	00000000 	andeq	r0, r0, r0
    2774:	04000000 	streq	r0, [r0], #-0
    2778:	e8000606 	stmda	r0, {r1, r2, r9, sl}
    277c:	e8000004 	stmda	r0, {r2}
    2780:	04000004 	streq	r0, [r0], #-4
    2784:	01f40a00 	mvnseq	r0, r0, lsl #20
    2788:	0004e89f 	muleq	r4, pc, r8	; <UNPREDICTABLE>
    278c:	0004f800 	andeq	pc, r4, r0, lsl #16
    2790:	0a000400 	beq	3798 <__code_start__-0x4868>
    2794:	009f01e0 	addseq	r0, pc, r0, ror #3
    2798:	00000000 	andeq	r0, r0, r0
    279c:	04000000 	streq	r0, [r0], #-0
    27a0:	0004e800 	andeq	lr, r4, r0, lsl #16
    27a4:	0004f800 	andeq	pc, r4, r0, lsl #16
    27a8:	55000100 	strpl	r0, [r0, #-256]	; 0xffffff00
	...
    27b4:	04ec0000 	strbteq	r0, [ip], #0
    27b8:	04f00000 	ldrbteq	r0, [r0], #0
    27bc:	00010000 	andeq	r0, r1, r0
    27c0:	0000005c 	andeq	r0, r0, ip, asr r0
	...
    27d0:	0000e800 	andeq	lr, r0, r0, lsl #16
    27d4:	00010000 	andeq	r0, r1, r0
    27d8:	50000100 	andpl	r0, r0, r0, lsl #2
    27dc:	00000100 	andeq	r0, r0, r0, lsl #2
    27e0:	00000110 	andeq	r0, r0, r0, lsl r1
    27e4:	01f30004 	mvnseq	r0, r4
    27e8:	01109f50 	tsteq	r0, r0, asr pc
    27ec:	01140000 	tsteq	r4, r0
    27f0:	00010000 	andeq	r0, r1, r0
    27f4:	00011450 	andeq	r1, r1, r0, asr r4
    27f8:	00011c00 	andeq	r1, r1, r0, lsl #24
    27fc:	f3000400 	vshl.u8	d0, d0, d0
    2800:	009f5001 	addseq	r5, pc, r1
    2804:	00000000 	andeq	r0, r0, r0
    2808:	01000000 	mrseq	r0, (UNDEF: 0)
    280c:	00000000 	andeq	r0, r0, r0
    2810:	0000f400 	andeq	pc, r0, r0, lsl #8
    2814:	00010000 	andeq	r0, r1, r0
    2818:	70000b00 	andvc	r0, r0, r0, lsl #22
    281c:	23253500 			; <UNDEFINED> instruction: 0x23253500
    2820:	818080b4 	strhhi	r8, [r0, r4]
    2824:	01009f02 	tsteq	r0, r2, lsl #30
    2828:	01030000 	mrseq	r0, (UNDEF: 3)
    282c:	00010000 	andeq	r0, r1, r0
    2830:	00010350 	andeq	r0, r1, r0, asr r3
    2834:	00011000 	andeq	r1, r1, r0
    2838:	f3000c00 			; <UNDEFINED> instruction: 0xf3000c00
    283c:	25355001 	ldrcs	r5, [r5, #-1]!
    2840:	8080b423 	addhi	fp, r0, r3, lsr #8
    2844:	009f0281 	addseq	r0, pc, r1, lsl #5
	...
    2850:	0000f800 	andeq	pc, r0, r0, lsl #16
    2854:	00011000 	andeq	r1, r1, r0
    2858:	54000100 	strpl	r0, [r0], #-256	; 0xffffff00
	...
    286c:	000000cc 	andeq	r0, r0, ip, asr #1
    2870:	000000db 	ldrdeq	r0, [r0], -fp
    2874:	db500001 	blle	1402880 <__bss_end__+0x13f8890>
    2878:	e0000000 	and	r0, r0, r0
    287c:	04000000 	streq	r0, [r0], #-0
    2880:	5001f300 	andpl	pc, r1, r0, lsl #6
    2884:	0000e09f 	muleq	r0, pc, r0	; <UNPREDICTABLE>
    2888:	0000e300 	andeq	lr, r0, r0, lsl #6
    288c:	50000100 	andpl	r0, r0, r0, lsl #2
    2890:	000000e3 	andeq	r0, r0, r3, ror #1
    2894:	000000e8 	andeq	r0, r0, r8, ror #1
    2898:	01f30004 	mvnseq	r0, r4
    289c:	00009f50 	andeq	r9, r0, r0, asr pc
	...
    28ac:	00cc0000 	sbceq	r0, ip, r0
    28b0:	00db0000 	sbcseq	r0, fp, r0
    28b4:	00010000 	andeq	r0, r1, r0
    28b8:	0000db51 	andeq	sp, r0, r1, asr fp
    28bc:	0000e000 	andeq	lr, r0, r0
    28c0:	f3000400 	vshl.u8	d0, d0, d0
    28c4:	e09f5101 	adds	r5, pc, r1, lsl #2
    28c8:	e3000000 	movw	r0, #0
    28cc:	01000000 	mrseq	r0, (UNDEF: 0)
    28d0:	00e35100 	rsceq	r5, r3, r0, lsl #2
    28d4:	00e80000 	rsceq	r0, r8, r0
    28d8:	00040000 	andeq	r0, r4, r0
    28dc:	9f5101f3 	svcls	0x005101f3
	...
    28ec:	000000bc 	strheq	r0, [r0], -ip
    28f0:	000000c7 	andeq	r0, r0, r7, asr #1
    28f4:	c7500001 	ldrbgt	r0, [r0, -r1]
    28f8:	cc000000 	stcgt	0, cr0, [r0], {-0}
    28fc:	04000000 	streq	r0, [r0], #-0
    2900:	5001f300 	andpl	pc, r1, r0, lsl #6
    2904:	0000009f 	muleq	r0, pc, r0	; <UNPREDICTABLE>
	...
    2910:	00009800 	andeq	r9, r0, r0, lsl #16
    2914:	0000b000 	andeq	fp, r0, r0
    2918:	50000100 	andpl	r0, r0, r0, lsl #2
    291c:	000000b0 	strheq	r0, [r0], -r0	; <UNPREDICTABLE>
    2920:	000000bc 	strheq	r0, [r0], -ip
    2924:	01f30004 	mvnseq	r0, r4
    2928:	00009f50 	andeq	r9, r0, r0, asr pc
	...
    2934:	00740000 	rsbseq	r0, r4, r0
    2938:	008c0000 	addeq	r0, ip, r0
    293c:	00010000 	andeq	r0, r1, r0
    2940:	00008c50 	andeq	r8, r0, r0, asr ip
    2944:	00009800 	andeq	r9, r0, r0, lsl #16
    2948:	f3000400 	vshl.u8	d0, d0, d0
    294c:	009f5001 	addseq	r5, pc, r1
	...
    2958:	64000000 	strvs	r0, [r0], #-0
    295c:	6f000000 	svcvs	0x00000000
    2960:	01000000 	mrseq	r0, (UNDEF: 0)
    2964:	006f5000 	rsbeq	r5, pc, r0
    2968:	00740000 	rsbseq	r0, r4, r0
    296c:	00040000 	andeq	r0, r4, r0
    2970:	9f5001f3 	svcls	0x005001f3
	...
    2984:	00000038 	andeq	r0, r0, r8, lsr r0
    2988:	38500001 	ldmdacc	r0, {r0}^
    298c:	64000000 	strvs	r0, [r0], #-0
    2990:	04000000 	streq	r0, [r0], #-0
    2994:	5001f300 	andpl	pc, r1, r0, lsl #6
    2998:	0000009f 	muleq	r0, pc, r0	; <UNPREDICTABLE>
	...
    29a8:	00004700 	andeq	r4, r0, r0, lsl #14
    29ac:	51000100 	mrspl	r0, (UNDEF: 16)
    29b0:	00000047 	andeq	r0, r0, r7, asr #32
    29b4:	00000064 	andeq	r0, r0, r4, rrx
    29b8:	01f30004 	mvnseq	r0, r4
    29bc:	00009f51 	andeq	r9, r0, r1, asr pc
	...
    29c8:	00000034 	andeq	r0, r0, r4, lsr r0
    29cc:	00000064 	andeq	r0, r0, r4, rrx
    29d0:	00540001 	subseq	r0, r4, r1
	...
    29dc:	00004000 	andeq	r4, r0, r0
    29e0:	00006400 	andeq	r6, r0, r0, lsl #8
    29e4:	56000100 	strpl	r0, [r0], -r0, lsl #2
	...
    29f0:	01000000 	mrseq	r0, (UNDEF: 0)
    29f4:	00000001 	andeq	r0, r0, r1
    29f8:	00000048 	andeq	r0, r0, r8, asr #32
    29fc:	00000050 	andeq	r0, r0, r0, asr r0
    2a00:	50500001 	subspl	r0, r0, r1
    2a04:	50000000 	andpl	r0, r0, r0
    2a08:	01000000 	mrseq	r0, (UNDEF: 0)
    2a0c:	00505100 	subseq	r5, r0, r0, lsl #2
    2a10:	00540000 	subseq	r0, r4, r0
    2a14:	00090000 	andeq	r0, r9, r0
    2a18:	00740075 	rsbseq	r0, r4, r5, ror r0
    2a1c:	21007124 	tstcs	r0, r4, lsr #2
    2a20:	0000549f 	muleq	r0, pc, r4	; <UNPREDICTABLE>
    2a24:	00005b00 	andeq	r5, r0, r0, lsl #22
    2a28:	51000100 	mrspl	r0, (UNDEF: 16)
	...
    2a3c:	00000248 	andeq	r0, r0, r8, asr #4
    2a40:	00000278 	andeq	r0, r0, r8, ror r2
    2a44:	78500001 	ldmdavc	r0, {r0}^
    2a48:	80000002 	andhi	r0, r0, r2
    2a4c:	04000002 	streq	r0, [r0], #-2
    2a50:	5001f300 	andpl	pc, r1, r0, lsl #6
    2a54:	0002809f 	muleq	r2, pc, r0	; <UNPREDICTABLE>
    2a58:	00028b00 	andeq	r8, r2, r0, lsl #22
    2a5c:	50000100 	andpl	r0, r0, r0, lsl #2
    2a60:	0000028b 	andeq	r0, r0, fp, lsl #5
    2a64:	000002c0 	andeq	r0, r0, r0, asr #5
    2a68:	01f30004 	mvnseq	r0, r4
    2a6c:	00009f50 	andeq	r9, r0, r0, asr pc
	...
    2a78:	02480000 	subeq	r0, r8, #0, 0
    2a7c:	028b0000 	addeq	r0, fp, #0, 0
    2a80:	00010000 	andeq	r0, r1, r0
    2a84:	00028b51 	andeq	r8, r2, r1, asr fp
    2a88:	0002c000 	andeq	ip, r2, r0
    2a8c:	f3000400 	vshl.u8	d0, d0, d0
    2a90:	009f5101 	addseq	r5, pc, r1, lsl #2
    2a94:	00000000 	andeq	r0, r0, r0
    2a98:	01000000 	mrseq	r0, (UNDEF: 0)
    2a9c:	00026400 	andeq	r6, r2, r0, lsl #8
    2aa0:	00026c00 	andeq	r6, r2, r0, lsl #24
    2aa4:	34000200 	strcc	r0, [r0], #-512	; 0xfffffe00
    2aa8:	0000009f 	muleq	r0, pc, r0	; <UNPREDICTABLE>
    2aac:	00000000 	andeq	r0, r0, r0
    2ab0:	64000100 	strvs	r0, [r0], #-256	; 0xffffff00
    2ab4:	6c000002 	stcvs	0, cr0, [r0], {2}
    2ab8:	01000002 	tsteq	r0, r2
    2abc:	00005000 	andeq	r5, r0, r0
	...
    2ae0:	01100000 	tsteq	r0, r0
    2ae4:	017b0000 	cmneq	fp, r0
    2ae8:	00010000 	andeq	r0, r1, r0
    2aec:	00017b50 	andeq	r7, r1, r0, asr fp
    2af0:	00018400 	andeq	r8, r1, r0, lsl #8
    2af4:	f3000400 	vshl.u8	d0, d0, d0
    2af8:	849f5001 	ldrhi	r5, [pc], #1	; 2b00 <__code_start__-0x5500>
    2afc:	9c000001 	stcls	0, cr0, [r0], {1}
    2b00:	01000001 	tsteq	r0, r1
    2b04:	019c5000 	orrseq	r5, ip, r0
    2b08:	01a40000 			; <UNDEFINED> instruction: 0x01a40000
    2b0c:	00040000 	andeq	r0, r4, r0
    2b10:	9f5001f3 	svcls	0x005001f3
    2b14:	000001a4 	andeq	r0, r0, r4, lsr #3
    2b18:	000001a7 	andeq	r0, r0, r7, lsr #3
    2b1c:	a7500001 	ldrbge	r0, [r0, -r1]
    2b20:	c8000001 	stmdagt	r0, {r0}
    2b24:	04000001 	streq	r0, [r0], #-1
    2b28:	5001f300 	andpl	pc, r1, r0, lsl #6
    2b2c:	0001c89f 	muleq	r1, pc, r8	; <UNPREDICTABLE>
    2b30:	0001cb00 	andeq	ip, r1, r0, lsl #22
    2b34:	50000100 	andpl	r0, r0, r0, lsl #2
    2b38:	000001cb 	andeq	r0, r0, fp, asr #3
    2b3c:	000001ec 	andeq	r0, r0, ip, ror #3
    2b40:	01f30004 	mvnseq	r0, r4
    2b44:	01ec9f50 	mvneq	r9, r0, asr pc
    2b48:	01ef0000 	mvneq	r0, r0
    2b4c:	00010000 	andeq	r0, r1, r0
    2b50:	0001ef50 	andeq	lr, r1, r0, asr pc
    2b54:	0001f400 	andeq	pc, r1, r0, lsl #8
    2b58:	f3000400 	vshl.u8	d0, d0, d0
    2b5c:	f49f5001 			; <UNDEFINED> instruction: 0xf49f5001
    2b60:	f7000001 			; <UNDEFINED> instruction: 0xf7000001
    2b64:	01000001 	tsteq	r0, r1
    2b68:	01f75000 	mvnseq	r5, r0
    2b6c:	01fc0000 	mvnseq	r0, r0
    2b70:	00040000 	andeq	r0, r4, r0
    2b74:	9f5001f3 	svcls	0x005001f3
    2b78:	000001fc 	strdeq	r0, [r0], -ip
    2b7c:	00000214 	andeq	r0, r0, r4, lsl r2
    2b80:	14500001 	ldrbne	r0, [r0], #-1
    2b84:	48000002 	stmdami	r0, {r1}
    2b88:	04000002 	streq	r0, [r0], #-2
    2b8c:	5001f300 	andpl	pc, r1, r0, lsl #6
    2b90:	0000009f 	muleq	r0, pc, r0	; <UNPREDICTABLE>
	...
    2bb4:	10000000 	andne	r0, r0, r0
    2bb8:	68000001 	stmdavs	r0, {r0}
    2bbc:	01000001 	tsteq	r0, r1
    2bc0:	01685100 	cmneq	r8, r0, lsl #2
    2bc4:	017b0000 	cmneq	fp, r0
    2bc8:	00040000 	andeq	r0, r4, r0
    2bcc:	9f1f0072 	svcls	0x001f0072
    2bd0:	0000017b 	andeq	r0, r0, fp, ror r1
    2bd4:	00000184 	andeq	r0, r0, r4, lsl #3
    2bd8:	01f30004 	mvnseq	r0, r4
    2bdc:	01849f51 	orreq	r9, r4, r1, asr pc
    2be0:	01980000 	orrseq	r0, r8, r0
    2be4:	00010000 	andeq	r0, r1, r0
    2be8:	00019851 	andeq	r9, r1, r1, asr r8
    2bec:	0001a400 	andeq	sl, r1, r0, lsl #8
    2bf0:	f3000400 	vshl.u8	d0, d0, d0
    2bf4:	a49f5101 	ldrge	r5, [pc], #257	; 2bfc <__code_start__-0x5404>
    2bf8:	a7000001 	strge	r0, [r0, -r1]
    2bfc:	01000001 	tsteq	r0, r1
    2c00:	01a75100 			; <UNDEFINED> instruction: 0x01a75100
    2c04:	01c80000 	biceq	r0, r8, r0
    2c08:	00040000 	andeq	r0, r4, r0
    2c0c:	9f5101f3 	svcls	0x005101f3
    2c10:	000001c8 	andeq	r0, r0, r8, asr #3
    2c14:	000001cb 	andeq	r0, r0, fp, asr #3
    2c18:	cb510001 	blgt	1442c24 <__bss_end__+0x1438c34>
    2c1c:	ec000001 	stc	0, cr0, [r0], {1}
    2c20:	04000001 	streq	r0, [r0], #-1
    2c24:	5101f300 	mrspl	pc, SP_irq	; <UNPREDICTABLE>
    2c28:	0001ec9f 	muleq	r1, pc, ip	; <UNPREDICTABLE>
    2c2c:	0001ef00 	andeq	lr, r1, r0, lsl #30
    2c30:	51000100 	mrspl	r0, (UNDEF: 16)
    2c34:	000001ef 	andeq	r0, r0, pc, ror #3
    2c38:	000001f4 	strdeq	r0, [r0], -r4
    2c3c:	01f30004 	mvnseq	r0, r4
    2c40:	01f49f51 	mvnseq	r9, r1, asr pc
    2c44:	01f70000 	mvnseq	r0, r0
    2c48:	00010000 	andeq	r0, r1, r0
    2c4c:	0001f751 	andeq	pc, r1, r1, asr r7	; <UNPREDICTABLE>
    2c50:	0001fc00 	andeq	pc, r1, r0, lsl #24
    2c54:	f3000400 	vshl.u8	d0, d0, d0
    2c58:	fc9f5101 	ldc2	1, cr5, [pc], {1}
    2c5c:	10000001 	andne	r0, r0, r1
    2c60:	01000002 	tsteq	r0, r2
    2c64:	02105100 	andseq	r5, r0, #0
    2c68:	02480000 	subeq	r0, r8, #0, 0
    2c6c:	00040000 	andeq	r0, r4, r0
    2c70:	9f5101f3 	svcls	0x005101f3
	...
    2c7c:	01300003 	teqeq	r0, r3
    2c80:	01340000 	teqeq	r4, r0
    2c84:	00010000 	andeq	r0, r1, r0
    2c88:	00000051 	andeq	r0, r0, r1, asr r0
    2c8c:	00000000 	andeq	r0, r0, r0
    2c90:	4c000000 	stcmi	0, cr0, [r0], {-0}
    2c94:	50000001 	andpl	r0, r0, r1
    2c98:	01000001 	tsteq	r0, r1
    2c9c:	00005100 	andeq	r5, r0, r0, lsl #2
	...
    2ca8:	0000014c 	andeq	r0, r0, ip, asr #2
    2cac:	00000150 	andeq	r0, r0, r0, asr r1
    2cb0:	00530001 	subseq	r0, r3, r1
    2cb4:	00000000 	andeq	r0, r0, r0
    2cb8:	01000000 	mrseq	r0, (UNDEF: 0)
    2cbc:	00000000 	andeq	r0, r0, r0
    2cc0:	58000000 	stmdapl	r0, {}	; <UNPREDICTABLE>
    2cc4:	68000001 	stmdavs	r0, {r0}
    2cc8:	01000001 	tsteq	r0, r1
    2ccc:	01685100 	cmneq	r8, r0, lsl #2
    2cd0:	01700000 	cmneq	r0, r0
    2cd4:	00040000 	andeq	r0, r4, r0
    2cd8:	9f1f0072 	svcls	0x001f0072
    2cdc:	000001fc 	strdeq	r0, [r0], -ip
    2ce0:	00000210 	andeq	r0, r0, r0, lsl r2
    2ce4:	10510001 	subsne	r0, r1, r1
    2ce8:	48000002 	stmdami	r0, {r1}
    2cec:	04000002 	streq	r0, [r0], #-2
    2cf0:	5101f300 	mrspl	pc, SP_irq	; <UNPREDICTABLE>
    2cf4:	0000009f 	muleq	r0, pc, r0	; <UNPREDICTABLE>
    2cf8:	00000000 	andeq	r0, r0, r0
    2cfc:	00000100 	andeq	r0, r0, r0, lsl #2
    2d00:	58000000 	stmdapl	r0, {}	; <UNPREDICTABLE>
    2d04:	70000001 	andvc	r0, r0, r1
    2d08:	01000001 	tsteq	r0, r1
    2d0c:	01fc5300 	mvnseq	r5, r0, lsl #6
    2d10:	02000000 	andeq	r0, r0, #0, 0
    2d14:	00010000 	andeq	r0, r1, r0
    2d18:	00020053 	andeq	r0, r2, r3, asr r0
    2d1c:	00021700 	andeq	r1, r2, r0, lsl #14
    2d20:	03000500 	movweq	r0, #1280	; 0x500
    2d24:	00009be0 	andeq	r9, r0, r0, ror #23
	...
    2d30:	01580004 	cmpeq	r8, r4
    2d34:	015c0000 	cmpeq	ip, r0
    2d38:	00010000 	andeq	r0, r1, r0
    2d3c:	00000051 	andeq	r0, r0, r1, asr r0
	...
    2d54:	24000000 	strcs	r0, [r0], #-0
    2d58:	01000000 	mrseq	r0, (UNDEF: 0)
    2d5c:	00245000 	eoreq	r5, r4, r0
    2d60:	00300000 	eorseq	r0, r0, r0
    2d64:	00030000 	andeq	r0, r3, r0
    2d68:	309f7d70 	addscc	r7, pc, r0, ror sp	; <UNPREDICTABLE>
    2d6c:	58000000 	stmdapl	r0, {}	; <UNPREDICTABLE>
    2d70:	04000000 	streq	r0, [r0], #-0
    2d74:	5001f300 	andpl	pc, r1, r0, lsl #6
    2d78:	0000589f 	muleq	r0, pc, r8	; <UNPREDICTABLE>
    2d7c:	00007000 	andeq	r7, r0, r0
    2d80:	50000100 	andpl	r0, r0, r0, lsl #2
    2d84:	00000070 	andeq	r0, r0, r0, ror r0
    2d88:	00000078 	andeq	r0, r0, r8, ror r0
    2d8c:	01f30004 	mvnseq	r0, r4
    2d90:	00789f50 	rsbseq	r9, r8, r0, asr pc
    2d94:	007b0000 	rsbseq	r0, fp, r0
    2d98:	00010000 	andeq	r0, r1, r0
    2d9c:	00007b50 	andeq	r7, r0, r0, asr fp
    2da0:	00011000 	andeq	r1, r1, r0
    2da4:	f3000400 	vshl.u8	d0, d0, d0
    2da8:	009f5001 	addseq	r5, pc, r1
	...
    2db8:	28000000 	stmdacs	r0, {}	; <UNPREDICTABLE>
    2dbc:	3c000000 	stccc	0, cr0, [r0], {-0}
    2dc0:	01000000 	mrseq	r0, (UNDEF: 0)
    2dc4:	003c5300 	eorseq	r5, ip, r0, lsl #6
    2dc8:	00580000 	subseq	r0, r8, r0
    2dcc:	00090000 	andeq	r0, r9, r0
    2dd0:	235001f3 	cmpcs	r0, #-1073741764	; 0xc000003c
    2dd4:	1afc0903 	bne	fff051e8 <__bss_end__+0xffefb1f8>
    2dd8:	00009c9f 	muleq	r0, pc, ip	; <UNPREDICTABLE>
    2ddc:	00009f00 	andeq	r9, r0, r0, lsl #30
    2de0:	53000100 	movwpl	r0, #256	; 0x100
    2de4:	0000009f 	muleq	r0, pc, r0	; <UNPREDICTABLE>
    2de8:	00000110 	andeq	r0, r0, r0, lsl r1
    2dec:	01f30009 	mvnseq	r0, r9
    2df0:	09032350 	stmdbeq	r3, {r4, r6, r8, r9, sp}
    2df4:	009f1afc 			; <UNDEFINED> instruction: 0x009f1afc
    2df8:	00000000 	andeq	r0, r0, r0
    2dfc:	02000000 	andeq	r0, r0, #0, 0
    2e00:	38000000 	stmdacc	r0, {}	; <UNPREDICTABLE>
    2e04:	58000000 	stmdapl	r0, {}	; <UNPREDICTABLE>
    2e08:	01000000 	mrseq	r0, (UNDEF: 0)
    2e0c:	00c05000 	sbceq	r5, r0, r0
    2e10:	00c30000 	sbceq	r0, r3, r0
    2e14:	00010000 	andeq	r0, r1, r0
    2e18:	00000050 	andeq	r0, r0, r0, asr r0
    2e1c:	00000000 	andeq	r0, r0, r0
    2e20:	20000200 	andcs	r0, r0, r0, lsl #4
    2e24:	28000000 	stmdacs	r0, {}	; <UNPREDICTABLE>
    2e28:	02000000 	andeq	r0, r0, #0, 0
    2e2c:	009f3400 	addseq	r3, pc, r0, lsl #8
    2e30:	00000000 	andeq	r0, r0, r0
    2e34:	02000000 	andeq	r0, r0, #0, 0
    2e38:	20000000 	andcs	r0, r0, r0
    2e3c:	24000000 	strcs	r0, [r0], #-0
    2e40:	01000000 	mrseq	r0, (UNDEF: 0)
    2e44:	00245000 	eoreq	r5, r4, r0
    2e48:	00280000 	eoreq	r0, r8, r0
    2e4c:	00030000 	andeq	r0, r3, r0
    2e50:	009f7d70 	addseq	r7, pc, r0, ror sp	; <UNPREDICTABLE>
	...
    2e5c:	00003002 	andeq	r3, r0, r2
    2e60:	00003000 	andeq	r3, r0, r0
    2e64:	34000200 	strcc	r0, [r0], #-512	; 0xfffffe00
    2e68:	0000009f 	muleq	r0, pc, r0	; <UNPREDICTABLE>
    2e6c:	00000000 	andeq	r0, r0, r0
    2e70:	30020000 	andcc	r0, r2, r0
    2e74:	30000000 	andcc	r0, r0, r0
    2e78:	01000000 	mrseq	r0, (UNDEF: 0)
    2e7c:	00005000 	andeq	r5, r0, r0
	...
    2e8c:	00040000 	andeq	r0, r4, r0
    2e90:	00010000 	andeq	r0, r1, r0
    2e94:	00000452 	andeq	r0, r0, r2, asr r4
    2e98:	00001800 	andeq	r1, r0, r0, lsl #16
    2e9c:	f3000400 	vshl.u8	d0, d0, d0
    2ea0:	009f5201 	addseq	r5, pc, r1, lsl #4
    2ea4:	00000000 	andeq	r0, r0, r0
    2ea8:	02000000 	andeq	r0, r0, #0, 0
    2eac:	01010000 	mrseq	r0, (UNDEF: 1)
    2eb0:	00000000 	andeq	r0, r0, r0
    2eb4:	08000000 	stmdaeq	r0, {}	; <UNPREDICTABLE>
    2eb8:	01000000 	mrseq	r0, (UNDEF: 0)
    2ebc:	00085000 	andeq	r5, r8, r0
    2ec0:	00100000 	andseq	r0, r0, r0
    2ec4:	00010000 	andeq	r0, r1, r0
    2ec8:	00001053 	andeq	r1, r0, r3, asr r0
    2ecc:	00001400 	andeq	r1, r0, r0, lsl #8
    2ed0:	73000300 	movwvc	r0, #768	; 0x300
    2ed4:	00149f01 	andseq	r9, r4, r1, lsl #30
    2ed8:	00180000 	andseq	r0, r8, r0
    2edc:	00010000 	andeq	r0, r1, r0
    2ee0:	00000053 	andeq	r0, r0, r3, asr r0
    2ee4:	00000000 	andeq	r0, r0, r0
    2ee8:	04000000 	streq	r0, [r0], #-0
    2eec:	18000000 	stmdane	r0, {}	; <UNPREDICTABLE>
    2ef0:	01000000 	mrseq	r0, (UNDEF: 0)
    2ef4:	00005200 	andeq	r5, r0, r0, lsl #4
	...
    2f04:	0000002c 	andeq	r0, r0, ip, lsr #32
    2f08:	00000038 	andeq	r0, r0, r8, lsr r0
    2f0c:	38500001 	ldmdacc	r0, {r0}^
    2f10:	48000000 	stmdami	r0, {}	; <UNPREDICTABLE>
    2f14:	01000000 	mrseq	r0, (UNDEF: 0)
    2f18:	00485400 	subeq	r5, r8, r0, lsl #8
    2f1c:	00580000 	subseq	r0, r8, r0
    2f20:	00010000 	andeq	r0, r1, r0
    2f24:	00000050 	andeq	r0, r0, r0, asr r0
	...
    2f34:	00000b00 	andeq	r0, r0, r0, lsl #22
    2f38:	50000100 	andpl	r0, r0, r0, lsl #2
    2f3c:	0000000b 	andeq	r0, r0, fp
    2f40:	00000014 	andeq	r0, r0, r4, lsl r0
    2f44:	00540001 	subseq	r0, r4, r1
	...
    2f50:	00000101 	andeq	r0, r0, r1, lsl #2
    2f54:	08000000 	stmdaeq	r0, {}	; <UNPREDICTABLE>
    2f58:	01000000 	mrseq	r0, (UNDEF: 0)
    2f5c:	00085000 	andeq	r5, r8, r0
    2f60:	00340000 	eorseq	r0, r4, r0
    2f64:	00010000 	andeq	r0, r1, r0
    2f68:	00000054 	andeq	r0, r0, r4, asr r0
	...
    2f74:	88000000 	stmdahi	r0, {}	; <UNPREDICTABLE>
    2f78:	b8000002 	stmdalt	r0, {r1}
    2f7c:	01000002 	tsteq	r0, r2
    2f80:	02b85000 	adcseq	r5, r8, #0, 0
    2f84:	07040000 	streq	r0, [r4, -r0]
    2f88:	00010000 	andeq	r0, r1, r0
    2f8c:	00070459 	andeq	r0, r7, r9, asr r4
    2f90:	00074000 	andeq	r4, r7, r0
    2f94:	f3000400 	vshl.u8	d0, d0, d0
    2f98:	009f5001 	addseq	r5, pc, r1
	...
    2fa8:	00028800 	andeq	r8, r2, r0, lsl #16
    2fac:	0002a000 	andeq	sl, r2, r0
    2fb0:	51000100 	mrspl	r0, (UNDEF: 16)
    2fb4:	000002a0 	andeq	r0, r0, r0, lsr #5
    2fb8:	000002b8 			; <UNDEFINED> instruction: 0x000002b8
    2fbc:	01710003 	cmneq	r1, r3
    2fc0:	0002b89f 	muleq	r2, pc, r8	; <UNPREDICTABLE>
    2fc4:	00074000 	andeq	r4, r7, r0
    2fc8:	f3000400 	vshl.u8	d0, d0, d0
    2fcc:	009f5101 	addseq	r5, pc, r1, lsl #2
	...
    2fe0:	88000000 	stmdahi	r0, {}	; <UNPREDICTABLE>
    2fe4:	b8000002 	stmdalt	r0, {r1}
    2fe8:	01000002 	tsteq	r0, r2
    2fec:	02b85200 	adcseq	r5, r8, #0, 4
    2ff0:	03ec0000 	mvneq	r0, #0, 0
    2ff4:	00010000 	andeq	r0, r1, r0
    2ff8:	0003ec56 	andeq	lr, r3, r6, asr ip
    2ffc:	0004b800 	andeq	fp, r4, r0, lsl #16
    3000:	5b000100 	blpl	3408 <__code_start__-0x4bf8>
    3004:	000004b8 			; <UNDEFINED> instruction: 0x000004b8
    3008:	000004d8 	ldrdeq	r0, [r0], -r8
    300c:	d8560001 	ldmdale	r6, {r0}^
    3010:	5c000004 	stcpl	0, cr0, [r0], {4}
    3014:	01000005 	tsteq	r0, r5
    3018:	055c5b00 	ldrbeq	r5, [ip, #-2816]	; 0xfffff500
    301c:	07040000 	streq	r0, [r4, -r0]
    3020:	00010000 	andeq	r0, r1, r0
    3024:	00000056 	andeq	r0, r0, r6, asr r0
    3028:	00000000 	andeq	r0, r0, r0
    302c:	00000100 	andeq	r0, r0, r0, lsl #2
    3030:	00000000 	andeq	r0, r0, r0
    3034:	00000101 	andeq	r0, r0, r1, lsl #2
    3038:	00000000 	andeq	r0, r0, r0
    303c:	00000202 	andeq	r0, r0, r2, lsl #4
    3040:	00029c00 	andeq	r9, r2, r0, lsl #24
    3044:	0002b800 	andeq	fp, r2, r0, lsl #16
    3048:	50000100 	andpl	r0, r0, r0, lsl #2
    304c:	000002b8 			; <UNDEFINED> instruction: 0x000002b8
    3050:	000002bc 			; <UNDEFINED> instruction: 0x000002bc
    3054:	bc540001 	mrrclt	0, 0, r0, r4, cr1
    3058:	c0000002 	andgt	r0, r0, r2
    305c:	03000002 	movweq	r0, #2
    3060:	9f017400 	svcls	0x00017400
    3064:	000002c0 	andeq	r0, r0, r0, asr #5
    3068:	000002e4 	andeq	r0, r0, r4, ror #5
    306c:	e4540001 	ldrb	r0, [r4], #-1
    3070:	e8000002 	stmda	r0, {r1}
    3074:	03000002 	movweq	r0, #2
    3078:	9f017400 	svcls	0x00017400
    307c:	000002e8 	andeq	r0, r0, r8, ror #5
    3080:	000006d4 	ldrdeq	r0, [r0], -r4
    3084:	d4540001 	ldrble	r0, [r4], #-1
    3088:	d8000006 	stmdale	r0, {r1, r2}
    308c:	03000006 	movweq	r0, #6
    3090:	9f017400 	svcls	0x00017400
    3094:	000006d8 	ldrdeq	r0, [r0], -r8
    3098:	000006f0 	strdeq	r0, [r0], -r0	; <UNPREDICTABLE>
    309c:	f0540001 			; <UNDEFINED> instruction: 0xf0540001
    30a0:	f8000006 			; <UNDEFINED> instruction: 0xf8000006
    30a4:	03000006 	movweq	r0, #6
    30a8:	9f017400 	svcls	0x00017400
    30ac:	000006f8 	strdeq	r0, [r0], -r8
    30b0:	00000704 	andeq	r0, r0, r4, lsl #14
    30b4:	00540001 	subseq	r0, r4, r1
	...
    30c0:	a4000000 	strge	r0, [r0], #-0
    30c4:	04000002 	streq	r0, [r0], #-2
    30c8:	01000007 	tsteq	r0, r7
    30cc:	07045800 	streq	r5, [r4, -r0, lsl #16]
    30d0:	07400000 	strbeq	r0, [r0, -r0]
    30d4:	000a0000 	andeq	r0, sl, r0
    30d8:	f35101f3 	vbsl	q8, <illegal reg q8.5>, <illegal reg q9.5>
    30dc:	31225001 			; <UNDEFINED> instruction: 0x31225001
    30e0:	00009f1c 	andeq	r9, r0, ip, lsl pc
    30e4:	00000000 	andeq	r0, r0, r0
    30e8:	00010000 	andeq	r0, r1, r0
    30ec:	00000000 	andeq	r0, r0, r0
    30f0:	00000408 	andeq	r0, r0, r8, lsl #8
    30f4:	00000474 	andeq	r0, r0, r4, ror r4
    30f8:	d8570001 	ldmdale	r7, {r0}^
    30fc:	fc000004 	stc2	0, cr0, [r0], {4}
    3100:	01000004 	tsteq	r0, r4
    3104:	05405700 	strbeq	r5, [r0, #-1792]	; 0xfffff900
    3108:	055c0000 	ldrbeq	r0, [ip, #-0]
    310c:	00010000 	andeq	r0, r1, r0
    3110:	00000057 	andeq	r0, r0, r7, asr r0
    3114:	00000000 	andeq	r0, r0, r0
    3118:	00000200 	andeq	r0, r0, r0, lsl #4
    311c:	00040800 	andeq	r0, r4, r0, lsl #16
    3120:	0004b800 	andeq	fp, r4, r0, lsl #16
    3124:	5a000100 	bpl	352c <__code_start__-0x4ad4>
    3128:	000004d8 	ldrdeq	r0, [r0], -r8
    312c:	0000055c 	andeq	r0, r0, ip, asr r5
    3130:	005a0001 	subseq	r0, sl, r1
    3134:	00000000 	andeq	r0, r0, r0
    3138:	01000000 	mrseq	r0, (UNDEF: 0)
    313c:	ac000000 	stcge	0, cr0, [r0], {-0}
    3140:	b8000002 	stmdalt	r0, {r1}
    3144:	01000002 	tsteq	r0, r2
    3148:	02b85200 	adcseq	r5, r8, #0, 4
    314c:	07400000 	strbeq	r0, [r0, -r0]
    3150:	00030000 	andeq	r0, r3, r0
    3154:	007dc891 			; <UNDEFINED> instruction: 0x007dc891
	...
    3168:	00000101 	andeq	r0, r0, r1, lsl #2
	...
    3174:	00047400 	andeq	r7, r4, r0, lsl #8
    3178:	00048c00 	andeq	r8, r4, r0, lsl #24
    317c:	50000100 	andpl	r0, r0, r0, lsl #2
    3180:	0000048c 	andeq	r0, r0, ip, lsl #9
    3184:	000004b8 			; <UNDEFINED> instruction: 0x000004b8
    3188:	fc570001 	mrrc2	0, 0, r0, r7, cr1
    318c:	14000004 	strne	r0, [r0], #-4
    3190:	01000005 	tsteq	r0, r5
    3194:	05145000 	ldreq	r5, [r4, #-0]
    3198:	05400000 	strbeq	r0, [r0, #-0]
    319c:	00010000 	andeq	r0, r1, r0
    31a0:	0005a457 	andeq	sl, r5, r7, asr r4
    31a4:	0005a400 	andeq	sl, r5, r0, lsl #8
    31a8:	50000100 	andpl	r0, r0, r0, lsl #2
    31ac:	000005a4 	andeq	r0, r0, r4, lsr #11
    31b0:	000005ac 	andeq	r0, r0, ip, lsr #11
    31b4:	dc570001 	mrrcle	0, 0, r0, r7, cr1
    31b8:	e0000005 	and	r0, r0, r5
    31bc:	01000005 	tsteq	r0, r5
    31c0:	06105000 	ldreq	r5, [r0], -r0
    31c4:	06140000 	ldreq	r0, [r4], -r0
    31c8:	00010000 	andeq	r0, r1, r0
    31cc:	00064450 	andeq	r4, r6, r0, asr r4
    31d0:	00064800 	andeq	r4, r6, r0, lsl #16
    31d4:	50000100 	andpl	r0, r0, r0, lsl #2
    31d8:	0000068c 	andeq	r0, r0, ip, lsl #13
    31dc:	00000690 	muleq	r0, r0, r6
    31e0:	d0500001 	subsle	r0, r0, r1
    31e4:	f0000006 			; <UNDEFINED> instruction: 0xf0000006
    31e8:	01000006 	tsteq	r0, r6
    31ec:	00005700 	andeq	r5, r0, r0, lsl #14
    31f0:	00000000 	andeq	r0, r0, r0
    31f4:	00020000 	andeq	r0, r2, r0
    31f8:	00000000 	andeq	r0, r0, r0
    31fc:	000002f4 	strdeq	r0, [r0], -r4
    3200:	000002f8 	strdeq	r0, [r0], -r8
    3204:	9f300002 	svcls	0x00300002
    3208:	000002f8 	strdeq	r0, [r0], -r8
    320c:	00000314 	andeq	r0, r0, r4, lsl r3
    3210:	1c550001 	mrrcne	0, 0, r0, r5, cr1
    3214:	f0000003 			; <UNDEFINED> instruction: 0xf0000003
    3218:	01000006 	tsteq	r0, r6
    321c:	00005500 	andeq	r5, r0, r0, lsl #10
    3220:	00000000 	andeq	r0, r0, r0
    3224:	00010000 	andeq	r0, r1, r0
	...
    3230:	000003b8 			; <UNDEFINED> instruction: 0x000003b8
    3234:	00000454 	andeq	r0, r0, r4, asr r4
    3238:	54560001 	ldrbpl	r0, [r6], #-1
    323c:	b8000004 	stmdalt	r0, {r2}
    3240:	03000004 	movweq	r0, #4
    3244:	9f7e7b00 	svcls	0x007e7b00
    3248:	000004b8 			; <UNDEFINED> instruction: 0x000004b8
    324c:	000004dc 	ldrdeq	r0, [r0], -ip
    3250:	dc560001 	mrrcle	0, 0, r0, r6, cr1
    3254:	40000004 	andmi	r0, r0, r4
    3258:	03000005 	movweq	r0, #5
    325c:	9f7e7b00 	svcls	0x007e7b00
    3260:	00000540 	andeq	r0, r0, r0, asr #10
    3264:	0000055c 	andeq	r0, r0, ip, asr r5
    3268:	00560001 	subseq	r0, r6, r1
	...
    3278:	00007000 	andeq	r7, r0, r0
    327c:	00009400 	andeq	r9, r0, r0, lsl #8
    3280:	50000100 	andpl	r0, r0, r0, lsl #2
    3284:	00000094 	muleq	r0, r4, r0
    3288:	000000fc 	strdeq	r0, [r0], -ip
    328c:	02700003 	rsbseq	r0, r0, #3, 0
    3290:	0000fc9f 	muleq	r0, pc, ip	; <UNPREDICTABLE>
    3294:	00022400 	andeq	r2, r2, r0, lsl #8
    3298:	f3000400 	vshl.u8	d0, d0, d0
    329c:	009f5001 	addseq	r5, pc, r1
	...
    32b4:	70000000 	andvc	r0, r0, r0
    32b8:	e0000000 	and	r0, r0, r0
    32bc:	01000000 	mrseq	r0, (UNDEF: 0)
    32c0:	00e05100 	rsceq	r5, r0, r0, lsl #2
    32c4:	01540000 	cmpeq	r4, r0
    32c8:	00010000 	andeq	r0, r1, r0
    32cc:	00015455 	andeq	r5, r1, r5, asr r4
    32d0:	00015800 	andeq	r5, r1, r0, lsl #16
    32d4:	51000100 	mrspl	r0, (UNDEF: 16)
    32d8:	00000158 	andeq	r0, r0, r8, asr r1
    32dc:	000001b0 			; <UNDEFINED> instruction: 0x000001b0
    32e0:	b0550001 	subslt	r0, r5, r1
    32e4:	c0000001 	andgt	r0, r0, r1
    32e8:	01000001 	tsteq	r0, r1
    32ec:	01c05100 	biceq	r5, r0, r0, lsl #2
    32f0:	01e40000 	mvneq	r0, r0
    32f4:	00010000 	andeq	r0, r1, r0
    32f8:	0001e455 	andeq	lr, r1, r5, asr r4
    32fc:	0001f800 	andeq	pc, r1, r0, lsl #16
    3300:	51000100 	mrspl	r0, (UNDEF: 16)
    3304:	000001f8 	strdeq	r0, [r0], -r8
    3308:	00000224 	andeq	r0, r0, r4, lsr #4
    330c:	00550001 	subseq	r0, r5, r1
	...
    3318:	70000000 	andvc	r0, r0, r0
    331c:	84000000 	strhi	r0, [r0], #-0
    3320:	01000000 	mrseq	r0, (UNDEF: 0)
    3324:	00845200 	addeq	r5, r4, r0, lsl #4
    3328:	02240000 	eoreq	r0, r4, #0, 0
    332c:	00010000 	andeq	r0, r1, r0
    3330:	00000054 	andeq	r0, r0, r4, asr r0
	...
    333c:	00010000 	andeq	r0, r1, r0
    3340:	00000000 	andeq	r0, r0, r0
    3344:	00007000 	andeq	r7, r0, r0
    3348:	0000f400 	andeq	pc, r0, r0, lsl #8
    334c:	53000100 	movwpl	r0, #256	; 0x100
    3350:	0000014c 	andeq	r0, r0, ip, asr #2
    3354:	00000180 	andeq	r0, r0, r0, lsl #3
    3358:	80530001 	subshi	r0, r3, r1
    335c:	8c000001 	stchi	0, cr0, [r0], {1}
    3360:	04000001 	streq	r0, [r0], #-1
    3364:	5301f300 	movwpl	pc, #4864	; 0x1300	; <UNPREDICTABLE>
    3368:	0001b09f 	muleq	r1, pc, r0	; <UNPREDICTABLE>
    336c:	0001e800 	andeq	lr, r1, r0, lsl #16
    3370:	53000100 	movwpl	r0, #256	; 0x100
    3374:	000001e8 	andeq	r0, r0, r8, ror #3
    3378:	000001ff 	strdeq	r0, [r0], -pc	; <UNPREDICTABLE>
    337c:	ff5c0001 			; <UNDEFINED> instruction: 0xff5c0001
    3380:	24000001 	strcs	r0, [r0], #-1
    3384:	04000002 	streq	r0, [r0], #-2
    3388:	5301f300 	movwpl	pc, #4864	; 0x1300	; <UNPREDICTABLE>
    338c:	0000009f 	muleq	r0, pc, r0	; <UNPREDICTABLE>
	...
    3398:	70000000 	andvc	r0, r0, r0
    339c:	8c000000 	stchi	0, cr0, [r0], {-0}
    33a0:	02000000 	andeq	r0, r0, #0, 0
    33a4:	8c009100 	stfhid	f1, [r0], {-0}
    33a8:	93000000 	movwls	r0, #0
    33ac:	01000001 	tsteq	r0, r1
    33b0:	01b05200 	lslseq	r5, r0, #4
    33b4:	01f40000 	mvnseq	r0, r0
    33b8:	00010000 	andeq	r0, r1, r0
    33bc:	00000052 	andeq	r0, r0, r2, asr r0
    33c0:	00000000 	andeq	r0, r0, r0
    33c4:	00000100 	andeq	r0, r0, r0, lsl #2
    33c8:	00000101 	andeq	r0, r0, r1, lsl #2
    33cc:	00000000 	andeq	r0, r0, r0
    33d0:	01010000 	mrseq	r0, (UNDEF: 1)
    33d4:	00000101 	andeq	r0, r0, r1, lsl #2
    33d8:	00000101 	andeq	r0, r0, r1, lsl #2
	...
    33e4:	00008c00 	andeq	r8, r0, r0, lsl #24
    33e8:	0000fc00 	andeq	pc, r0, r0, lsl #24
    33ec:	91000400 	tstls	r0, r0, lsl #8
    33f0:	fc9f7fa0 	ldc2	15, cr7, [pc], {160}	; 0xa0
    33f4:	3c000000 	stccc	0, cr0, [r0], {-0}
    33f8:	01000001 	tsteq	r0, r1
    33fc:	013c5000 	teqeq	ip, r0
    3400:	01480000 	mrseq	r0, (UNDEF: 72)
    3404:	00030000 	andeq	r0, r3, r0
    3408:	489f0271 	ldmmi	pc, {r0, r4, r5, r6, r9}	; <UNPREDICTABLE>
    340c:	4c000001 	stcmi	0, cr0, [r0], {1}
    3410:	01000001 	tsteq	r0, r1
    3414:	014c5000 	mrseq	r5, (UNDEF: 76)
    3418:	01580000 	cmpeq	r8, r0
    341c:	00040000 	andeq	r0, r4, r0
    3420:	9f7fa091 	svcls	0x007fa091
    3424:	00000158 	andeq	r0, r0, r8, asr r1
    3428:	0000016c 	andeq	r0, r0, ip, ror #2
    342c:	6c510001 	mrrcvs	0, 0, r0, r1, cr1
    3430:	78000001 	stmdavc	r0, {r0}
    3434:	03000001 	movweq	r0, #1
    3438:	9f7f7100 	svcls	0x007f7100
    343c:	00000178 	andeq	r0, r0, r8, ror r1
    3440:	00000184 	andeq	r0, r0, r4, lsl #3
    3444:	01710003 	cmneq	r1, r3
    3448:	0001849f 	muleq	r1, pc, r4	; <UNPREDICTABLE>
    344c:	00019300 	andeq	r9, r1, r0, lsl #6
    3450:	50000100 	andpl	r0, r0, r0, lsl #2
    3454:	000001b0 			; <UNDEFINED> instruction: 0x000001b0
    3458:	000001b0 			; <UNDEFINED> instruction: 0x000001b0
    345c:	a0910004 	addsge	r0, r1, r4
    3460:	01b09f7f 	rorseq	r9, pc, pc
    3464:	01b80000 			; <UNDEFINED> instruction: 0x01b80000
    3468:	00040000 	andeq	r0, r4, r0
    346c:	9f7fa191 	svcls	0x007fa191
    3470:	000001b8 			; <UNDEFINED> instruction: 0x000001b8
    3474:	000001bc 			; <UNDEFINED> instruction: 0x000001bc
    3478:	bc500001 	mrrclt	0, 0, r0, r0, cr1	; <UNPREDICTABLE>
    347c:	c0000001 	andgt	r0, r0, r1
    3480:	04000001 	streq	r0, [r0], #-1
    3484:	7fa09100 	svcvc	0x00a09100
    3488:	0001c09f 	muleq	r1, pc, r0	; <UNPREDICTABLE>
    348c:	0001d400 	andeq	sp, r1, r0, lsl #8
    3490:	50000100 	andpl	r0, r0, r0, lsl #2
    3494:	000001d4 	ldrdeq	r0, [r0], -r4
    3498:	000001e4 	andeq	r0, r0, r4, ror #3
    349c:	7f700003 	svcvc	0x00700003
    34a0:	0001e49f 	muleq	r1, pc, r4	; <UNPREDICTABLE>
    34a4:	00022400 	andeq	r2, r2, r0, lsl #8
    34a8:	91000400 	tstls	r0, r0, lsl #8
    34ac:	009f7fa0 	addseq	r7, pc, r0, lsr #31
	...
    34b8:	01010000 	mrseq	r0, (UNDEF: 1)
	...
    34c8:	90000000 	andls	r0, r0, r0
    34cc:	dc000000 	stcle	0, cr0, [r0], {-0}
    34d0:	01000000 	mrseq	r0, (UNDEF: 0)
    34d4:	00dc5c00 	sbcseq	r5, ip, r0, lsl #24
    34d8:	00f40000 	rscseq	r0, r4, r0
    34dc:	00010000 	andeq	r0, r1, r0
    34e0:	0000f453 	andeq	pc, r0, r3, asr r4	; <UNPREDICTABLE>
    34e4:	00014c00 	andeq	r4, r1, r0, lsl #24
    34e8:	5c000100 	stfpls	f0, [r0], {-0}
    34ec:	0000014c 	andeq	r0, r0, ip, asr #2
    34f0:	00000158 	andeq	r0, r0, r8, asr r1
    34f4:	58530001 	ldmdapl	r3, {r0}^
    34f8:	74000001 	strvc	r0, [r0], #-1
    34fc:	01000001 	tsteq	r0, r1
    3500:	01b05c00 	lslseq	r5, r0, #24
    3504:	01c00000 	biceq	r0, r0, r0
    3508:	00010000 	andeq	r0, r1, r0
    350c:	0001c053 	andeq	ip, r1, r3, asr r0
    3510:	0001dc00 	andeq	sp, r1, r0, lsl #24
    3514:	5c000100 	stfpls	f0, [r0], {-0}
    3518:	000001e4 	andeq	r0, r0, r4, ror #3
    351c:	000001e8 	andeq	r0, r0, r8, ror #3
    3520:	e8530001 	ldmda	r3, {r0}^
    3524:	ff000001 			; <UNDEFINED> instruction: 0xff000001
    3528:	01000001 	tsteq	r0, r1
    352c:	01ff5c00 	mvnseq	r5, r0, lsl #24
    3530:	02240000 	eoreq	r0, r4, #0, 0
    3534:	00040000 	andeq	r0, r4, r0
    3538:	9f5301f3 	svcls	0x005301f3
	...
    3544:	00010101 	andeq	r0, r1, r1, lsl #2
    3548:	00000000 	andeq	r0, r0, r0
    354c:	000000dc 	ldrdeq	r0, [r0], -ip
    3550:	000000f0 	strdeq	r0, [r0], -r0	; <UNPREDICTABLE>
    3554:	9f300002 	svcls	0x00300002
    3558:	000000f0 	strdeq	r0, [r0], -r0	; <UNPREDICTABLE>
    355c:	000000f8 	strdeq	r0, [r0], -r8
    3560:	9f310002 	svcls	0x00310002
    3564:	000000fc 	strdeq	r0, [r0], -ip
    3568:	0000014c 	andeq	r0, r0, ip, asr #2
    356c:	4c560001 	mrrcmi	0, 0, r0, r6, cr1
    3570:	54000001 	strpl	r0, [r0], #-1
    3574:	02000001 	andeq	r0, r0, #1, 0
    3578:	009f3000 	addseq	r3, pc, r0
	...
    3584:	01010000 	mrseq	r0, (UNDEF: 1)
    3588:	01010000 	mrseq	r0, (UNDEF: 1)
    358c:	00003800 	andeq	r3, r0, r0, lsl #16
    3590:	00005400 	andeq	r5, r0, r0, lsl #8
    3594:	50000100 	andpl	r0, r0, r0, lsl #2
    3598:	00000054 	andeq	r0, r0, r4, asr r0
    359c:	00000058 	andeq	r0, r0, r8, asr r0
    35a0:	58520001 	ldmdapl	r2, {r0}^
    35a4:	60000000 	andvs	r0, r0, r0
    35a8:	03000000 	movweq	r0, #0
    35ac:	9f017200 	svcls	0x00017200
    35b0:	00000060 	andeq	r0, r0, r0, rrx
    35b4:	00000064 	andeq	r0, r0, r4, rrx
    35b8:	64520001 	ldrbvs	r0, [r2], #-1
    35bc:	70000000 	andvc	r0, r0, r0
    35c0:	03000000 	movweq	r0, #0
    35c4:	9f017200 	svcls	0x00017200
	...
    35d4:	00000038 	andeq	r0, r0, r8, lsr r0
    35d8:	00000050 	andeq	r0, r0, r0, asr r0
    35dc:	50510001 	subspl	r0, r1, r1
    35e0:	70000000 	andvc	r0, r0, r0
    35e4:	04000000 	streq	r0, [r0], #-0
    35e8:	5101f300 	mrspl	pc, SP_irq	; <UNPREDICTABLE>
    35ec:	0000009f 	muleq	r0, pc, r0	; <UNPREDICTABLE>
	...
    35f8:	01010000 	mrseq	r0, (UNDEF: 1)
    35fc:	00003800 	andeq	r3, r0, r0, lsl #16
    3600:	00005000 	andeq	r5, r0, r0
    3604:	52000100 	andpl	r0, r0, #0
    3608:	00000050 	andeq	r0, r0, r0, asr r0
    360c:	0000005c 	andeq	r0, r0, ip, asr r0
    3610:	5c510001 	mrrcpl	0, 0, r0, r1, cr1
    3614:	60000000 	andvs	r0, r0, r0
    3618:	03000000 	movweq	r0, #0
    361c:	9f017100 	svcls	0x00017100
    3620:	00000060 	andeq	r0, r0, r0, rrx
    3624:	00000070 	andeq	r0, r0, r0, ror r0
    3628:	00510001 	subseq	r0, r1, r1
	...
    3634:	38000000 	stmdacc	r0, {}	; <UNPREDICTABLE>
    3638:	4c000000 	stcmi	0, cr0, [r0], {-0}
    363c:	01000000 	mrseq	r0, (UNDEF: 0)
    3640:	004c5300 	subeq	r5, ip, r0, lsl #6
    3644:	00680000 	rsbeq	r0, r8, r0
    3648:	00010000 	andeq	r0, r1, r0
    364c:	00000053 	andeq	r0, r0, r3, asr r0
	...
    365c:	00004000 	andeq	r4, r0, r0
    3660:	00004800 	andeq	r4, r0, r0, lsl #16
    3664:	5c000100 	stfpls	f0, [r0], {-0}
    3668:	00000048 	andeq	r0, r0, r8, asr #32
    366c:	0000004c 	andeq	r0, r0, ip, asr #32
    3670:	00720008 	rsbseq	r0, r2, r8
    3674:	231c0073 	tstcs	ip, #115, 0	; 0x73
    3678:	004c9f01 	subeq	r9, ip, r1, lsl #30
    367c:	00540000 	subseq	r0, r4, r0
    3680:	00090000 	andeq	r0, r9, r0
    3684:	01f30072 	mvnseq	r0, r2, ror r0
    3688:	01231c53 			; <UNDEFINED> instruction: 0x01231c53
    368c:	0000549f 	muleq	r0, pc, r4	; <UNPREDICTABLE>
    3690:	00007000 	andeq	r7, r0, r0
    3694:	f3000a00 	vpmax.u8	d0, d0, d0
    3698:	01f35201 	mvnseq	r5, r1, lsl #4
    369c:	01231c53 			; <UNDEFINED> instruction: 0x01231c53
    36a0:	0000009f 	muleq	r0, pc, r0	; <UNPREDICTABLE>
    36a4:	00000000 	andeq	r0, r0, r0
    36a8:	4c000100 	stfmis	f0, [r0], {-0}
    36ac:	70000000 	andvc	r0, r0, r0
    36b0:	01000000 	mrseq	r0, (UNDEF: 0)
    36b4:	00005000 	andeq	r5, r0, r0
    36b8:	00000000 	andeq	r0, r0, r0
    36bc:	01000000 	mrseq	r0, (UNDEF: 0)
    36c0:	00000001 	andeq	r0, r0, r1
    36c4:	00000014 	andeq	r0, r0, r4, lsl r0
    36c8:	0000001c 	andeq	r0, r0, ip, lsl r0
    36cc:	1c500001 	mrrcne	0, 0, r0, r0, cr1	; <UNPREDICTABLE>
    36d0:	24000000 	strcs	r0, [r0], #-0
    36d4:	03000000 	movweq	r0, #0
    36d8:	9f017000 	svcls	0x00017000
    36dc:	00000024 	andeq	r0, r0, r4, lsr #32
    36e0:	00000038 	andeq	r0, r0, r8, lsr r0
    36e4:	00500001 	subseq	r0, r0, r1
	...
    36f0:	14000000 	strne	r0, [r0], #-0
    36f4:	18000000 	stmdane	r0, {}	; <UNPREDICTABLE>
    36f8:	01000000 	mrseq	r0, (UNDEF: 0)
    36fc:	00185100 	andseq	r5, r8, r0, lsl #2
    3700:	00380000 	eorseq	r0, r8, r0
    3704:	00040000 	andeq	r0, r4, r0
    3708:	9f5101f3 	svcls	0x005101f3
	...
    3714:	00180000 	andseq	r0, r8, r0
    3718:	00380000 	eorseq	r0, r8, r0
    371c:	00010000 	andeq	r0, r1, r0
    3720:	00000051 	andeq	r0, r0, r1, asr r0
	...
    3730:	04000000 	streq	r0, [r0], #-0
    3734:	01000000 	mrseq	r0, (UNDEF: 0)
    3738:	00045000 	andeq	r5, r4, r0
    373c:	000c0000 	andeq	r0, ip, r0
    3740:	00030000 	andeq	r0, r3, r0
    3744:	0c9f3070 	ldceq	0, cr3, [pc], {112}	; 0x70
    3748:	14000000 	strne	r0, [r0], #-0
    374c:	04000000 	streq	r0, [r0], #-0
    3750:	5001f300 	andpl	pc, r1, r0, lsl #6
    3754:	0000009f 	muleq	r0, pc, r0	; <UNPREDICTABLE>
	...
    3760:	00022400 	andeq	r2, r2, r0, lsl #8
    3764:	00026800 	andeq	r6, r2, r0, lsl #16
    3768:	50000100 	andpl	r0, r0, r0, lsl #2
    376c:	00000268 	andeq	r0, r0, r8, ror #4
    3770:	00000288 	andeq	r0, r0, r8, lsl #5
    3774:	01f30004 	mvnseq	r0, r4
    3778:	00009f50 	andeq	r9, r0, r0, asr pc
	...
    3784:	02240000 	eoreq	r0, r4, #0, 0
    3788:	02640000 	rsbeq	r0, r4, #0, 0
    378c:	00010000 	andeq	r0, r1, r0
    3790:	00026451 	andeq	r6, r2, r1, asr r4
    3794:	00028800 	andeq	r8, r2, r0, lsl #16
    3798:	f3000400 	vshl.u8	d0, d0, d0
    379c:	009f5101 	addseq	r5, pc, r1, lsl #2
	...
    37a8:	00000101 	andeq	r0, r0, r1, lsl #2
    37ac:	00942400 	addseq	r2, r4, r0, lsl #8
    37b0:	00942400 	addseq	r2, r4, r0, lsl #8
    37b4:	53000100 	movwpl	r0, #256	; 0x100
    37b8:	00009424 	andeq	r9, r0, r4, lsr #8
    37bc:	00009428 	andeq	r9, r0, r8, lsr #8
    37c0:	00730007 	rsbseq	r0, r3, r7
    37c4:	1aefff0b 	bne	ffc033f8 <__bss_end__+0xffbf9408>
    37c8:	0094289f 	umullseq	r2, r4, pc, r8	; <UNPREDICTABLE>
    37cc:	00943000 	addseq	r3, r4, r0
    37d0:	53000100 	movwpl	r0, #256	; 0x100
	...
    37dc:	00010100 	andeq	r0, r1, r0, lsl #2
    37e0:	94140000 	ldrls	r0, [r4], #-0
    37e4:	94140000 	ldrls	r0, [r4], #-0
    37e8:	00010000 	andeq	r0, r1, r0
    37ec:	00941453 	addseq	r1, r4, r3, asr r4
    37f0:	00941800 	addseq	r1, r4, r0, lsl #16
    37f4:	73000700 	movwvc	r0, #1792	; 0x700
    37f8:	10000a00 	andne	r0, r0, r0, lsl #20
    37fc:	94189f21 	ldrls	r9, [r8], #-3873	; 0xfffff0df
    3800:	94200000 	strtls	r0, [r0], #-0
    3804:	00010000 	andeq	r0, r1, r0
    3808:	00000053 	andeq	r0, r0, r3, asr r0
    380c:	00000000 	andeq	r0, r0, r0
    3810:	01010000 	mrseq	r0, (UNDEF: 1)
    3814:	0c000000 	stceq	0, cr0, [r0], {-0}
    3818:	14000000 	strne	r0, [r0], #-0
    381c:	01000000 	mrseq	r0, (UNDEF: 0)
    3820:	00145300 	andseq	r5, r4, r0, lsl #6
    3824:	001c0000 	andseq	r0, ip, r0
    3828:	00030000 	andeq	r0, r3, r0
    382c:	1c9f0473 	cfldrsne	mvf0, [pc], {115}	; 0x73
    3830:	23000000 	movwcs	r0, #0
    3834:	01000000 	mrseq	r0, (UNDEF: 0)
    3838:	00005300 	andeq	r5, r0, r0, lsl #6
    383c:	00000000 	andeq	r0, r0, r0
    3840:	00010000 	andeq	r0, r1, r0
    3844:	000094e8 	andeq	r9, r0, r8, ror #9
    3848:	00009504 	andeq	r9, r0, r4, lsl #10
    384c:	1c0c0006 	stcne	0, cr0, [ip], {6}
    3850:	9f201000 	svcls	0x00201000
	...
    385c:	94e80002 	strbtls	r0, [r8], #2
    3860:	95040000 	strls	r0, [r4, #-0]
    3864:	00060000 	andeq	r0, r6, r0
    3868:	1000240c 	andne	r2, r0, ip, lsl #8
    386c:	00009f20 	andeq	r9, r0, r0, lsr #30
    3870:	00000000 	andeq	r0, r0, r0
    3874:	00030000 	andeq	r0, r3, r0
    3878:	000094e8 	andeq	r9, r0, r8, ror #9
    387c:	00009504 	andeq	r9, r0, r4, lsl #10
    3880:	b4080005 	strlt	r0, [r8], #-5
    3884:	009f2447 	addseq	r2, pc, r7, asr #8
    3888:	00000000 	andeq	r0, r0, r0
    388c:	04000000 	streq	r0, [r0], #-0
    3890:	0094e800 	addseq	lr, r4, r0, lsl #16
    3894:	00950400 	addseq	r0, r5, r0, lsl #8
    3898:	08000300 	stmdaeq	r0, {r8, r9}
    389c:	00009f20 	andeq	r9, r0, r0, lsr #30
    38a0:	00000000 	andeq	r0, r0, r0
    38a4:	00020000 	andeq	r0, r2, r0
    38a8:	00000000 	andeq	r0, r0, r0
    38ac:	000094b4 			; <UNDEFINED> instruction: 0x000094b4
    38b0:	000094b8 			; <UNDEFINED> instruction: 0x000094b8
    38b4:	9f300002 	svcls	0x00300002
    38b8:	000094b8 			; <UNDEFINED> instruction: 0x000094b8
    38bc:	000094bc 			; <UNDEFINED> instruction: 0x000094bc
    38c0:	c0530001 	subsgt	r0, r3, r1
    38c4:	c8000094 	stmdagt	r0, {r2, r4, r7}
    38c8:	01000094 	swpeq	r0, r4, [r0]	; <UNPREDICTABLE>
    38cc:	00005300 	andeq	r5, r0, r0, lsl #6
    38d0:	00000000 	andeq	r0, r0, r0
    38d4:	00020000 	andeq	r0, r2, r0
    38d8:	949c0000 	ldrls	r0, [ip], #0
    38dc:	94a00000 	strtls	r0, [r0], #0
    38e0:	00020000 	andeq	r0, r2, r0
    38e4:	94a09f30 	strtls	r9, [r0], #3888	; 0xf30
    38e8:	94a40000 	strtls	r0, [r4], #0
    38ec:	00010000 	andeq	r0, r1, r0
    38f0:	00000050 	andeq	r0, r0, r0, asr r0
	...
    38fc:	00006c00 	andeq	r6, r0, r0, lsl #24
    3900:	00007800 	andeq	r7, r0, r0, lsl #16
    3904:	50000100 	andpl	r0, r0, r0, lsl #2
    3908:	00000078 	andeq	r0, r0, r8, ror r0
    390c:	00000084 	andeq	r0, r0, r4, lsl #1
    3910:	01f30004 	mvnseq	r0, r4
    3914:	00009f50 	andeq	r9, r0, r0, asr pc
	...
    3920:	00540000 	subseq	r0, r4, r0
    3924:	00600000 	rsbeq	r0, r0, r0
    3928:	00010000 	andeq	r0, r1, r0
    392c:	00006050 	andeq	r6, r0, r0, asr r0
    3930:	00006c00 	andeq	r6, r0, r0, lsl #24
    3934:	f3000400 	vshl.u8	d0, d0, d0
    3938:	009f5001 	addseq	r5, pc, r1
	...
    3944:	30000000 	andcc	r0, r0, r0
    3948:	3b000000 	blcc	3950 <__code_start__-0x46b0>
    394c:	01000000 	mrseq	r0, (UNDEF: 0)
    3950:	003b5000 	eorseq	r5, fp, r0
    3954:	00540000 	subseq	r0, r4, r0
    3958:	00010000 	andeq	r0, r1, r0
    395c:	00000055 	andeq	r0, r0, r5, asr r0
    3960:	00000000 	andeq	r0, r0, r0
    3964:	40000000 	andmi	r0, r0, r0
    3968:	54000000 	strpl	r0, [r0], #-0
    396c:	01000000 	mrseq	r0, (UNDEF: 0)
    3970:	00005400 	andeq	r5, r0, r0, lsl #8
	...
    397c:	00000044 	andeq	r0, r0, r4, asr #32
    3980:	00000048 	andeq	r0, r0, r8, asr #32
    3984:	00500001 	subseq	r0, r0, r1
	...
    3990:	24000000 	strcs	r0, [r0], #-0
    3994:	27000000 	strcs	r0, [r0, -r0]
    3998:	01000000 	mrseq	r0, (UNDEF: 0)
    399c:	00275000 	eoreq	r5, r7, r0
    39a0:	00300000 	eorseq	r0, r0, r0
    39a4:	00010000 	andeq	r0, r1, r0
    39a8:	00000054 	andeq	r0, r0, r4, asr r0
	...
    39b4:	00015800 	andeq	r5, r1, r0, lsl #16
    39b8:	00016300 	andeq	r6, r1, r0, lsl #6
    39bc:	50000100 	andpl	r0, r0, r0, lsl #2
    39c0:	00000163 	andeq	r0, r0, r3, ror #2
    39c4:	00000188 	andeq	r0, r0, r8, lsl #3
    39c8:	00540001 	subseq	r0, r4, r1
	...
    39d4:	00014800 	andeq	r4, r1, r0, lsl #16
    39d8:	00015800 	andeq	r5, r1, r0, lsl #16
    39dc:	54000100 	strpl	r0, [r0], #-256	; 0xffffff00
	...
    39f0:	0000000f 	andeq	r0, r0, pc
    39f4:	0f500001 	svceq	0x00500001
    39f8:	20000000 	andcs	r0, r0, r0
    39fc:	01000000 	mrseq	r0, (UNDEF: 0)
    3a00:	00005400 	andeq	r5, r0, r0, lsl #8
	...
    3a10:	000f0000 	andeq	r0, pc, r0
    3a14:	00010000 	andeq	r0, r1, r0
    3a18:	00000f51 	andeq	r0, r0, r1, asr pc
    3a1c:	00002000 	andeq	r2, r0, r0
    3a20:	55000100 	strpl	r0, [r0, #-256]	; 0xffffff00
	...
    3a30:	00000020 	andeq	r0, r0, r0, lsr #32
    3a34:	0000002f 	andeq	r0, r0, pc, lsr #32
    3a38:	2f500001 	svccs	0x00500001
    3a3c:	40000000 	andmi	r0, r0, r0
    3a40:	01000000 	mrseq	r0, (UNDEF: 0)
    3a44:	00005400 	andeq	r5, r0, r0, lsl #8
	...
    3a50:	00200000 	eoreq	r0, r0, r0
    3a54:	002f0000 	eoreq	r0, pc, r0
    3a58:	00010000 	andeq	r0, r1, r0
    3a5c:	00002f51 	andeq	r2, r0, r1, asr pc
    3a60:	00004000 	andeq	r4, r0, r0
    3a64:	55000100 	strpl	r0, [r0, #-256]	; 0xffffff00
	...
    3a78:	0000001c 	andeq	r0, r0, ip, lsl r0
    3a7c:	1c510001 	mrrcne	0, 0, r0, r1, cr1
    3a80:	34000000 	strcc	r0, [r0], #-0
    3a84:	04000000 	streq	r0, [r0], #-0
    3a88:	5101f300 	mrspl	pc, SP_irq	; <UNPREDICTABLE>
    3a8c:	0000009f 	muleq	r0, pc, r0	; <UNPREDICTABLE>
    3a90:	00000000 	andeq	r0, r0, r0
    3a94:	00000200 	andeq	r0, r0, r0, lsl #4
    3a98:	01010000 	mrseq	r0, (UNDEF: 1)
    3a9c:	00000000 	andeq	r0, r0, r0
    3aa0:	04000000 	streq	r0, [r0], #-0
    3aa4:	01000000 	mrseq	r0, (UNDEF: 0)
    3aa8:	00045000 	andeq	r5, r4, r0
    3aac:	001c0000 	andseq	r0, ip, r0
    3ab0:	00010000 	andeq	r0, r1, r0
    3ab4:	00001c52 	andeq	r1, r0, r2, asr ip
    3ab8:	00002400 	andeq	r2, r0, r0, lsl #8
    3abc:	53000100 	movwpl	r0, #256	; 0x100
    3ac0:	00000024 	andeq	r0, r0, r4, lsr #32
    3ac4:	00000028 	andeq	r0, r0, r8, lsr #32
    3ac8:	01730003 	cmneq	r3, r3
    3acc:	0000289f 	muleq	r0, pc, r8	; <UNPREDICTABLE>
    3ad0:	00003400 	andeq	r3, r0, r0, lsl #8
    3ad4:	53000100 	movwpl	r0, #256	; 0x100
	...
    3ae0:	00000003 	andeq	r0, r0, r3
    3ae4:	00000000 	andeq	r0, r0, r0
    3ae8:	00000024 	andeq	r0, r0, r4, lsr #32
    3aec:	24510001 	ldrbcs	r0, [r1], #-1
    3af0:	34000000 	strcc	r0, [r0], #-0
    3af4:	03000000 	movweq	r0, #0
    3af8:	9f7f7100 	svcls	0x007f7100
	...
    3b08:	00000010 	andeq	r0, r0, r0, lsl r0
    3b0c:	0000001c 	andeq	r0, r0, ip, lsl r0
    3b10:	245c0001 	ldrbcs	r0, [ip], #-1
    3b14:	34000000 	strcc	r0, [r0], #-0
    3b18:	01000000 	mrseq	r0, (UNDEF: 0)
    3b1c:	00005200 	andeq	r5, r0, r0, lsl #4
	...
    3b2c:	00180000 	andseq	r0, r8, r0
    3b30:	00010000 	andeq	r0, r1, r0
    3b34:	00001850 	andeq	r1, r0, r0, asr r8
    3b38:	00002400 	andeq	r2, r0, r0, lsl #8
    3b3c:	50000100 	andpl	r0, r0, r0, lsl #2
	...
    3b50:	0000001c 	andeq	r0, r0, ip, lsl r0
    3b54:	1c510001 	mrrcne	0, 0, r0, r1, cr1
    3b58:	2c000000 	stccs	0, cr0, [r0], {-0}
    3b5c:	01000000 	mrseq	r0, (UNDEF: 0)
    3b60:	00005100 	andeq	r5, r0, r0, lsl #2
	...
    3b74:	00000004 	andeq	r0, r0, r4
    3b78:	04510001 	ldrbeq	r0, [r1], #-1
    3b7c:	0c000000 	stceq	0, cr0, [r0], {-0}
    3b80:	01000000 	mrseq	r0, (UNDEF: 0)
    3b84:	000c5100 	andeq	r5, ip, r0, lsl #2
    3b88:	00200000 	eoreq	r0, r0, r0
    3b8c:	00030000 	andeq	r0, r3, r0
    3b90:	009f7f71 	addseq	r7, pc, r1, ror pc	; <UNPREDICTABLE>
    3b94:	00000000 	andeq	r0, r0, r0
    3b98:	02000000 	andeq	r0, r0, #0, 0
	...
    3ba4:	00000400 	andeq	r0, r0, r0, lsl #8
    3ba8:	50000100 	andpl	r0, r0, r0, lsl #2
    3bac:	00000004 	andeq	r0, r0, r4
    3bb0:	00000014 	andeq	r0, r0, r4, lsl r0
    3bb4:	145c0001 	ldrbne	r0, [ip], #-1
    3bb8:	20000000 	andcs	r0, r0, r0
    3bbc:	03000000 	movweq	r0, #0
    3bc0:	9f7f7c00 	svcls	0x007f7c00
	...
    3bcc:	00030300 	andeq	r0, r3, r0, lsl #6
    3bd0:	00009810 	andeq	r9, r0, r0, lsl r8
    3bd4:	00009810 	andeq	r9, r0, r0, lsl r8
    3bd8:	10500001 	subsne	r0, r0, r1
    3bdc:	3c000098 	stccc	0, cr0, [r0], {152}	; 0x98
    3be0:	04000098 	streq	r0, [r0], #-152	; 0xffffff68
    3be4:	5001f300 	andpl	pc, r1, r0, lsl #6
    3be8:	0000009f 	muleq	r0, pc, r0	; <UNPREDICTABLE>
    3bec:	00000000 	andeq	r0, r0, r0
    3bf0:	03030000 	movweq	r0, #12288	; 0x3000
    3bf4:	00981000 	addseq	r1, r8, r0
    3bf8:	00981000 	addseq	r1, r8, r0
    3bfc:	51000100 	mrspl	r0, (UNDEF: 16)
    3c00:	00009810 	andeq	r9, r0, r0, lsl r8
    3c04:	0000983c 	andeq	r9, r0, ip, lsr r8
    3c08:	01f30004 	mvnseq	r0, r4
    3c0c:	00009f51 	andeq	r9, r0, r1, asr pc
    3c10:	00000000 	andeq	r0, r0, r0
    3c14:	03000000 	movweq	r0, #0
    3c18:	00000003 	andeq	r0, r0, r3
    3c1c:	00009810 	andeq	r9, r0, r0, lsl r8
    3c20:	00009810 	andeq	r9, r0, r0, lsl r8
    3c24:	10520001 	subsne	r0, r2, r1
    3c28:	18000098 	stmdane	r0, {r3, r4, r7}
    3c2c:	01000098 	swpeq	r0, r8, [r0]	; <UNPREDICTABLE>
    3c30:	98185200 	ldmdals	r8, {r9, ip, lr}
    3c34:	983c0000 	ldmdals	ip!, {}	; <UNPREDICTABLE>
    3c38:	00030000 	andeq	r0, r3, r0
    3c3c:	009f0172 	addseq	r0, pc, r2, ror r1	; <UNPREDICTABLE>
    3c40:	00000000 	andeq	r0, r0, r0
    3c44:	02000000 	andeq	r0, r0, #0, 0
    3c48:	00000101 	andeq	r0, r0, r1, lsl #2
    3c4c:	10000000 	andne	r0, r0, r0
    3c50:	1c000098 	stcne	0, cr0, [r0], {152}	; 0x98
    3c54:	01000098 	swpeq	r0, r8, [r0]	; <UNPREDICTABLE>
    3c58:	981c5000 	ldmdals	ip, {ip, lr}
    3c5c:	98200000 	stmdals	r0!, {}	; <UNPREDICTABLE>
    3c60:	00030000 	andeq	r0, r3, r0
    3c64:	209f0170 	addscs	r0, pc, r0, ror r1	; <UNPREDICTABLE>
    3c68:	30000098 	mulcc	r0, r8, r0
    3c6c:	01000098 	swpeq	r0, r8, [r0]	; <UNPREDICTABLE>
    3c70:	98345000 	ldmdals	r4!, {ip, lr}
    3c74:	98380000 	ldmdals	r8!, {}	; <UNPREDICTABLE>
    3c78:	00010000 	andeq	r0, r1, r0
    3c7c:	00000050 	andeq	r0, r0, r0, asr r0
    3c80:	00000000 	andeq	r0, r0, r0
    3c84:	00000200 	andeq	r0, r0, r0, lsl #4
    3c88:	10000000 	andne	r0, r0, r0
    3c8c:	20000098 	mulcs	r0, r8, r0
    3c90:	01000098 	swpeq	r0, r8, [r0]	; <UNPREDICTABLE>
    3c94:	98205100 	stmdals	r0!, {r8, ip, lr}
    3c98:	98240000 	stmdals	r4!, {}	; <UNPREDICTABLE>
    3c9c:	00030000 	andeq	r0, r3, r0
    3ca0:	249f0171 	ldrcs	r0, [pc], #369	; 3ca8 <__code_start__-0x4358>
    3ca4:	3c000098 	stccc	0, cr0, [r0], {152}	; 0x98
    3ca8:	01000098 	swpeq	r0, r8, [r0]	; <UNPREDICTABLE>
    3cac:	00005100 	andeq	r5, r0, r0, lsl #2
    3cb0:	00000000 	andeq	r0, r0, r0
	...

Disassembly of section .debug_aranges:

00000000 <.debug_aranges>:
   0:	0000001c 	andeq	r0, r0, ip, lsl r0
   4:	00000002 	andeq	r0, r0, r2
   8:	00040000 	andeq	r0, r4, r0
   c:	00000000 	andeq	r0, r0, r0
  10:	00008038 	andeq	r8, r0, r8, lsr r0
  14:	0000013c 	andeq	r0, r0, ip, lsr r1
	...
  20:	0000001c 	andeq	r0, r0, ip, lsl r0
  24:	03dd0002 	bicseq	r0, sp, #2, 0
  28:	00040000 	andeq	r0, r4, r0
  2c:	00000000 	andeq	r0, r0, r0
  30:	00008174 	andeq	r8, r0, r4, ror r1
  34:	00000630 	andeq	r0, r0, r0, lsr r6
	...
  40:	0000001c 	andeq	r0, r0, ip, lsl r0
  44:	35e10002 	strbcc	r0, [r1, #2]!
  48:	00040000 	andeq	r0, r4, r0
  4c:	00000000 	andeq	r0, r0, r0
  50:	000087a4 	andeq	r8, r0, r4, lsr #15
  54:	0000011c 	andeq	r0, r0, ip, lsl r1
	...
  60:	0000001c 	andeq	r0, r0, ip, lsl r0
  64:	39d70002 	ldmibcc	r7, {r1}^
  68:	00040000 	andeq	r0, r4, r0
  6c:	00000000 	andeq	r0, r0, r0
  70:	000088c0 	andeq	r8, r0, r0, asr #17
  74:	00000330 	andeq	r0, r0, r0, lsr r3
	...
  80:	0000001c 	andeq	r0, r0, ip, lsl r0
  84:	41550002 	cmpmi	r5, r2
  88:	00040000 	andeq	r0, r4, r0
  8c:	00000000 	andeq	r0, r0, r0
  90:	00008bf0 	strdeq	r8, [r0], -r0
  94:	00000018 	andeq	r0, r0, r8, lsl r0
	...
  a0:	0000001c 	andeq	r0, r0, ip, lsl r0
  a4:	42930002 	addsmi	r0, r3, #2, 0
  a8:	00040000 	andeq	r0, r4, r0
  ac:	00000000 	andeq	r0, r0, r0
  b0:	00008c08 	andeq	r8, r0, r8, lsl #24
  b4:	00000058 	andeq	r0, r0, r8, asr r0
	...
  c0:	0000001c 	andeq	r0, r0, ip, lsl r0
  c4:	44340002 	ldrtmi	r0, [r4], #-2
  c8:	00040000 	andeq	r0, r4, r0
  cc:	00000000 	andeq	r0, r0, r0
  d0:	00008c60 	andeq	r8, r0, r0, ror #24
  d4:	0000003c 	andeq	r0, r0, ip, lsr r0
	...
  e0:	0000001c 	andeq	r0, r0, ip, lsl r0
  e4:	45810002 	strmi	r0, [r1, #2]
  e8:	00040000 	andeq	r0, r4, r0
  ec:	00000000 	andeq	r0, r0, r0
  f0:	00008c9c 	muleq	r0, ip, ip
  f4:	00000034 	andeq	r0, r0, r4, lsr r0
	...
 100:	0000001c 	andeq	r0, r0, ip, lsl r0
 104:	46780002 	ldrbtmi	r0, [r8], -r2
 108:	00040000 	andeq	r0, r4, r0
 10c:	00000000 	andeq	r0, r0, r0
 110:	00008cd0 	ldrdeq	r8, [r0], -r0
 114:	00000740 	andeq	r0, r0, r0, asr #14
	...
 120:	0000001c 	andeq	r0, r0, ip, lsl r0
 124:	51530002 	cmppl	r3, r2
 128:	00040000 	andeq	r0, r4, r0
 12c:	00000000 	andeq	r0, r0, r0
 130:	00009410 	andeq	r9, r0, r0, lsl r4
 134:	00000020 	andeq	r0, r0, r0, lsr #32
	...
 140:	0000001c 	andeq	r0, r0, ip, lsl r0
 144:	52610002 	rsbpl	r0, r1, #2, 0
 148:	00040000 	andeq	r0, r4, r0
 14c:	00000000 	andeq	r0, r0, r0
 150:	00009430 	andeq	r9, r0, r0, lsr r4
 154:	0000002c 	andeq	r0, r0, ip, lsr #32
	...
 160:	0000001c 	andeq	r0, r0, ip, lsl r0
 164:	53940002 	orrspl	r0, r4, #2, 0
 168:	00040000 	andeq	r0, r4, r0
 16c:	00000000 	andeq	r0, r0, r0
 170:	0000945c 	andeq	r9, r0, ip, asr r4
 174:	0000003c 	andeq	r0, r0, ip, lsr r0
	...
 180:	0000001c 	andeq	r0, r0, ip, lsl r0
 184:	55210002 	strpl	r0, [r1, #-2]!
 188:	00040000 	andeq	r0, r4, r0
 18c:	00000000 	andeq	r0, r0, r0
 190:	00009498 	muleq	r0, r8, r4
 194:	00000004 	andeq	r0, r0, r4
	...
 1a0:	0000001c 	andeq	r0, r0, ip, lsl r0
 1a4:	55f30002 	ldrbpl	r0, [r3, #2]!
 1a8:	00040000 	andeq	r0, r4, r0
 1ac:	00000000 	andeq	r0, r0, r0
 1b0:	0000949c 	muleq	r0, ip, r4
 1b4:	00000080 	andeq	r0, r0, r0, lsl #1
	...
 1c0:	0000001c 	andeq	r0, r0, ip, lsl r0
 1c4:	582d0002 	stmdapl	sp!, {r1}
 1c8:	00040000 	andeq	r0, r4, r0
 1cc:	00000000 	andeq	r0, r0, r0
 1d0:	0000951c 	andeq	r9, r0, ip, lsl r5
 1d4:	00000084 	andeq	r0, r0, r4, lsl #1
	...
 1e0:	0000001c 	andeq	r0, r0, ip, lsl r0
 1e4:	5a7e0002 	bpl	1f801f4 <__bss_end__+0x1f76204>
 1e8:	00040000 	andeq	r0, r4, r0
 1ec:	00000000 	andeq	r0, r0, r0
 1f0:	000095a0 	andeq	r9, r0, r0, lsr #11
 1f4:	000001f0 	strdeq	r0, [r0], -r0	; <UNPREDICTABLE>
	...
 200:	0000001c 	andeq	r0, r0, ip, lsl r0
 204:	604f0002 	subvs	r0, pc, r2
 208:	00040000 	andeq	r0, r4, r0
 20c:	00000000 	andeq	r0, r0, r0
 210:	00009790 	muleq	r0, r0, r7
 214:	00000034 	andeq	r0, r0, r4, lsr r0
	...
 220:	0000001c 	andeq	r0, r0, ip, lsl r0
 224:	618a0002 	orrvs	r0, sl, r2
 228:	00040000 	andeq	r0, r4, r0
 22c:	00000000 	andeq	r0, r0, r0
 230:	000097c4 	andeq	r9, r0, r4, asr #15
 234:	0000002c 	andeq	r0, r0, ip, lsr #32
	...
 240:	0000001c 	andeq	r0, r0, ip, lsl r0
 244:	62850002 	addvs	r0, r5, #2, 0
 248:	00040000 	andeq	r0, r4, r0
 24c:	00000000 	andeq	r0, r0, r0
 250:	000097f0 	strdeq	r9, [r0], -r0
 254:	00000020 	andeq	r0, r0, r0, lsr #32
	...
 260:	0000001c 	andeq	r0, r0, ip, lsl r0
 264:	63980002 	orrsvs	r0, r8, #2, 0
 268:	00040000 	andeq	r0, r4, r0
 26c:	00000000 	andeq	r0, r0, r0
 270:	00009810 	andeq	r9, r0, r0, lsl r8
 274:	0000002c 	andeq	r0, r0, ip, lsr #32
	...
 280:	0000001c 	andeq	r0, r0, ip, lsl r0
 284:	64ea0002 	strbtvs	r0, [sl], #2
 288:	00040000 	andeq	r0, r4, r0
 28c:	00000000 	andeq	r0, r0, r0
 290:	0000983c 	andeq	r9, r0, ip, lsr r8
 294:	00000004 	andeq	r0, r0, r4
	...

Disassembly of section .debug_ranges:

00000000 <.debug_ranges>:
       0:	0000008c 	andeq	r0, r0, ip, lsl #1
       4:	00000090 	muleq	r0, r0, r0
       8:	00000094 	muleq	r0, r4, r0
       c:	00000124 	andeq	r0, r0, r4, lsr #2
	...
      18:	00000094 	muleq	r0, r4, r0
      1c:	0000009c 	muleq	r0, ip, r0
      20:	000000ac 	andeq	r0, r0, ip, lsr #1
      24:	00000118 	andeq	r0, r0, r8, lsl r1
	...
      30:	00000094 	muleq	r0, r4, r0
      34:	0000009c 	muleq	r0, ip, r0
      38:	000000b4 	strheq	r0, [r0], -r4
      3c:	00000104 	andeq	r0, r0, r4, lsl #2
	...
      4c:	0000000c 	andeq	r0, r0, ip
      50:	00000010 	andeq	r0, r0, r0, lsl r0
      54:	00000038 	andeq	r0, r0, r8, lsr r0
      58:	00000038 	andeq	r0, r0, r8, lsr r0
      5c:	00000038 	andeq	r0, r0, r8, lsr r0
      60:	00000038 	andeq	r0, r0, r8, lsr r0
      64:	0000004c 	andeq	r0, r0, ip, asr #32
      68:	0000004c 	andeq	r0, r0, ip, asr #32
      6c:	0000004c 	andeq	r0, r0, ip, asr #32
      70:	0000004c 	andeq	r0, r0, ip, asr #32
      74:	0000004c 	andeq	r0, r0, ip, asr #32
      78:	0000004c 	andeq	r0, r0, ip, asr #32
      7c:	00000050 	andeq	r0, r0, r0, asr r0
      80:	00000050 	andeq	r0, r0, r0, asr r0
      84:	00000060 	andeq	r0, r0, r0, rrx
      88:	00000060 	andeq	r0, r0, r0, rrx
      8c:	00000060 	andeq	r0, r0, r0, rrx
      90:	00000060 	andeq	r0, r0, r0, rrx
      94:	00000064 	andeq	r0, r0, r4, rrx
      98:	00000064 	andeq	r0, r0, r4, rrx
      9c:	00000068 	andeq	r0, r0, r8, rrx
      a0:	00000068 	andeq	r0, r0, r8, rrx
      a4:	00000094 	muleq	r0, r4, r0
      a8:	00000094 	muleq	r0, r4, r0
      ac:	00000094 	muleq	r0, r4, r0
      b0:	00000094 	muleq	r0, r4, r0
      b4:	00000094 	muleq	r0, r4, r0
      b8:	00000094 	muleq	r0, r4, r0
      bc:	00000098 	muleq	r0, r8, r0
      c0:	00000098 	muleq	r0, r8, r0
      c4:	000000a8 	andeq	r0, r0, r8, lsr #1
      c8:	000000a8 	andeq	r0, r0, r8, lsr #1
      cc:	000000a8 	andeq	r0, r0, r8, lsr #1
      d0:	000000a8 	andeq	r0, r0, r8, lsr #1
      d4:	000000ac 	andeq	r0, r0, ip, lsr #1
      d8:	000000ac 	andeq	r0, r0, ip, lsr #1
      dc:	000000b0 	strheq	r0, [r0], -r0	; <UNPREDICTABLE>
      e0:	000000b0 	strheq	r0, [r0], -r0	; <UNPREDICTABLE>
      e4:	000000dc 	ldrdeq	r0, [r0], -ip
      e8:	000000dc 	ldrdeq	r0, [r0], -ip
      ec:	000000dc 	ldrdeq	r0, [r0], -ip
      f0:	000000dc 	ldrdeq	r0, [r0], -ip
      f4:	000000dc 	ldrdeq	r0, [r0], -ip
      f8:	000000dc 	ldrdeq	r0, [r0], -ip
      fc:	000000e0 	andeq	r0, r0, r0, ror #1
     100:	000000e0 	andeq	r0, r0, r0, ror #1
     104:	000000f0 	strdeq	r0, [r0], -r0	; <UNPREDICTABLE>
     108:	000000f0 	strdeq	r0, [r0], -r0	; <UNPREDICTABLE>
     10c:	000000f0 	strdeq	r0, [r0], -r0	; <UNPREDICTABLE>
     110:	000000f0 	strdeq	r0, [r0], -r0	; <UNPREDICTABLE>
     114:	000000f4 	strdeq	r0, [r0], -r4
     118:	000000f4 	strdeq	r0, [r0], -r4
     11c:	000000f8 	strdeq	r0, [r0], -r8
     120:	000000f8 	strdeq	r0, [r0], -r8
     124:	0000011c 	andeq	r0, r0, ip, lsl r1
     128:	0000014c 	andeq	r0, r0, ip, asr #2
     12c:	0000014c 	andeq	r0, r0, ip, asr #2
     130:	0000014c 	andeq	r0, r0, ip, asr #2
     134:	0000014c 	andeq	r0, r0, ip, asr #2
     138:	0000014c 	andeq	r0, r0, ip, asr #2
     13c:	0000014c 	andeq	r0, r0, ip, asr #2
     140:	0000014c 	andeq	r0, r0, ip, asr #2
     144:	00000150 	andeq	r0, r0, r0, asr r1
     148:	00000150 	andeq	r0, r0, r0, asr r1
     14c:	00000160 	andeq	r0, r0, r0, ror #2
     150:	00000160 	andeq	r0, r0, r0, ror #2
     154:	00000160 	andeq	r0, r0, r0, ror #2
     158:	00000160 	andeq	r0, r0, r0, ror #2
     15c:	00000164 	andeq	r0, r0, r4, ror #2
     160:	00000164 	andeq	r0, r0, r4, ror #2
     164:	00000168 	andeq	r0, r0, r8, ror #2
     168:	00000168 	andeq	r0, r0, r8, ror #2
     16c:	00000184 	andeq	r0, r0, r4, lsl #3
     170:	00000184 	andeq	r0, r0, r4, lsl #3
     174:	00000184 	andeq	r0, r0, r4, lsl #3
     178:	00000184 	andeq	r0, r0, r4, lsl #3
     17c:	00000184 	andeq	r0, r0, r4, lsl #3
     180:	00000184 	andeq	r0, r0, r4, lsl #3
     184:	00000188 	andeq	r0, r0, r8, lsl #3
     188:	00000188 	andeq	r0, r0, r8, lsl #3
     18c:	00000198 	muleq	r0, r8, r1
     190:	00000198 	muleq	r0, r8, r1
     194:	00000198 	muleq	r0, r8, r1
     198:	00000198 	muleq	r0, r8, r1
     19c:	0000019c 	muleq	r0, ip, r1
     1a0:	0000019c 	muleq	r0, ip, r1
     1a4:	000001a0 	andeq	r0, r0, r0, lsr #3
     1a8:	000001a0 	andeq	r0, r0, r0, lsr #3
     1ac:	000001bc 			; <UNDEFINED> instruction: 0x000001bc
     1b0:	000001bc 			; <UNDEFINED> instruction: 0x000001bc
     1b4:	000001bc 			; <UNDEFINED> instruction: 0x000001bc
     1b8:	000001bc 			; <UNDEFINED> instruction: 0x000001bc
     1bc:	000001bc 			; <UNDEFINED> instruction: 0x000001bc
     1c0:	000001bc 			; <UNDEFINED> instruction: 0x000001bc
     1c4:	000001c0 	andeq	r0, r0, r0, asr #3
     1c8:	000001c0 	andeq	r0, r0, r0, asr #3
     1cc:	000001d0 	ldrdeq	r0, [r0], -r0	; <UNPREDICTABLE>
     1d0:	000001d0 	ldrdeq	r0, [r0], -r0	; <UNPREDICTABLE>
     1d4:	000001d0 	ldrdeq	r0, [r0], -r0	; <UNPREDICTABLE>
     1d8:	000001d0 	ldrdeq	r0, [r0], -r0	; <UNPREDICTABLE>
     1dc:	000001d4 	ldrdeq	r0, [r0], -r4
     1e0:	000001d4 	ldrdeq	r0, [r0], -r4
     1e4:	000001d8 	ldrdeq	r0, [r0], -r8
     1e8:	000001d8 	ldrdeq	r0, [r0], -r8
     1ec:	00000200 	andeq	r0, r0, r0, lsl #4
	...
     1f8:	00000010 	andeq	r0, r0, r0, lsl r0
     1fc:	00000038 	andeq	r0, r0, r8, lsr r0
     200:	00000038 	andeq	r0, r0, r8, lsr r0
     204:	00000038 	andeq	r0, r0, r8, lsr r0
     208:	00000038 	andeq	r0, r0, r8, lsr r0
     20c:	0000004c 	andeq	r0, r0, ip, asr #32
     210:	0000004c 	andeq	r0, r0, ip, asr #32
     214:	0000004c 	andeq	r0, r0, ip, asr #32
     218:	0000004c 	andeq	r0, r0, ip, asr #32
     21c:	0000004c 	andeq	r0, r0, ip, asr #32
     220:	0000004c 	andeq	r0, r0, ip, asr #32
     224:	00000050 	andeq	r0, r0, r0, asr r0
     228:	00000050 	andeq	r0, r0, r0, asr r0
     22c:	00000060 	andeq	r0, r0, r0, rrx
     230:	00000060 	andeq	r0, r0, r0, rrx
     234:	00000060 	andeq	r0, r0, r0, rrx
     238:	00000060 	andeq	r0, r0, r0, rrx
     23c:	00000064 	andeq	r0, r0, r4, rrx
     240:	00000064 	andeq	r0, r0, r4, rrx
     244:	00000068 	andeq	r0, r0, r8, rrx
     248:	00000068 	andeq	r0, r0, r8, rrx
     24c:	00000094 	muleq	r0, r4, r0
     250:	00000094 	muleq	r0, r4, r0
     254:	00000094 	muleq	r0, r4, r0
     258:	00000094 	muleq	r0, r4, r0
     25c:	00000094 	muleq	r0, r4, r0
     260:	00000094 	muleq	r0, r4, r0
     264:	00000098 	muleq	r0, r8, r0
     268:	00000098 	muleq	r0, r8, r0
     26c:	000000a8 	andeq	r0, r0, r8, lsr #1
     270:	000000a8 	andeq	r0, r0, r8, lsr #1
     274:	000000a8 	andeq	r0, r0, r8, lsr #1
     278:	000000a8 	andeq	r0, r0, r8, lsr #1
     27c:	000000ac 	andeq	r0, r0, ip, lsr #1
     280:	000000ac 	andeq	r0, r0, ip, lsr #1
     284:	000000b0 	strheq	r0, [r0], -r0	; <UNPREDICTABLE>
     288:	000000b0 	strheq	r0, [r0], -r0	; <UNPREDICTABLE>
     28c:	000000dc 	ldrdeq	r0, [r0], -ip
     290:	000000dc 	ldrdeq	r0, [r0], -ip
     294:	000000dc 	ldrdeq	r0, [r0], -ip
     298:	000000dc 	ldrdeq	r0, [r0], -ip
     29c:	000000dc 	ldrdeq	r0, [r0], -ip
     2a0:	000000dc 	ldrdeq	r0, [r0], -ip
     2a4:	000000e0 	andeq	r0, r0, r0, ror #1
     2a8:	000000e0 	andeq	r0, r0, r0, ror #1
     2ac:	000000f0 	strdeq	r0, [r0], -r0	; <UNPREDICTABLE>
     2b0:	000000f0 	strdeq	r0, [r0], -r0	; <UNPREDICTABLE>
     2b4:	000000f0 	strdeq	r0, [r0], -r0	; <UNPREDICTABLE>
     2b8:	000000f0 	strdeq	r0, [r0], -r0	; <UNPREDICTABLE>
     2bc:	000000f4 	strdeq	r0, [r0], -r4
     2c0:	000000f4 	strdeq	r0, [r0], -r4
     2c4:	000000f8 	strdeq	r0, [r0], -r8
     2c8:	000000f8 	strdeq	r0, [r0], -r8
     2cc:	00000110 	andeq	r0, r0, r0, lsl r1
     2d0:	0000014c 	andeq	r0, r0, ip, asr #2
     2d4:	0000014c 	andeq	r0, r0, ip, asr #2
     2d8:	0000014c 	andeq	r0, r0, ip, asr #2
     2dc:	0000014c 	andeq	r0, r0, ip, asr #2
     2e0:	0000014c 	andeq	r0, r0, ip, asr #2
     2e4:	0000014c 	andeq	r0, r0, ip, asr #2
     2e8:	0000014c 	andeq	r0, r0, ip, asr #2
     2ec:	00000150 	andeq	r0, r0, r0, asr r1
     2f0:	00000150 	andeq	r0, r0, r0, asr r1
     2f4:	00000160 	andeq	r0, r0, r0, ror #2
     2f8:	00000160 	andeq	r0, r0, r0, ror #2
     2fc:	00000160 	andeq	r0, r0, r0, ror #2
     300:	00000160 	andeq	r0, r0, r0, ror #2
     304:	00000164 	andeq	r0, r0, r4, ror #2
     308:	00000164 	andeq	r0, r0, r4, ror #2
     30c:	00000168 	andeq	r0, r0, r8, ror #2
     310:	00000168 	andeq	r0, r0, r8, ror #2
     314:	00000184 	andeq	r0, r0, r4, lsl #3
     318:	00000184 	andeq	r0, r0, r4, lsl #3
     31c:	00000184 	andeq	r0, r0, r4, lsl #3
     320:	00000184 	andeq	r0, r0, r4, lsl #3
     324:	00000184 	andeq	r0, r0, r4, lsl #3
     328:	00000184 	andeq	r0, r0, r4, lsl #3
     32c:	00000188 	andeq	r0, r0, r8, lsl #3
     330:	00000188 	andeq	r0, r0, r8, lsl #3
     334:	00000198 	muleq	r0, r8, r1
     338:	00000198 	muleq	r0, r8, r1
     33c:	00000198 	muleq	r0, r8, r1
     340:	00000198 	muleq	r0, r8, r1
     344:	0000019c 	muleq	r0, ip, r1
     348:	0000019c 	muleq	r0, ip, r1
     34c:	000001a0 	andeq	r0, r0, r0, lsr #3
     350:	000001a0 	andeq	r0, r0, r0, lsr #3
     354:	000001bc 			; <UNDEFINED> instruction: 0x000001bc
     358:	000001bc 			; <UNDEFINED> instruction: 0x000001bc
     35c:	000001bc 			; <UNDEFINED> instruction: 0x000001bc
     360:	000001bc 			; <UNDEFINED> instruction: 0x000001bc
     364:	000001bc 			; <UNDEFINED> instruction: 0x000001bc
     368:	000001bc 			; <UNDEFINED> instruction: 0x000001bc
     36c:	000001c0 	andeq	r0, r0, r0, asr #3
     370:	000001c0 	andeq	r0, r0, r0, asr #3
     374:	000001d0 	ldrdeq	r0, [r0], -r0	; <UNPREDICTABLE>
     378:	000001d0 	ldrdeq	r0, [r0], -r0	; <UNPREDICTABLE>
     37c:	000001d0 	ldrdeq	r0, [r0], -r0	; <UNPREDICTABLE>
     380:	000001d0 	ldrdeq	r0, [r0], -r0	; <UNPREDICTABLE>
     384:	000001d4 	ldrdeq	r0, [r0], -r4
     388:	000001d4 	ldrdeq	r0, [r0], -r4
     38c:	000001d8 	ldrdeq	r0, [r0], -r8
     390:	000001d8 	ldrdeq	r0, [r0], -r8
     394:	00000200 	andeq	r0, r0, r0, lsl #4
	...
     3a0:	00000010 	andeq	r0, r0, r0, lsl r0
     3a4:	00000018 	andeq	r0, r0, r8, lsl r0
     3a8:	00000020 	andeq	r0, r0, r0, lsr #32
     3ac:	0000002c 	andeq	r0, r0, ip, lsr #32
     3b0:	0000002c 	andeq	r0, r0, ip, lsr #32
     3b4:	00000030 	andeq	r0, r0, r0, lsr r0
     3b8:	00000038 	andeq	r0, r0, r8, lsr r0
     3bc:	00000038 	andeq	r0, r0, r8, lsr r0
     3c0:	00000038 	andeq	r0, r0, r8, lsr r0
     3c4:	00000038 	andeq	r0, r0, r8, lsr r0
     3c8:	00000038 	andeq	r0, r0, r8, lsr r0
     3cc:	0000004c 	andeq	r0, r0, ip, asr #32
     3d0:	0000004c 	andeq	r0, r0, ip, asr #32
     3d4:	0000004c 	andeq	r0, r0, ip, asr #32
     3d8:	0000004c 	andeq	r0, r0, ip, asr #32
     3dc:	0000004c 	andeq	r0, r0, ip, asr #32
     3e0:	0000004c 	andeq	r0, r0, ip, asr #32
     3e4:	00000050 	andeq	r0, r0, r0, asr r0
     3e8:	00000050 	andeq	r0, r0, r0, asr r0
     3ec:	00000060 	andeq	r0, r0, r0, rrx
     3f0:	00000060 	andeq	r0, r0, r0, rrx
     3f4:	00000060 	andeq	r0, r0, r0, rrx
     3f8:	00000060 	andeq	r0, r0, r0, rrx
     3fc:	00000064 	andeq	r0, r0, r4, rrx
     400:	00000064 	andeq	r0, r0, r4, rrx
     404:	00000068 	andeq	r0, r0, r8, rrx
     408:	00000068 	andeq	r0, r0, r8, rrx
     40c:	00000094 	muleq	r0, r4, r0
     410:	00000094 	muleq	r0, r4, r0
     414:	00000094 	muleq	r0, r4, r0
     418:	00000094 	muleq	r0, r4, r0
     41c:	00000094 	muleq	r0, r4, r0
     420:	00000094 	muleq	r0, r4, r0
     424:	00000098 	muleq	r0, r8, r0
     428:	00000098 	muleq	r0, r8, r0
     42c:	000000a8 	andeq	r0, r0, r8, lsr #1
     430:	000000a8 	andeq	r0, r0, r8, lsr #1
     434:	000000a8 	andeq	r0, r0, r8, lsr #1
     438:	000000a8 	andeq	r0, r0, r8, lsr #1
     43c:	000000ac 	andeq	r0, r0, ip, lsr #1
     440:	000000ac 	andeq	r0, r0, ip, lsr #1
     444:	000000b0 	strheq	r0, [r0], -r0	; <UNPREDICTABLE>
     448:	000000b0 	strheq	r0, [r0], -r0	; <UNPREDICTABLE>
     44c:	000000dc 	ldrdeq	r0, [r0], -ip
     450:	000000dc 	ldrdeq	r0, [r0], -ip
     454:	000000dc 	ldrdeq	r0, [r0], -ip
     458:	000000dc 	ldrdeq	r0, [r0], -ip
     45c:	000000dc 	ldrdeq	r0, [r0], -ip
     460:	000000dc 	ldrdeq	r0, [r0], -ip
     464:	000000e0 	andeq	r0, r0, r0, ror #1
     468:	000000e0 	andeq	r0, r0, r0, ror #1
     46c:	000000f0 	strdeq	r0, [r0], -r0	; <UNPREDICTABLE>
     470:	000000f0 	strdeq	r0, [r0], -r0	; <UNPREDICTABLE>
     474:	000000f0 	strdeq	r0, [r0], -r0	; <UNPREDICTABLE>
     478:	000000f0 	strdeq	r0, [r0], -r0	; <UNPREDICTABLE>
     47c:	000000f4 	strdeq	r0, [r0], -r4
     480:	000000f4 	strdeq	r0, [r0], -r4
     484:	000000f8 	strdeq	r0, [r0], -r8
     488:	000000f8 	strdeq	r0, [r0], -r8
     48c:	00000110 	andeq	r0, r0, r0, lsl r1
     490:	0000014c 	andeq	r0, r0, ip, asr #2
     494:	0000014c 	andeq	r0, r0, ip, asr #2
     498:	0000014c 	andeq	r0, r0, ip, asr #2
     49c:	0000014c 	andeq	r0, r0, ip, asr #2
     4a0:	0000014c 	andeq	r0, r0, ip, asr #2
     4a4:	0000014c 	andeq	r0, r0, ip, asr #2
     4a8:	0000014c 	andeq	r0, r0, ip, asr #2
     4ac:	00000150 	andeq	r0, r0, r0, asr r1
     4b0:	00000150 	andeq	r0, r0, r0, asr r1
     4b4:	00000160 	andeq	r0, r0, r0, ror #2
     4b8:	00000160 	andeq	r0, r0, r0, ror #2
     4bc:	00000160 	andeq	r0, r0, r0, ror #2
     4c0:	00000160 	andeq	r0, r0, r0, ror #2
     4c4:	00000164 	andeq	r0, r0, r4, ror #2
     4c8:	00000164 	andeq	r0, r0, r4, ror #2
     4cc:	00000168 	andeq	r0, r0, r8, ror #2
     4d0:	00000168 	andeq	r0, r0, r8, ror #2
     4d4:	00000184 	andeq	r0, r0, r4, lsl #3
     4d8:	00000184 	andeq	r0, r0, r4, lsl #3
     4dc:	00000184 	andeq	r0, r0, r4, lsl #3
     4e0:	00000184 	andeq	r0, r0, r4, lsl #3
     4e4:	00000184 	andeq	r0, r0, r4, lsl #3
     4e8:	00000184 	andeq	r0, r0, r4, lsl #3
     4ec:	00000188 	andeq	r0, r0, r8, lsl #3
     4f0:	00000188 	andeq	r0, r0, r8, lsl #3
     4f4:	00000198 	muleq	r0, r8, r1
     4f8:	00000198 	muleq	r0, r8, r1
     4fc:	00000198 	muleq	r0, r8, r1
     500:	00000198 	muleq	r0, r8, r1
     504:	0000019c 	muleq	r0, ip, r1
     508:	0000019c 	muleq	r0, ip, r1
     50c:	000001a0 	andeq	r0, r0, r0, lsr #3
     510:	000001a0 	andeq	r0, r0, r0, lsr #3
     514:	000001bc 			; <UNDEFINED> instruction: 0x000001bc
     518:	000001bc 			; <UNDEFINED> instruction: 0x000001bc
     51c:	000001bc 			; <UNDEFINED> instruction: 0x000001bc
     520:	000001bc 			; <UNDEFINED> instruction: 0x000001bc
     524:	000001bc 			; <UNDEFINED> instruction: 0x000001bc
     528:	000001bc 			; <UNDEFINED> instruction: 0x000001bc
     52c:	000001c0 	andeq	r0, r0, r0, asr #3
     530:	000001c0 	andeq	r0, r0, r0, asr #3
     534:	000001d0 	ldrdeq	r0, [r0], -r0	; <UNPREDICTABLE>
     538:	000001d0 	ldrdeq	r0, [r0], -r0	; <UNPREDICTABLE>
     53c:	000001d0 	ldrdeq	r0, [r0], -r0	; <UNPREDICTABLE>
     540:	000001d0 	ldrdeq	r0, [r0], -r0	; <UNPREDICTABLE>
     544:	000001d4 	ldrdeq	r0, [r0], -r4
     548:	000001d4 	ldrdeq	r0, [r0], -r4
     54c:	000001d8 	ldrdeq	r0, [r0], -r8
     550:	000001d8 	ldrdeq	r0, [r0], -r8
     554:	00000200 	andeq	r0, r0, r0, lsl #4
	...
     560:	00000010 	andeq	r0, r0, r0, lsl r0
     564:	00000018 	andeq	r0, r0, r8, lsl r0
     568:	00000020 	andeq	r0, r0, r0, lsr #32
     56c:	0000002c 	andeq	r0, r0, ip, lsr #32
     570:	0000002c 	andeq	r0, r0, ip, lsr #32
     574:	00000030 	andeq	r0, r0, r0, lsr r0
     578:	00000038 	andeq	r0, r0, r8, lsr r0
     57c:	00000038 	andeq	r0, r0, r8, lsr r0
     580:	00000038 	andeq	r0, r0, r8, lsr r0
     584:	0000004c 	andeq	r0, r0, ip, asr #32
     588:	0000004c 	andeq	r0, r0, ip, asr #32
     58c:	0000004c 	andeq	r0, r0, ip, asr #32
     590:	0000004c 	andeq	r0, r0, ip, asr #32
     594:	0000004c 	andeq	r0, r0, ip, asr #32
     598:	0000004c 	andeq	r0, r0, ip, asr #32
     59c:	00000050 	andeq	r0, r0, r0, asr r0
     5a0:	00000050 	andeq	r0, r0, r0, asr r0
     5a4:	00000060 	andeq	r0, r0, r0, rrx
     5a8:	00000060 	andeq	r0, r0, r0, rrx
     5ac:	00000060 	andeq	r0, r0, r0, rrx
     5b0:	00000060 	andeq	r0, r0, r0, rrx
     5b4:	00000064 	andeq	r0, r0, r4, rrx
     5b8:	00000064 	andeq	r0, r0, r4, rrx
     5bc:	00000068 	andeq	r0, r0, r8, rrx
     5c0:	00000068 	andeq	r0, r0, r8, rrx
     5c4:	00000080 	andeq	r0, r0, r0, lsl #1
     5c8:	000001bc 			; <UNDEFINED> instruction: 0x000001bc
     5cc:	000001bc 			; <UNDEFINED> instruction: 0x000001bc
     5d0:	000001bc 			; <UNDEFINED> instruction: 0x000001bc
     5d4:	000001bc 			; <UNDEFINED> instruction: 0x000001bc
     5d8:	000001bc 			; <UNDEFINED> instruction: 0x000001bc
     5dc:	000001bc 			; <UNDEFINED> instruction: 0x000001bc
     5e0:	000001bc 			; <UNDEFINED> instruction: 0x000001bc
     5e4:	000001c0 	andeq	r0, r0, r0, asr #3
     5e8:	000001c0 	andeq	r0, r0, r0, asr #3
     5ec:	000001d0 	ldrdeq	r0, [r0], -r0	; <UNPREDICTABLE>
     5f0:	000001d0 	ldrdeq	r0, [r0], -r0	; <UNPREDICTABLE>
     5f4:	000001d0 	ldrdeq	r0, [r0], -r0	; <UNPREDICTABLE>
     5f8:	000001d0 	ldrdeq	r0, [r0], -r0	; <UNPREDICTABLE>
     5fc:	000001d4 	ldrdeq	r0, [r0], -r4
     600:	000001d4 	ldrdeq	r0, [r0], -r4
     604:	000001d8 	ldrdeq	r0, [r0], -r8
     608:	000001d8 	ldrdeq	r0, [r0], -r8
     60c:	00000200 	andeq	r0, r0, r0, lsl #4
	...
     618:	00000010 	andeq	r0, r0, r0, lsl r0
     61c:	00000018 	andeq	r0, r0, r8, lsl r0
     620:	00000020 	andeq	r0, r0, r0, lsr #32
     624:	0000002c 	andeq	r0, r0, ip, lsr #32
     628:	0000002c 	andeq	r0, r0, ip, lsr #32
     62c:	00000030 	andeq	r0, r0, r0, lsr r0
     630:	00000038 	andeq	r0, r0, r8, lsr r0
     634:	0000004c 	andeq	r0, r0, ip, asr #32
     638:	0000004c 	andeq	r0, r0, ip, asr #32
     63c:	0000004c 	andeq	r0, r0, ip, asr #32
     640:	0000004c 	andeq	r0, r0, ip, asr #32
     644:	0000004c 	andeq	r0, r0, ip, asr #32
     648:	0000004c 	andeq	r0, r0, ip, asr #32
     64c:	00000050 	andeq	r0, r0, r0, asr r0
     650:	00000050 	andeq	r0, r0, r0, asr r0
     654:	00000060 	andeq	r0, r0, r0, rrx
     658:	00000060 	andeq	r0, r0, r0, rrx
     65c:	00000060 	andeq	r0, r0, r0, rrx
     660:	00000060 	andeq	r0, r0, r0, rrx
     664:	00000064 	andeq	r0, r0, r4, rrx
     668:	00000064 	andeq	r0, r0, r4, rrx
     66c:	00000068 	andeq	r0, r0, r8, rrx
     670:	00000068 	andeq	r0, r0, r8, rrx
     674:	00000080 	andeq	r0, r0, r0, lsl #1
     678:	000001bc 			; <UNDEFINED> instruction: 0x000001bc
     67c:	000001bc 			; <UNDEFINED> instruction: 0x000001bc
     680:	000001bc 			; <UNDEFINED> instruction: 0x000001bc
     684:	000001bc 			; <UNDEFINED> instruction: 0x000001bc
     688:	000001bc 			; <UNDEFINED> instruction: 0x000001bc
     68c:	000001bc 			; <UNDEFINED> instruction: 0x000001bc
     690:	000001bc 			; <UNDEFINED> instruction: 0x000001bc
     694:	000001c0 	andeq	r0, r0, r0, asr #3
     698:	000001c0 	andeq	r0, r0, r0, asr #3
     69c:	000001d0 	ldrdeq	r0, [r0], -r0	; <UNPREDICTABLE>
     6a0:	000001d0 	ldrdeq	r0, [r0], -r0	; <UNPREDICTABLE>
     6a4:	000001d0 	ldrdeq	r0, [r0], -r0	; <UNPREDICTABLE>
     6a8:	000001d0 	ldrdeq	r0, [r0], -r0	; <UNPREDICTABLE>
     6ac:	000001d4 	ldrdeq	r0, [r0], -r4
     6b0:	000001d4 	ldrdeq	r0, [r0], -r4
     6b4:	000001d8 	ldrdeq	r0, [r0], -r8
     6b8:	000001d8 	ldrdeq	r0, [r0], -r8
     6bc:	00000200 	andeq	r0, r0, r0, lsl #4
	...
     6c8:	00000010 	andeq	r0, r0, r0, lsl r0
     6cc:	00000018 	andeq	r0, r0, r8, lsl r0
     6d0:	00000020 	andeq	r0, r0, r0, lsr #32
     6d4:	0000002c 	andeq	r0, r0, ip, lsr #32
     6d8:	0000003c 	andeq	r0, r0, ip, lsr r0
     6dc:	0000003c 	andeq	r0, r0, ip, lsr r0
     6e0:	00000040 	andeq	r0, r0, r0, asr #32
     6e4:	0000004c 	andeq	r0, r0, ip, asr #32
     6e8:	0000004c 	andeq	r0, r0, ip, asr #32
     6ec:	0000004c 	andeq	r0, r0, ip, asr #32
     6f0:	0000004c 	andeq	r0, r0, ip, asr #32
     6f4:	0000004c 	andeq	r0, r0, ip, asr #32
     6f8:	0000004c 	andeq	r0, r0, ip, asr #32
     6fc:	00000050 	andeq	r0, r0, r0, asr r0
     700:	00000050 	andeq	r0, r0, r0, asr r0
     704:	00000060 	andeq	r0, r0, r0, rrx
     708:	00000060 	andeq	r0, r0, r0, rrx
     70c:	00000060 	andeq	r0, r0, r0, rrx
     710:	00000060 	andeq	r0, r0, r0, rrx
     714:	00000064 	andeq	r0, r0, r4, rrx
     718:	00000064 	andeq	r0, r0, r4, rrx
     71c:	00000068 	andeq	r0, r0, r8, rrx
     720:	00000068 	andeq	r0, r0, r8, rrx
     724:	00000078 	andeq	r0, r0, r8, ror r0
     728:	000001bc 			; <UNDEFINED> instruction: 0x000001bc
     72c:	000001bc 			; <UNDEFINED> instruction: 0x000001bc
     730:	000001bc 			; <UNDEFINED> instruction: 0x000001bc
     734:	000001bc 			; <UNDEFINED> instruction: 0x000001bc
     738:	000001bc 			; <UNDEFINED> instruction: 0x000001bc
     73c:	000001bc 			; <UNDEFINED> instruction: 0x000001bc
     740:	000001bc 			; <UNDEFINED> instruction: 0x000001bc
     744:	000001c0 	andeq	r0, r0, r0, asr #3
     748:	000001c0 	andeq	r0, r0, r0, asr #3
     74c:	000001d0 	ldrdeq	r0, [r0], -r0	; <UNPREDICTABLE>
     750:	000001d0 	ldrdeq	r0, [r0], -r0	; <UNPREDICTABLE>
     754:	000001d0 	ldrdeq	r0, [r0], -r0	; <UNPREDICTABLE>
     758:	000001d0 	ldrdeq	r0, [r0], -r0	; <UNPREDICTABLE>
     75c:	000001d4 	ldrdeq	r0, [r0], -r4
     760:	000001d4 	ldrdeq	r0, [r0], -r4
     764:	000001d8 	ldrdeq	r0, [r0], -r8
     768:	000001d8 	ldrdeq	r0, [r0], -r8
     76c:	000001e8 	andeq	r0, r0, r8, ror #3
	...
     778:	00000010 	andeq	r0, r0, r0, lsl r0
     77c:	00000018 	andeq	r0, r0, r8, lsl r0
     780:	00000020 	andeq	r0, r0, r0, lsr #32
     784:	0000002c 	andeq	r0, r0, ip, lsr #32
     788:	000001bc 			; <UNDEFINED> instruction: 0x000001bc
     78c:	000001bc 			; <UNDEFINED> instruction: 0x000001bc
     790:	000001bc 			; <UNDEFINED> instruction: 0x000001bc
     794:	000001bc 			; <UNDEFINED> instruction: 0x000001bc
     798:	000001bc 			; <UNDEFINED> instruction: 0x000001bc
     79c:	000001bc 			; <UNDEFINED> instruction: 0x000001bc
     7a0:	000001bc 			; <UNDEFINED> instruction: 0x000001bc
     7a4:	000001c0 	andeq	r0, r0, r0, asr #3
     7a8:	000001c0 	andeq	r0, r0, r0, asr #3
     7ac:	000001d0 	ldrdeq	r0, [r0], -r0	; <UNPREDICTABLE>
	...
     7b8:	00000010 	andeq	r0, r0, r0, lsl r0
     7bc:	00000018 	andeq	r0, r0, r8, lsl r0
     7c0:	00000020 	andeq	r0, r0, r0, lsr #32
     7c4:	0000002c 	andeq	r0, r0, ip, lsr #32
     7c8:	000001bc 			; <UNDEFINED> instruction: 0x000001bc
     7cc:	000001bc 			; <UNDEFINED> instruction: 0x000001bc
     7d0:	000001bc 			; <UNDEFINED> instruction: 0x000001bc
     7d4:	000001bc 			; <UNDEFINED> instruction: 0x000001bc
     7d8:	000001bc 			; <UNDEFINED> instruction: 0x000001bc
     7dc:	000001c0 	andeq	r0, r0, r0, asr #3
     7e0:	000001c0 	andeq	r0, r0, r0, asr #3
     7e4:	000001d0 	ldrdeq	r0, [r0], -r0	; <UNPREDICTABLE>
	...
     7f0:	00000010 	andeq	r0, r0, r0, lsl r0
     7f4:	00000018 	andeq	r0, r0, r8, lsl r0
     7f8:	00000020 	andeq	r0, r0, r0, lsr #32
     7fc:	0000002c 	andeq	r0, r0, ip, lsr #32
     800:	000001bc 			; <UNDEFINED> instruction: 0x000001bc
     804:	000001bc 			; <UNDEFINED> instruction: 0x000001bc
	...
     810:	000001c0 	andeq	r0, r0, r0, asr #3
     814:	000001c0 	andeq	r0, r0, r0, asr #3
     818:	000001c0 	andeq	r0, r0, r0, asr #3
     81c:	000001d0 	ldrdeq	r0, [r0], -r0	; <UNPREDICTABLE>
	...
     828:	00000044 	andeq	r0, r0, r4, asr #32
     82c:	00000048 	andeq	r0, r0, r8, asr #32
     830:	0000004c 	andeq	r0, r0, ip, asr #32
     834:	0000004c 	andeq	r0, r0, ip, asr #32
     838:	0000004c 	andeq	r0, r0, ip, asr #32
     83c:	0000004c 	andeq	r0, r0, ip, asr #32
     840:	0000004c 	andeq	r0, r0, ip, asr #32
     844:	0000004c 	andeq	r0, r0, ip, asr #32
     848:	0000004c 	andeq	r0, r0, ip, asr #32
     84c:	00000050 	andeq	r0, r0, r0, asr r0
     850:	00000050 	andeq	r0, r0, r0, asr r0
     854:	00000060 	andeq	r0, r0, r0, rrx
	...
     860:	00000044 	andeq	r0, r0, r4, asr #32
     864:	00000048 	andeq	r0, r0, r8, asr #32
     868:	0000004c 	andeq	r0, r0, ip, asr #32
     86c:	0000004c 	andeq	r0, r0, ip, asr #32
     870:	0000004c 	andeq	r0, r0, ip, asr #32
     874:	0000004c 	andeq	r0, r0, ip, asr #32
     878:	0000004c 	andeq	r0, r0, ip, asr #32
     87c:	00000050 	andeq	r0, r0, r0, asr r0
     880:	00000050 	andeq	r0, r0, r0, asr r0
     884:	00000060 	andeq	r0, r0, r0, rrx
	...
     890:	00000044 	andeq	r0, r0, r4, asr #32
     894:	00000048 	andeq	r0, r0, r8, asr #32
     898:	0000004c 	andeq	r0, r0, ip, asr #32
     89c:	0000004c 	andeq	r0, r0, ip, asr #32
	...
     8a8:	00000050 	andeq	r0, r0, r0, asr r0
     8ac:	00000050 	andeq	r0, r0, r0, asr r0
     8b0:	00000050 	andeq	r0, r0, r0, asr r0
     8b4:	00000060 	andeq	r0, r0, r0, rrx
	...
     8c0:	00000060 	andeq	r0, r0, r0, rrx
     8c4:	00000060 	andeq	r0, r0, r0, rrx
     8c8:	00000060 	andeq	r0, r0, r0, rrx
     8cc:	00000060 	andeq	r0, r0, r0, rrx
     8d0:	00000060 	andeq	r0, r0, r0, rrx
     8d4:	00000064 	andeq	r0, r0, r4, rrx
     8d8:	00000064 	andeq	r0, r0, r4, rrx
     8dc:	00000068 	andeq	r0, r0, r8, rrx
     8e0:	00000068 	andeq	r0, r0, r8, rrx
     8e4:	00000078 	andeq	r0, r0, r8, ror r0
	...
     8f0:	00000068 	andeq	r0, r0, r8, rrx
     8f4:	00000068 	andeq	r0, r0, r8, rrx
     8f8:	00000068 	andeq	r0, r0, r8, rrx
     8fc:	00000078 	andeq	r0, r0, r8, ror r0
	...
     908:	000001d0 	ldrdeq	r0, [r0], -r0	; <UNPREDICTABLE>
     90c:	000001d0 	ldrdeq	r0, [r0], -r0	; <UNPREDICTABLE>
     910:	000001d0 	ldrdeq	r0, [r0], -r0	; <UNPREDICTABLE>
     914:	000001d0 	ldrdeq	r0, [r0], -r0	; <UNPREDICTABLE>
     918:	000001d0 	ldrdeq	r0, [r0], -r0	; <UNPREDICTABLE>
     91c:	000001d4 	ldrdeq	r0, [r0], -r4
     920:	000001d4 	ldrdeq	r0, [r0], -r4
     924:	000001d8 	ldrdeq	r0, [r0], -r8
     928:	000001d8 	ldrdeq	r0, [r0], -r8
     92c:	000001e8 	andeq	r0, r0, r8, ror #3
	...
     938:	000001d8 	ldrdeq	r0, [r0], -r8
     93c:	000001d8 	ldrdeq	r0, [r0], -r8
     940:	000001d8 	ldrdeq	r0, [r0], -r8
     944:	000001e8 	andeq	r0, r0, r8, ror #3
	...
     950:	00000080 	andeq	r0, r0, r0, lsl #1
     954:	00000094 	muleq	r0, r4, r0
     958:	00000094 	muleq	r0, r4, r0
     95c:	00000094 	muleq	r0, r4, r0
     960:	00000094 	muleq	r0, r4, r0
     964:	00000094 	muleq	r0, r4, r0
     968:	00000094 	muleq	r0, r4, r0
     96c:	00000098 	muleq	r0, r8, r0
     970:	00000098 	muleq	r0, r8, r0
     974:	000000a8 	andeq	r0, r0, r8, lsr #1
     978:	000000a8 	andeq	r0, r0, r8, lsr #1
     97c:	000000a8 	andeq	r0, r0, r8, lsr #1
     980:	000000a8 	andeq	r0, r0, r8, lsr #1
     984:	000000ac 	andeq	r0, r0, ip, lsr #1
     988:	000000ac 	andeq	r0, r0, ip, lsr #1
     98c:	000000b0 	strheq	r0, [r0], -r0	; <UNPREDICTABLE>
     990:	000000b0 	strheq	r0, [r0], -r0	; <UNPREDICTABLE>
     994:	000000c8 	andeq	r0, r0, r8, asr #1
     998:	00000184 	andeq	r0, r0, r4, lsl #3
     99c:	00000184 	andeq	r0, r0, r4, lsl #3
     9a0:	00000184 	andeq	r0, r0, r4, lsl #3
     9a4:	00000184 	andeq	r0, r0, r4, lsl #3
     9a8:	00000184 	andeq	r0, r0, r4, lsl #3
     9ac:	00000184 	andeq	r0, r0, r4, lsl #3
     9b0:	00000184 	andeq	r0, r0, r4, lsl #3
     9b4:	00000188 	andeq	r0, r0, r8, lsl #3
     9b8:	00000188 	andeq	r0, r0, r8, lsl #3
     9bc:	00000198 	muleq	r0, r8, r1
     9c0:	00000198 	muleq	r0, r8, r1
     9c4:	00000198 	muleq	r0, r8, r1
     9c8:	00000198 	muleq	r0, r8, r1
     9cc:	0000019c 	muleq	r0, ip, r1
     9d0:	0000019c 	muleq	r0, ip, r1
     9d4:	000001a0 	andeq	r0, r0, r0, lsr #3
     9d8:	000001a0 	andeq	r0, r0, r0, lsr #3
     9dc:	000001bc 			; <UNDEFINED> instruction: 0x000001bc
	...
     9e8:	00000084 	andeq	r0, r0, r4, lsl #1
     9ec:	00000084 	andeq	r0, r0, r4, lsl #1
     9f0:	00000088 	andeq	r0, r0, r8, lsl #1
     9f4:	00000094 	muleq	r0, r4, r0
     9f8:	00000094 	muleq	r0, r4, r0
     9fc:	00000094 	muleq	r0, r4, r0
     a00:	00000094 	muleq	r0, r4, r0
     a04:	00000094 	muleq	r0, r4, r0
     a08:	00000094 	muleq	r0, r4, r0
     a0c:	00000098 	muleq	r0, r8, r0
     a10:	00000098 	muleq	r0, r8, r0
     a14:	000000a8 	andeq	r0, r0, r8, lsr #1
     a18:	000000a8 	andeq	r0, r0, r8, lsr #1
     a1c:	000000a8 	andeq	r0, r0, r8, lsr #1
     a20:	000000a8 	andeq	r0, r0, r8, lsr #1
     a24:	000000ac 	andeq	r0, r0, ip, lsr #1
     a28:	000000ac 	andeq	r0, r0, ip, lsr #1
     a2c:	000000b0 	strheq	r0, [r0], -r0	; <UNPREDICTABLE>
     a30:	000000b0 	strheq	r0, [r0], -r0	; <UNPREDICTABLE>
     a34:	000000c0 	andeq	r0, r0, r0, asr #1
     a38:	00000184 	andeq	r0, r0, r4, lsl #3
     a3c:	00000184 	andeq	r0, r0, r4, lsl #3
     a40:	00000184 	andeq	r0, r0, r4, lsl #3
     a44:	00000184 	andeq	r0, r0, r4, lsl #3
     a48:	00000184 	andeq	r0, r0, r4, lsl #3
     a4c:	00000184 	andeq	r0, r0, r4, lsl #3
     a50:	00000184 	andeq	r0, r0, r4, lsl #3
     a54:	00000188 	andeq	r0, r0, r8, lsl #3
     a58:	00000188 	andeq	r0, r0, r8, lsl #3
     a5c:	00000198 	muleq	r0, r8, r1
     a60:	00000198 	muleq	r0, r8, r1
     a64:	00000198 	muleq	r0, r8, r1
     a68:	00000198 	muleq	r0, r8, r1
     a6c:	0000019c 	muleq	r0, ip, r1
     a70:	0000019c 	muleq	r0, ip, r1
     a74:	000001a0 	andeq	r0, r0, r0, lsr #3
     a78:	000001a0 	andeq	r0, r0, r0, lsr #3
     a7c:	000001b0 			; <UNDEFINED> instruction: 0x000001b0
	...
     a88:	0000008c 	andeq	r0, r0, ip, lsl #1
     a8c:	00000090 	muleq	r0, r0, r0
     a90:	00000094 	muleq	r0, r4, r0
     a94:	00000094 	muleq	r0, r4, r0
     a98:	00000094 	muleq	r0, r4, r0
     a9c:	00000094 	muleq	r0, r4, r0
     aa0:	00000094 	muleq	r0, r4, r0
     aa4:	00000094 	muleq	r0, r4, r0
     aa8:	00000094 	muleq	r0, r4, r0
     aac:	00000098 	muleq	r0, r8, r0
     ab0:	00000098 	muleq	r0, r8, r0
     ab4:	000000a8 	andeq	r0, r0, r8, lsr #1
	...
     ac0:	0000008c 	andeq	r0, r0, ip, lsl #1
     ac4:	00000090 	muleq	r0, r0, r0
     ac8:	00000094 	muleq	r0, r4, r0
     acc:	00000094 	muleq	r0, r4, r0
     ad0:	00000094 	muleq	r0, r4, r0
     ad4:	00000094 	muleq	r0, r4, r0
     ad8:	00000094 	muleq	r0, r4, r0
     adc:	00000098 	muleq	r0, r8, r0
     ae0:	00000098 	muleq	r0, r8, r0
     ae4:	000000a8 	andeq	r0, r0, r8, lsr #1
	...
     af0:	0000008c 	andeq	r0, r0, ip, lsl #1
     af4:	00000090 	muleq	r0, r0, r0
     af8:	00000094 	muleq	r0, r4, r0
     afc:	00000094 	muleq	r0, r4, r0
	...
     b08:	00000098 	muleq	r0, r8, r0
     b0c:	00000098 	muleq	r0, r8, r0
     b10:	00000098 	muleq	r0, r8, r0
     b14:	000000a8 	andeq	r0, r0, r8, lsr #1
	...
     b20:	000000a8 	andeq	r0, r0, r8, lsr #1
     b24:	000000a8 	andeq	r0, r0, r8, lsr #1
     b28:	000000a8 	andeq	r0, r0, r8, lsr #1
     b2c:	000000a8 	andeq	r0, r0, r8, lsr #1
     b30:	000000a8 	andeq	r0, r0, r8, lsr #1
     b34:	000000ac 	andeq	r0, r0, ip, lsr #1
     b38:	000000ac 	andeq	r0, r0, ip, lsr #1
     b3c:	000000b0 	strheq	r0, [r0], -r0	; <UNPREDICTABLE>
     b40:	000000b0 	strheq	r0, [r0], -r0	; <UNPREDICTABLE>
     b44:	000000c0 	andeq	r0, r0, r0, asr #1
	...
     b50:	000000b0 	strheq	r0, [r0], -r0	; <UNPREDICTABLE>
     b54:	000000b0 	strheq	r0, [r0], -r0	; <UNPREDICTABLE>
     b58:	000000b0 	strheq	r0, [r0], -r0	; <UNPREDICTABLE>
     b5c:	000000c0 	andeq	r0, r0, r0, asr #1
	...
     b68:	00000184 	andeq	r0, r0, r4, lsl #3
     b6c:	00000184 	andeq	r0, r0, r4, lsl #3
     b70:	00000184 	andeq	r0, r0, r4, lsl #3
     b74:	00000184 	andeq	r0, r0, r4, lsl #3
     b78:	00000184 	andeq	r0, r0, r4, lsl #3
     b7c:	00000184 	andeq	r0, r0, r4, lsl #3
     b80:	00000184 	andeq	r0, r0, r4, lsl #3
     b84:	00000188 	andeq	r0, r0, r8, lsl #3
     b88:	00000188 	andeq	r0, r0, r8, lsl #3
     b8c:	00000198 	muleq	r0, r8, r1
	...
     b98:	00000188 	andeq	r0, r0, r8, lsl #3
     b9c:	00000188 	andeq	r0, r0, r8, lsl #3
     ba0:	00000188 	andeq	r0, r0, r8, lsl #3
     ba4:	00000198 	muleq	r0, r8, r1
	...
     bb0:	00000198 	muleq	r0, r8, r1
     bb4:	00000198 	muleq	r0, r8, r1
     bb8:	00000198 	muleq	r0, r8, r1
     bbc:	00000198 	muleq	r0, r8, r1
     bc0:	00000198 	muleq	r0, r8, r1
     bc4:	0000019c 	muleq	r0, ip, r1
     bc8:	0000019c 	muleq	r0, ip, r1
     bcc:	000001a0 	andeq	r0, r0, r0, lsr #3
     bd0:	000001a0 	andeq	r0, r0, r0, lsr #3
     bd4:	000001b0 			; <UNDEFINED> instruction: 0x000001b0
	...
     be0:	000001a0 	andeq	r0, r0, r0, lsr #3
     be4:	000001a0 	andeq	r0, r0, r0, lsr #3
     be8:	000001a0 	andeq	r0, r0, r0, lsr #3
     bec:	000001b0 			; <UNDEFINED> instruction: 0x000001b0
	...
     bf8:	000000c8 	andeq	r0, r0, r8, asr #1
     bfc:	000000dc 	ldrdeq	r0, [r0], -ip
     c00:	000000dc 	ldrdeq	r0, [r0], -ip
     c04:	000000dc 	ldrdeq	r0, [r0], -ip
     c08:	000000dc 	ldrdeq	r0, [r0], -ip
     c0c:	000000dc 	ldrdeq	r0, [r0], -ip
     c10:	000000dc 	ldrdeq	r0, [r0], -ip
     c14:	000000e0 	andeq	r0, r0, r0, ror #1
     c18:	000000e0 	andeq	r0, r0, r0, ror #1
     c1c:	000000f0 	strdeq	r0, [r0], -r0	; <UNPREDICTABLE>
     c20:	000000f0 	strdeq	r0, [r0], -r0	; <UNPREDICTABLE>
     c24:	000000f0 	strdeq	r0, [r0], -r0	; <UNPREDICTABLE>
     c28:	000000f0 	strdeq	r0, [r0], -r0	; <UNPREDICTABLE>
     c2c:	000000f4 	strdeq	r0, [r0], -r4
     c30:	000000f4 	strdeq	r0, [r0], -r4
     c34:	000000f8 	strdeq	r0, [r0], -r8
     c38:	000000f8 	strdeq	r0, [r0], -r8
     c3c:	00000110 	andeq	r0, r0, r0, lsl r1
     c40:	0000014c 	andeq	r0, r0, ip, asr #2
     c44:	0000014c 	andeq	r0, r0, ip, asr #2
     c48:	0000014c 	andeq	r0, r0, ip, asr #2
     c4c:	0000014c 	andeq	r0, r0, ip, asr #2
     c50:	0000014c 	andeq	r0, r0, ip, asr #2
     c54:	0000014c 	andeq	r0, r0, ip, asr #2
     c58:	0000014c 	andeq	r0, r0, ip, asr #2
     c5c:	00000150 	andeq	r0, r0, r0, asr r1
     c60:	00000150 	andeq	r0, r0, r0, asr r1
     c64:	00000160 	andeq	r0, r0, r0, ror #2
     c68:	00000160 	andeq	r0, r0, r0, ror #2
     c6c:	00000160 	andeq	r0, r0, r0, ror #2
     c70:	00000160 	andeq	r0, r0, r0, ror #2
     c74:	00000164 	andeq	r0, r0, r4, ror #2
     c78:	00000164 	andeq	r0, r0, r4, ror #2
     c7c:	00000168 	andeq	r0, r0, r8, ror #2
     c80:	00000168 	andeq	r0, r0, r8, ror #2
     c84:	00000184 	andeq	r0, r0, r4, lsl #3
	...
     c90:	000000cc 	andeq	r0, r0, ip, asr #1
     c94:	000000cc 	andeq	r0, r0, ip, asr #1
     c98:	000000d0 	ldrdeq	r0, [r0], -r0	; <UNPREDICTABLE>
     c9c:	000000dc 	ldrdeq	r0, [r0], -ip
     ca0:	000000dc 	ldrdeq	r0, [r0], -ip
     ca4:	000000dc 	ldrdeq	r0, [r0], -ip
     ca8:	000000dc 	ldrdeq	r0, [r0], -ip
     cac:	000000dc 	ldrdeq	r0, [r0], -ip
     cb0:	000000dc 	ldrdeq	r0, [r0], -ip
     cb4:	000000e0 	andeq	r0, r0, r0, ror #1
     cb8:	000000e0 	andeq	r0, r0, r0, ror #1
     cbc:	000000f0 	strdeq	r0, [r0], -r0	; <UNPREDICTABLE>
     cc0:	000000f0 	strdeq	r0, [r0], -r0	; <UNPREDICTABLE>
     cc4:	000000f0 	strdeq	r0, [r0], -r0	; <UNPREDICTABLE>
     cc8:	000000f0 	strdeq	r0, [r0], -r0	; <UNPREDICTABLE>
     ccc:	000000f4 	strdeq	r0, [r0], -r4
     cd0:	000000f4 	strdeq	r0, [r0], -r4
     cd4:	000000f8 	strdeq	r0, [r0], -r8
     cd8:	000000f8 	strdeq	r0, [r0], -r8
     cdc:	00000108 	andeq	r0, r0, r8, lsl #2
     ce0:	0000014c 	andeq	r0, r0, ip, asr #2
     ce4:	0000014c 	andeq	r0, r0, ip, asr #2
     ce8:	0000014c 	andeq	r0, r0, ip, asr #2
     cec:	0000014c 	andeq	r0, r0, ip, asr #2
     cf0:	0000014c 	andeq	r0, r0, ip, asr #2
     cf4:	0000014c 	andeq	r0, r0, ip, asr #2
     cf8:	0000014c 	andeq	r0, r0, ip, asr #2
     cfc:	00000150 	andeq	r0, r0, r0, asr r1
     d00:	00000150 	andeq	r0, r0, r0, asr r1
     d04:	00000160 	andeq	r0, r0, r0, ror #2
     d08:	00000160 	andeq	r0, r0, r0, ror #2
     d0c:	00000160 	andeq	r0, r0, r0, ror #2
     d10:	00000160 	andeq	r0, r0, r0, ror #2
     d14:	00000164 	andeq	r0, r0, r4, ror #2
     d18:	00000164 	andeq	r0, r0, r4, ror #2
     d1c:	00000168 	andeq	r0, r0, r8, ror #2
     d20:	00000168 	andeq	r0, r0, r8, ror #2
     d24:	00000178 	andeq	r0, r0, r8, ror r1
	...
     d30:	000000d4 	ldrdeq	r0, [r0], -r4
     d34:	000000d8 	ldrdeq	r0, [r0], -r8
     d38:	000000dc 	ldrdeq	r0, [r0], -ip
     d3c:	000000dc 	ldrdeq	r0, [r0], -ip
     d40:	000000dc 	ldrdeq	r0, [r0], -ip
     d44:	000000dc 	ldrdeq	r0, [r0], -ip
     d48:	000000dc 	ldrdeq	r0, [r0], -ip
     d4c:	000000dc 	ldrdeq	r0, [r0], -ip
     d50:	000000dc 	ldrdeq	r0, [r0], -ip
     d54:	000000e0 	andeq	r0, r0, r0, ror #1
     d58:	000000e0 	andeq	r0, r0, r0, ror #1
     d5c:	000000f0 	strdeq	r0, [r0], -r0	; <UNPREDICTABLE>
	...
     d68:	000000d4 	ldrdeq	r0, [r0], -r4
     d6c:	000000d8 	ldrdeq	r0, [r0], -r8
     d70:	000000dc 	ldrdeq	r0, [r0], -ip
     d74:	000000dc 	ldrdeq	r0, [r0], -ip
     d78:	000000dc 	ldrdeq	r0, [r0], -ip
     d7c:	000000dc 	ldrdeq	r0, [r0], -ip
     d80:	000000dc 	ldrdeq	r0, [r0], -ip
     d84:	000000e0 	andeq	r0, r0, r0, ror #1
     d88:	000000e0 	andeq	r0, r0, r0, ror #1
     d8c:	000000f0 	strdeq	r0, [r0], -r0	; <UNPREDICTABLE>
	...
     d98:	000000d4 	ldrdeq	r0, [r0], -r4
     d9c:	000000d8 	ldrdeq	r0, [r0], -r8
     da0:	000000dc 	ldrdeq	r0, [r0], -ip
     da4:	000000dc 	ldrdeq	r0, [r0], -ip
	...
     db0:	000000e0 	andeq	r0, r0, r0, ror #1
     db4:	000000e0 	andeq	r0, r0, r0, ror #1
     db8:	000000e0 	andeq	r0, r0, r0, ror #1
     dbc:	000000f0 	strdeq	r0, [r0], -r0	; <UNPREDICTABLE>
	...
     dc8:	000000f0 	strdeq	r0, [r0], -r0	; <UNPREDICTABLE>
     dcc:	000000f0 	strdeq	r0, [r0], -r0	; <UNPREDICTABLE>
     dd0:	000000f0 	strdeq	r0, [r0], -r0	; <UNPREDICTABLE>
     dd4:	000000f0 	strdeq	r0, [r0], -r0	; <UNPREDICTABLE>
     dd8:	000000f0 	strdeq	r0, [r0], -r0	; <UNPREDICTABLE>
     ddc:	000000f4 	strdeq	r0, [r0], -r4
     de0:	000000f4 	strdeq	r0, [r0], -r4
     de4:	000000f8 	strdeq	r0, [r0], -r8
     de8:	000000f8 	strdeq	r0, [r0], -r8
     dec:	00000108 	andeq	r0, r0, r8, lsl #2
	...
     df8:	000000f8 	strdeq	r0, [r0], -r8
     dfc:	000000f8 	strdeq	r0, [r0], -r8
     e00:	000000f8 	strdeq	r0, [r0], -r8
     e04:	00000108 	andeq	r0, r0, r8, lsl #2
	...
     e10:	0000014c 	andeq	r0, r0, ip, asr #2
     e14:	0000014c 	andeq	r0, r0, ip, asr #2
     e18:	0000014c 	andeq	r0, r0, ip, asr #2
     e1c:	0000014c 	andeq	r0, r0, ip, asr #2
     e20:	0000014c 	andeq	r0, r0, ip, asr #2
     e24:	0000014c 	andeq	r0, r0, ip, asr #2
     e28:	0000014c 	andeq	r0, r0, ip, asr #2
     e2c:	00000150 	andeq	r0, r0, r0, asr r1
     e30:	00000150 	andeq	r0, r0, r0, asr r1
     e34:	00000160 	andeq	r0, r0, r0, ror #2
	...
     e40:	00000150 	andeq	r0, r0, r0, asr r1
     e44:	00000150 	andeq	r0, r0, r0, asr r1
     e48:	00000150 	andeq	r0, r0, r0, asr r1
     e4c:	00000160 	andeq	r0, r0, r0, ror #2
	...
     e58:	00000160 	andeq	r0, r0, r0, ror #2
     e5c:	00000160 	andeq	r0, r0, r0, ror #2
     e60:	00000160 	andeq	r0, r0, r0, ror #2
     e64:	00000160 	andeq	r0, r0, r0, ror #2
     e68:	00000160 	andeq	r0, r0, r0, ror #2
     e6c:	00000164 	andeq	r0, r0, r4, ror #2
     e70:	00000164 	andeq	r0, r0, r4, ror #2
     e74:	00000168 	andeq	r0, r0, r8, ror #2
     e78:	00000168 	andeq	r0, r0, r8, ror #2
     e7c:	00000178 	andeq	r0, r0, r8, ror r1
	...
     e88:	00000168 	andeq	r0, r0, r8, ror #2
     e8c:	00000168 	andeq	r0, r0, r8, ror #2
     e90:	00000168 	andeq	r0, r0, r8, ror #2
     e94:	00000178 	andeq	r0, r0, r8, ror r1
	...
     ea0:	0000011c 	andeq	r0, r0, ip, lsl r1
     ea4:	0000011c 	andeq	r0, r0, ip, lsl r1
     ea8:	0000011c 	andeq	r0, r0, ip, lsl r1
     eac:	0000011c 	andeq	r0, r0, ip, lsl r1
     eb0:	0000011c 	andeq	r0, r0, ip, lsl r1
     eb4:	0000011c 	andeq	r0, r0, ip, lsl r1
     eb8:	0000011c 	andeq	r0, r0, ip, lsl r1
     ebc:	00000124 	andeq	r0, r0, r4, lsr #2
     ec0:	00000124 	andeq	r0, r0, r4, lsr #2
     ec4:	00000128 	andeq	r0, r0, r8, lsr #2
     ec8:	00000128 	andeq	r0, r0, r8, lsr #2
     ecc:	0000013c 	andeq	r0, r0, ip, lsr r1
     ed0:	00000200 	andeq	r0, r0, r0, lsl #4
     ed4:	00000200 	andeq	r0, r0, r0, lsl #4
     ed8:	00000200 	andeq	r0, r0, r0, lsl #4
     edc:	00000200 	andeq	r0, r0, r0, lsl #4
     ee0:	00000200 	andeq	r0, r0, r0, lsl #4
     ee4:	00000200 	andeq	r0, r0, r0, lsl #4
     ee8:	00000200 	andeq	r0, r0, r0, lsl #4
     eec:	00000208 	andeq	r0, r0, r8, lsl #4
     ef0:	00000208 	andeq	r0, r0, r8, lsl #4
     ef4:	0000020c 	andeq	r0, r0, ip, lsl #4
     ef8:	0000020c 	andeq	r0, r0, ip, lsl #4
     efc:	00000220 	andeq	r0, r0, r0, lsr #4
	...
     f08:	0000011c 	andeq	r0, r0, ip, lsl r1
     f0c:	0000011c 	andeq	r0, r0, ip, lsl r1
     f10:	0000011c 	andeq	r0, r0, ip, lsl r1
     f14:	0000011c 	andeq	r0, r0, ip, lsl r1
     f18:	0000011c 	andeq	r0, r0, ip, lsl r1
     f1c:	00000124 	andeq	r0, r0, r4, lsr #2
     f20:	00000124 	andeq	r0, r0, r4, lsr #2
     f24:	00000128 	andeq	r0, r0, r8, lsr #2
     f28:	00000128 	andeq	r0, r0, r8, lsr #2
     f2c:	0000013c 	andeq	r0, r0, ip, lsr r1
     f30:	00000200 	andeq	r0, r0, r0, lsl #4
     f34:	00000200 	andeq	r0, r0, r0, lsl #4
     f38:	00000200 	andeq	r0, r0, r0, lsl #4
     f3c:	00000200 	andeq	r0, r0, r0, lsl #4
     f40:	00000200 	andeq	r0, r0, r0, lsl #4
     f44:	00000208 	andeq	r0, r0, r8, lsl #4
     f48:	00000208 	andeq	r0, r0, r8, lsl #4
     f4c:	0000020c 	andeq	r0, r0, ip, lsl #4
     f50:	0000020c 	andeq	r0, r0, ip, lsl #4
     f54:	00000220 	andeq	r0, r0, r0, lsr #4
	...
     f60:	0000011c 	andeq	r0, r0, ip, lsl r1
     f64:	0000011c 	andeq	r0, r0, ip, lsl r1
     f68:	0000011c 	andeq	r0, r0, ip, lsl r1
     f6c:	00000124 	andeq	r0, r0, r4, lsr #2
     f70:	00000124 	andeq	r0, r0, r4, lsr #2
     f74:	00000128 	andeq	r0, r0, r8, lsr #2
     f78:	00000128 	andeq	r0, r0, r8, lsr #2
     f7c:	0000013c 	andeq	r0, r0, ip, lsr r1
     f80:	00000200 	andeq	r0, r0, r0, lsl #4
     f84:	00000200 	andeq	r0, r0, r0, lsl #4
     f88:	00000200 	andeq	r0, r0, r0, lsl #4
     f8c:	00000208 	andeq	r0, r0, r8, lsl #4
     f90:	00000208 	andeq	r0, r0, r8, lsl #4
     f94:	0000020c 	andeq	r0, r0, ip, lsl #4
     f98:	0000020c 	andeq	r0, r0, ip, lsl #4
     f9c:	00000220 	andeq	r0, r0, r0, lsr #4
	...
     fa8:	0000011c 	andeq	r0, r0, ip, lsl r1
     fac:	00000124 	andeq	r0, r0, r4, lsr #2
     fb0:	00000200 	andeq	r0, r0, r0, lsl #4
     fb4:	00000208 	andeq	r0, r0, r8, lsl #4
	...
     fc0:	00000124 	andeq	r0, r0, r4, lsr #2
     fc4:	00000128 	andeq	r0, r0, r8, lsr #2
     fc8:	00000208 	andeq	r0, r0, r8, lsl #4
     fcc:	0000020c 	andeq	r0, r0, ip, lsl #4
	...
     fd8:	00000128 	andeq	r0, r0, r8, lsr #2
     fdc:	00000128 	andeq	r0, r0, r8, lsr #2
     fe0:	00000128 	andeq	r0, r0, r8, lsr #2
     fe4:	0000013c 	andeq	r0, r0, ip, lsr r1
     fe8:	0000020c 	andeq	r0, r0, ip, lsl #4
     fec:	0000020c 	andeq	r0, r0, ip, lsl #4
     ff0:	0000020c 	andeq	r0, r0, ip, lsl #4
     ff4:	00000220 	andeq	r0, r0, r0, lsr #4
	...
    1000:	00000128 	andeq	r0, r0, r8, lsr #2
    1004:	0000013c 	andeq	r0, r0, ip, lsr r1
    1008:	0000020c 	andeq	r0, r0, ip, lsl #4
    100c:	00000220 	andeq	r0, r0, r0, lsr #4
	...
    1018:	0000012c 	andeq	r0, r0, ip, lsr #2
    101c:	00000130 	andeq	r0, r0, r0, lsr r1
    1020:	00000210 	andeq	r0, r0, r0, lsl r2
    1024:	00000214 	andeq	r0, r0, r4, lsl r2
	...
    1030:	00000280 	andeq	r0, r0, r0, lsl #5
    1034:	00000284 	andeq	r0, r0, r4, lsl #5
    1038:	00000284 	andeq	r0, r0, r4, lsl #5
    103c:	00000284 	andeq	r0, r0, r4, lsl #5
    1040:	00000284 	andeq	r0, r0, r4, lsl #5
    1044:	00000288 	andeq	r0, r0, r8, lsl #5
    1048:	0000028c 	andeq	r0, r0, ip, lsl #5
    104c:	000002a4 	andeq	r0, r0, r4, lsr #5
    1050:	000002a4 	andeq	r0, r0, r4, lsr #5
    1054:	000002a4 	andeq	r0, r0, r4, lsr #5
    1058:	000002a4 	andeq	r0, r0, r4, lsr #5
    105c:	000002a4 	andeq	r0, r0, r4, lsr #5
    1060:	000002a4 	andeq	r0, r0, r4, lsr #5
    1064:	000002a8 	andeq	r0, r0, r8, lsr #5
    1068:	000002a8 	andeq	r0, r0, r8, lsr #5
    106c:	000002b8 			; <UNDEFINED> instruction: 0x000002b8
    1070:	000002b8 			; <UNDEFINED> instruction: 0x000002b8
    1074:	000002b8 			; <UNDEFINED> instruction: 0x000002b8
    1078:	000002b8 			; <UNDEFINED> instruction: 0x000002b8
    107c:	000002bc 			; <UNDEFINED> instruction: 0x000002bc
    1080:	000002bc 			; <UNDEFINED> instruction: 0x000002bc
    1084:	000002c0 	andeq	r0, r0, r0, asr #5
    1088:	000002c0 	andeq	r0, r0, r0, asr #5
    108c:	000002f0 	strdeq	r0, [r0], -r0	; <UNPREDICTABLE>
    1090:	000002f0 	strdeq	r0, [r0], -r0	; <UNPREDICTABLE>
    1094:	000002f0 	strdeq	r0, [r0], -r0	; <UNPREDICTABLE>
    1098:	000002f0 	strdeq	r0, [r0], -r0	; <UNPREDICTABLE>
    109c:	000002f0 	strdeq	r0, [r0], -r0	; <UNPREDICTABLE>
    10a0:	000002f0 	strdeq	r0, [r0], -r0	; <UNPREDICTABLE>
    10a4:	000002f4 	strdeq	r0, [r0], -r4
    10a8:	000002f4 	strdeq	r0, [r0], -r4
    10ac:	00000304 	andeq	r0, r0, r4, lsl #6
    10b0:	00000304 	andeq	r0, r0, r4, lsl #6
    10b4:	00000304 	andeq	r0, r0, r4, lsl #6
    10b8:	00000304 	andeq	r0, r0, r4, lsl #6
    10bc:	00000308 	andeq	r0, r0, r8, lsl #6
    10c0:	00000308 	andeq	r0, r0, r8, lsl #6
    10c4:	0000030c 	andeq	r0, r0, ip, lsl #6
    10c8:	0000030c 	andeq	r0, r0, ip, lsl #6
    10cc:	0000033c 	andeq	r0, r0, ip, lsr r3
    10d0:	0000033c 	andeq	r0, r0, ip, lsr r3
    10d4:	0000033c 	andeq	r0, r0, ip, lsr r3
    10d8:	0000033c 	andeq	r0, r0, ip, lsr r3
    10dc:	0000033c 	andeq	r0, r0, ip, lsr r3
    10e0:	0000033c 	andeq	r0, r0, ip, lsr r3
    10e4:	00000340 	andeq	r0, r0, r0, asr #6
    10e8:	00000340 	andeq	r0, r0, r0, asr #6
    10ec:	00000350 	andeq	r0, r0, r0, asr r3
    10f0:	00000350 	andeq	r0, r0, r0, asr r3
    10f4:	00000350 	andeq	r0, r0, r0, asr r3
    10f8:	00000350 	andeq	r0, r0, r0, asr r3
    10fc:	00000354 	andeq	r0, r0, r4, asr r3
    1100:	00000354 	andeq	r0, r0, r4, asr r3
    1104:	00000358 	andeq	r0, r0, r8, asr r3
    1108:	00000358 	andeq	r0, r0, r8, asr r3
    110c:	00000380 	andeq	r0, r0, r0, lsl #7
    1110:	00000380 	andeq	r0, r0, r0, lsl #7
    1114:	00000380 	andeq	r0, r0, r0, lsl #7
    1118:	00000380 	andeq	r0, r0, r0, lsl #7
    111c:	00000380 	andeq	r0, r0, r0, lsl #7
    1120:	00000380 	andeq	r0, r0, r0, lsl #7
    1124:	00000384 	andeq	r0, r0, r4, lsl #7
    1128:	00000384 	andeq	r0, r0, r4, lsl #7
    112c:	00000394 	muleq	r0, r4, r3
    1130:	00000394 	muleq	r0, r4, r3
    1134:	00000394 	muleq	r0, r4, r3
    1138:	00000394 	muleq	r0, r4, r3
    113c:	00000398 	muleq	r0, r8, r3
    1140:	00000398 	muleq	r0, r8, r3
    1144:	0000039c 	muleq	r0, ip, r3
    1148:	0000039c 	muleq	r0, ip, r3
    114c:	000003b8 			; <UNDEFINED> instruction: 0x000003b8
    1150:	000003b8 			; <UNDEFINED> instruction: 0x000003b8
    1154:	000003b8 			; <UNDEFINED> instruction: 0x000003b8
    1158:	000003b8 			; <UNDEFINED> instruction: 0x000003b8
    115c:	000003b8 			; <UNDEFINED> instruction: 0x000003b8
    1160:	000003b8 			; <UNDEFINED> instruction: 0x000003b8
    1164:	000003bc 			; <UNDEFINED> instruction: 0x000003bc
    1168:	000003bc 			; <UNDEFINED> instruction: 0x000003bc
    116c:	000003cc 	andeq	r0, r0, ip, asr #7
    1170:	000003cc 	andeq	r0, r0, ip, asr #7
    1174:	000003cc 	andeq	r0, r0, ip, asr #7
    1178:	000003cc 	andeq	r0, r0, ip, asr #7
    117c:	000003d0 	ldrdeq	r0, [r0], -r0	; <UNPREDICTABLE>
    1180:	000003d0 	ldrdeq	r0, [r0], -r0	; <UNPREDICTABLE>
    1184:	000003d4 	ldrdeq	r0, [r0], -r4
    1188:	000003d4 	ldrdeq	r0, [r0], -r4
    118c:	000003f0 	strdeq	r0, [r0], -r0	; <UNPREDICTABLE>
    1190:	000003f0 	strdeq	r0, [r0], -r0	; <UNPREDICTABLE>
    1194:	000003f0 	strdeq	r0, [r0], -r0	; <UNPREDICTABLE>
    1198:	000003f0 	strdeq	r0, [r0], -r0	; <UNPREDICTABLE>
    119c:	000003f0 	strdeq	r0, [r0], -r0	; <UNPREDICTABLE>
    11a0:	000003f0 	strdeq	r0, [r0], -r0	; <UNPREDICTABLE>
    11a4:	000003f4 	strdeq	r0, [r0], -r4
    11a8:	000003f4 	strdeq	r0, [r0], -r4
    11ac:	00000404 	andeq	r0, r0, r4, lsl #8
    11b0:	00000404 	andeq	r0, r0, r4, lsl #8
    11b4:	00000404 	andeq	r0, r0, r4, lsl #8
    11b8:	00000404 	andeq	r0, r0, r4, lsl #8
    11bc:	00000408 	andeq	r0, r0, r8, lsl #8
    11c0:	00000408 	andeq	r0, r0, r8, lsl #8
    11c4:	0000040c 	andeq	r0, r0, ip, lsl #8
    11c8:	0000040c 	andeq	r0, r0, ip, lsl #8
    11cc:	0000042c 	andeq	r0, r0, ip, lsr #8
	...
    11d8:	00000280 	andeq	r0, r0, r0, lsl #5
    11dc:	00000284 	andeq	r0, r0, r4, lsl #5
    11e0:	00000284 	andeq	r0, r0, r4, lsl #5
    11e4:	00000284 	andeq	r0, r0, r4, lsl #5
    11e8:	00000284 	andeq	r0, r0, r4, lsl #5
    11ec:	00000288 	andeq	r0, r0, r8, lsl #5
    11f0:	0000028c 	andeq	r0, r0, ip, lsl #5
    11f4:	000002a4 	andeq	r0, r0, r4, lsr #5
    11f8:	000002a4 	andeq	r0, r0, r4, lsr #5
    11fc:	000002a4 	andeq	r0, r0, r4, lsr #5
    1200:	000002a4 	andeq	r0, r0, r4, lsr #5
    1204:	000002a4 	andeq	r0, r0, r4, lsr #5
    1208:	000002a4 	andeq	r0, r0, r4, lsr #5
    120c:	000002a8 	andeq	r0, r0, r8, lsr #5
    1210:	000002a8 	andeq	r0, r0, r8, lsr #5
    1214:	000002b8 			; <UNDEFINED> instruction: 0x000002b8
    1218:	000002b8 			; <UNDEFINED> instruction: 0x000002b8
    121c:	000002b8 			; <UNDEFINED> instruction: 0x000002b8
    1220:	000002b8 			; <UNDEFINED> instruction: 0x000002b8
    1224:	000002bc 			; <UNDEFINED> instruction: 0x000002bc
    1228:	000002bc 			; <UNDEFINED> instruction: 0x000002bc
    122c:	000002c0 	andeq	r0, r0, r0, asr #5
    1230:	000002c0 	andeq	r0, r0, r0, asr #5
    1234:	000002d8 	ldrdeq	r0, [r0], -r8
    1238:	000003f0 	strdeq	r0, [r0], -r0	; <UNPREDICTABLE>
    123c:	000003f0 	strdeq	r0, [r0], -r0	; <UNPREDICTABLE>
    1240:	000003f0 	strdeq	r0, [r0], -r0	; <UNPREDICTABLE>
    1244:	000003f0 	strdeq	r0, [r0], -r0	; <UNPREDICTABLE>
    1248:	000003f0 	strdeq	r0, [r0], -r0	; <UNPREDICTABLE>
    124c:	000003f0 	strdeq	r0, [r0], -r0	; <UNPREDICTABLE>
    1250:	000003f0 	strdeq	r0, [r0], -r0	; <UNPREDICTABLE>
    1254:	000003f4 	strdeq	r0, [r0], -r4
    1258:	000003f4 	strdeq	r0, [r0], -r4
    125c:	00000404 	andeq	r0, r0, r4, lsl #8
    1260:	00000404 	andeq	r0, r0, r4, lsl #8
    1264:	00000404 	andeq	r0, r0, r4, lsl #8
    1268:	00000404 	andeq	r0, r0, r4, lsl #8
    126c:	00000408 	andeq	r0, r0, r8, lsl #8
    1270:	00000408 	andeq	r0, r0, r8, lsl #8
    1274:	0000040c 	andeq	r0, r0, ip, lsl #8
    1278:	0000040c 	andeq	r0, r0, ip, lsl #8
    127c:	0000042c 	andeq	r0, r0, ip, lsr #8
	...
    1288:	00000280 	andeq	r0, r0, r0, lsl #5
    128c:	00000284 	andeq	r0, r0, r4, lsl #5
    1290:	00000284 	andeq	r0, r0, r4, lsl #5
    1294:	00000288 	andeq	r0, r0, r8, lsl #5
    1298:	0000028c 	andeq	r0, r0, ip, lsl #5
    129c:	000002a4 	andeq	r0, r0, r4, lsr #5
    12a0:	000002a4 	andeq	r0, r0, r4, lsr #5
    12a4:	000002a4 	andeq	r0, r0, r4, lsr #5
    12a8:	000002a4 	andeq	r0, r0, r4, lsr #5
    12ac:	000002a4 	andeq	r0, r0, r4, lsr #5
    12b0:	000002a4 	andeq	r0, r0, r4, lsr #5
    12b4:	000002a8 	andeq	r0, r0, r8, lsr #5
    12b8:	000002a8 	andeq	r0, r0, r8, lsr #5
    12bc:	000002b8 			; <UNDEFINED> instruction: 0x000002b8
    12c0:	000002b8 			; <UNDEFINED> instruction: 0x000002b8
    12c4:	000002b8 			; <UNDEFINED> instruction: 0x000002b8
    12c8:	000002b8 			; <UNDEFINED> instruction: 0x000002b8
    12cc:	000002bc 			; <UNDEFINED> instruction: 0x000002bc
    12d0:	000002bc 			; <UNDEFINED> instruction: 0x000002bc
    12d4:	000002c0 	andeq	r0, r0, r0, asr #5
    12d8:	000002c0 	andeq	r0, r0, r0, asr #5
    12dc:	000002d8 	ldrdeq	r0, [r0], -r8
    12e0:	000003f0 	strdeq	r0, [r0], -r0	; <UNPREDICTABLE>
    12e4:	000003f0 	strdeq	r0, [r0], -r0	; <UNPREDICTABLE>
    12e8:	000003f0 	strdeq	r0, [r0], -r0	; <UNPREDICTABLE>
    12ec:	000003f0 	strdeq	r0, [r0], -r0	; <UNPREDICTABLE>
    12f0:	000003f0 	strdeq	r0, [r0], -r0	; <UNPREDICTABLE>
    12f4:	000003f0 	strdeq	r0, [r0], -r0	; <UNPREDICTABLE>
    12f8:	000003f0 	strdeq	r0, [r0], -r0	; <UNPREDICTABLE>
    12fc:	000003f4 	strdeq	r0, [r0], -r4
    1300:	000003f4 	strdeq	r0, [r0], -r4
    1304:	00000404 	andeq	r0, r0, r4, lsl #8
    1308:	00000404 	andeq	r0, r0, r4, lsl #8
    130c:	00000404 	andeq	r0, r0, r4, lsl #8
    1310:	00000404 	andeq	r0, r0, r4, lsl #8
    1314:	00000408 	andeq	r0, r0, r8, lsl #8
    1318:	00000408 	andeq	r0, r0, r8, lsl #8
    131c:	0000040c 	andeq	r0, r0, ip, lsl #8
    1320:	0000040c 	andeq	r0, r0, ip, lsl #8
    1324:	0000042c 	andeq	r0, r0, ip, lsr #8
	...
    1330:	00000280 	andeq	r0, r0, r0, lsl #5
    1334:	00000284 	andeq	r0, r0, r4, lsl #5
    1338:	0000028c 	andeq	r0, r0, ip, lsl #5
    133c:	00000294 	muleq	r0, r4, r2
    1340:	00000294 	muleq	r0, r4, r2
    1344:	00000294 	muleq	r0, r4, r2
    1348:	00000298 	muleq	r0, r8, r2
    134c:	000002a4 	andeq	r0, r0, r4, lsr #5
    1350:	000002a4 	andeq	r0, r0, r4, lsr #5
    1354:	000002a4 	andeq	r0, r0, r4, lsr #5
    1358:	000002a4 	andeq	r0, r0, r4, lsr #5
    135c:	000002a4 	andeq	r0, r0, r4, lsr #5
    1360:	000002a4 	andeq	r0, r0, r4, lsr #5
    1364:	000002a8 	andeq	r0, r0, r8, lsr #5
    1368:	000002a8 	andeq	r0, r0, r8, lsr #5
    136c:	000002b8 			; <UNDEFINED> instruction: 0x000002b8
    1370:	000002b8 			; <UNDEFINED> instruction: 0x000002b8
    1374:	000002b8 			; <UNDEFINED> instruction: 0x000002b8
    1378:	000002b8 			; <UNDEFINED> instruction: 0x000002b8
    137c:	000002bc 			; <UNDEFINED> instruction: 0x000002bc
    1380:	000002bc 			; <UNDEFINED> instruction: 0x000002bc
    1384:	000002c0 	andeq	r0, r0, r0, asr #5
    1388:	000002c0 	andeq	r0, r0, r0, asr #5
    138c:	000002d0 	ldrdeq	r0, [r0], -r0	; <UNPREDICTABLE>
    1390:	000003f0 	strdeq	r0, [r0], -r0	; <UNPREDICTABLE>
    1394:	000003f0 	strdeq	r0, [r0], -r0	; <UNPREDICTABLE>
    1398:	000003f0 	strdeq	r0, [r0], -r0	; <UNPREDICTABLE>
    139c:	000003f0 	strdeq	r0, [r0], -r0	; <UNPREDICTABLE>
    13a0:	000003f0 	strdeq	r0, [r0], -r0	; <UNPREDICTABLE>
    13a4:	000003f0 	strdeq	r0, [r0], -r0	; <UNPREDICTABLE>
    13a8:	000003f0 	strdeq	r0, [r0], -r0	; <UNPREDICTABLE>
    13ac:	000003f4 	strdeq	r0, [r0], -r4
    13b0:	000003f4 	strdeq	r0, [r0], -r4
    13b4:	00000404 	andeq	r0, r0, r4, lsl #8
    13b8:	00000404 	andeq	r0, r0, r4, lsl #8
    13bc:	00000404 	andeq	r0, r0, r4, lsl #8
    13c0:	00000404 	andeq	r0, r0, r4, lsl #8
    13c4:	00000408 	andeq	r0, r0, r8, lsl #8
    13c8:	00000408 	andeq	r0, r0, r8, lsl #8
    13cc:	0000040c 	andeq	r0, r0, ip, lsl #8
    13d0:	0000040c 	andeq	r0, r0, ip, lsl #8
    13d4:	0000041c 	andeq	r0, r0, ip, lsl r4
	...
    13e0:	00000280 	andeq	r0, r0, r0, lsl #5
    13e4:	00000284 	andeq	r0, r0, r4, lsl #5
    13e8:	0000028c 	andeq	r0, r0, ip, lsl #5
    13ec:	00000294 	muleq	r0, r4, r2
    13f0:	000003f0 	strdeq	r0, [r0], -r0	; <UNPREDICTABLE>
    13f4:	000003f0 	strdeq	r0, [r0], -r0	; <UNPREDICTABLE>
    13f8:	000003f0 	strdeq	r0, [r0], -r0	; <UNPREDICTABLE>
    13fc:	000003f0 	strdeq	r0, [r0], -r0	; <UNPREDICTABLE>
    1400:	000003f0 	strdeq	r0, [r0], -r0	; <UNPREDICTABLE>
    1404:	000003f0 	strdeq	r0, [r0], -r0	; <UNPREDICTABLE>
    1408:	000003f0 	strdeq	r0, [r0], -r0	; <UNPREDICTABLE>
    140c:	000003f4 	strdeq	r0, [r0], -r4
    1410:	000003f4 	strdeq	r0, [r0], -r4
    1414:	00000404 	andeq	r0, r0, r4, lsl #8
	...
    1420:	00000280 	andeq	r0, r0, r0, lsl #5
    1424:	00000284 	andeq	r0, r0, r4, lsl #5
    1428:	0000028c 	andeq	r0, r0, ip, lsl #5
    142c:	00000294 	muleq	r0, r4, r2
    1430:	000003f0 	strdeq	r0, [r0], -r0	; <UNPREDICTABLE>
    1434:	000003f0 	strdeq	r0, [r0], -r0	; <UNPREDICTABLE>
    1438:	000003f0 	strdeq	r0, [r0], -r0	; <UNPREDICTABLE>
    143c:	000003f0 	strdeq	r0, [r0], -r0	; <UNPREDICTABLE>
    1440:	000003f0 	strdeq	r0, [r0], -r0	; <UNPREDICTABLE>
    1444:	000003f4 	strdeq	r0, [r0], -r4
    1448:	000003f4 	strdeq	r0, [r0], -r4
    144c:	00000404 	andeq	r0, r0, r4, lsl #8
	...
    1458:	00000280 	andeq	r0, r0, r0, lsl #5
    145c:	00000284 	andeq	r0, r0, r4, lsl #5
    1460:	0000028c 	andeq	r0, r0, ip, lsl #5
    1464:	00000294 	muleq	r0, r4, r2
    1468:	000003f0 	strdeq	r0, [r0], -r0	; <UNPREDICTABLE>
    146c:	000003f0 	strdeq	r0, [r0], -r0	; <UNPREDICTABLE>
	...
    1478:	000003f4 	strdeq	r0, [r0], -r4
    147c:	000003f4 	strdeq	r0, [r0], -r4
    1480:	000003f4 	strdeq	r0, [r0], -r4
    1484:	00000404 	andeq	r0, r0, r4, lsl #8
	...
    1490:	0000029c 	muleq	r0, ip, r2
    1494:	000002a0 	andeq	r0, r0, r0, lsr #5
    1498:	000002a4 	andeq	r0, r0, r4, lsr #5
    149c:	000002a4 	andeq	r0, r0, r4, lsr #5
    14a0:	000002a4 	andeq	r0, r0, r4, lsr #5
    14a4:	000002a4 	andeq	r0, r0, r4, lsr #5
    14a8:	000002a4 	andeq	r0, r0, r4, lsr #5
    14ac:	000002a4 	andeq	r0, r0, r4, lsr #5
    14b0:	000002a4 	andeq	r0, r0, r4, lsr #5
    14b4:	000002a8 	andeq	r0, r0, r8, lsr #5
    14b8:	000002a8 	andeq	r0, r0, r8, lsr #5
    14bc:	000002b8 			; <UNDEFINED> instruction: 0x000002b8
	...
    14c8:	0000029c 	muleq	r0, ip, r2
    14cc:	000002a0 	andeq	r0, r0, r0, lsr #5
    14d0:	000002a4 	andeq	r0, r0, r4, lsr #5
    14d4:	000002a4 	andeq	r0, r0, r4, lsr #5
    14d8:	000002a4 	andeq	r0, r0, r4, lsr #5
    14dc:	000002a4 	andeq	r0, r0, r4, lsr #5
    14e0:	000002a4 	andeq	r0, r0, r4, lsr #5
    14e4:	000002a8 	andeq	r0, r0, r8, lsr #5
    14e8:	000002a8 	andeq	r0, r0, r8, lsr #5
    14ec:	000002b8 			; <UNDEFINED> instruction: 0x000002b8
	...
    14f8:	0000029c 	muleq	r0, ip, r2
    14fc:	000002a0 	andeq	r0, r0, r0, lsr #5
    1500:	000002a4 	andeq	r0, r0, r4, lsr #5
    1504:	000002a4 	andeq	r0, r0, r4, lsr #5
	...
    1510:	000002a8 	andeq	r0, r0, r8, lsr #5
    1514:	000002a8 	andeq	r0, r0, r8, lsr #5
    1518:	000002a8 	andeq	r0, r0, r8, lsr #5
    151c:	000002b8 			; <UNDEFINED> instruction: 0x000002b8
	...
    1528:	000002b8 			; <UNDEFINED> instruction: 0x000002b8
    152c:	000002b8 			; <UNDEFINED> instruction: 0x000002b8
    1530:	000002b8 			; <UNDEFINED> instruction: 0x000002b8
    1534:	000002b8 			; <UNDEFINED> instruction: 0x000002b8
    1538:	000002b8 			; <UNDEFINED> instruction: 0x000002b8
    153c:	000002bc 			; <UNDEFINED> instruction: 0x000002bc
    1540:	000002bc 			; <UNDEFINED> instruction: 0x000002bc
    1544:	000002c0 	andeq	r0, r0, r0, asr #5
    1548:	000002c0 	andeq	r0, r0, r0, asr #5
    154c:	000002d0 	ldrdeq	r0, [r0], -r0	; <UNPREDICTABLE>
	...
    1558:	000002c0 	andeq	r0, r0, r0, asr #5
    155c:	000002c0 	andeq	r0, r0, r0, asr #5
    1560:	000002c0 	andeq	r0, r0, r0, asr #5
    1564:	000002d0 	ldrdeq	r0, [r0], -r0	; <UNPREDICTABLE>
	...
    1570:	00000404 	andeq	r0, r0, r4, lsl #8
    1574:	00000404 	andeq	r0, r0, r4, lsl #8
    1578:	00000404 	andeq	r0, r0, r4, lsl #8
    157c:	00000404 	andeq	r0, r0, r4, lsl #8
    1580:	00000404 	andeq	r0, r0, r4, lsl #8
    1584:	00000408 	andeq	r0, r0, r8, lsl #8
    1588:	00000408 	andeq	r0, r0, r8, lsl #8
    158c:	0000040c 	andeq	r0, r0, ip, lsl #8
    1590:	0000040c 	andeq	r0, r0, ip, lsl #8
    1594:	0000041c 	andeq	r0, r0, ip, lsl r4
	...
    15a0:	0000040c 	andeq	r0, r0, ip, lsl #8
    15a4:	0000040c 	andeq	r0, r0, ip, lsl #8
    15a8:	0000040c 	andeq	r0, r0, ip, lsl #8
    15ac:	0000041c 	andeq	r0, r0, ip, lsl r4
	...
    15b8:	000002d8 	ldrdeq	r0, [r0], -r8
    15bc:	000002f0 	strdeq	r0, [r0], -r0	; <UNPREDICTABLE>
    15c0:	000002f0 	strdeq	r0, [r0], -r0	; <UNPREDICTABLE>
    15c4:	000002f0 	strdeq	r0, [r0], -r0	; <UNPREDICTABLE>
    15c8:	000002f0 	strdeq	r0, [r0], -r0	; <UNPREDICTABLE>
    15cc:	000002f0 	strdeq	r0, [r0], -r0	; <UNPREDICTABLE>
    15d0:	000002f0 	strdeq	r0, [r0], -r0	; <UNPREDICTABLE>
    15d4:	000002f4 	strdeq	r0, [r0], -r4
    15d8:	000002f4 	strdeq	r0, [r0], -r4
    15dc:	00000304 	andeq	r0, r0, r4, lsl #6
    15e0:	00000304 	andeq	r0, r0, r4, lsl #6
    15e4:	00000304 	andeq	r0, r0, r4, lsl #6
    15e8:	00000304 	andeq	r0, r0, r4, lsl #6
    15ec:	00000308 	andeq	r0, r0, r8, lsl #6
    15f0:	00000308 	andeq	r0, r0, r8, lsl #6
    15f4:	0000030c 	andeq	r0, r0, ip, lsl #6
    15f8:	0000030c 	andeq	r0, r0, ip, lsl #6
    15fc:	00000324 	andeq	r0, r0, r4, lsr #6
    1600:	000003b8 			; <UNDEFINED> instruction: 0x000003b8
    1604:	000003b8 			; <UNDEFINED> instruction: 0x000003b8
    1608:	000003b8 			; <UNDEFINED> instruction: 0x000003b8
    160c:	000003b8 			; <UNDEFINED> instruction: 0x000003b8
    1610:	000003b8 			; <UNDEFINED> instruction: 0x000003b8
    1614:	000003b8 			; <UNDEFINED> instruction: 0x000003b8
    1618:	000003b8 			; <UNDEFINED> instruction: 0x000003b8
    161c:	000003bc 			; <UNDEFINED> instruction: 0x000003bc
    1620:	000003bc 			; <UNDEFINED> instruction: 0x000003bc
    1624:	000003cc 	andeq	r0, r0, ip, asr #7
    1628:	000003cc 	andeq	r0, r0, ip, asr #7
    162c:	000003cc 	andeq	r0, r0, ip, asr #7
    1630:	000003cc 	andeq	r0, r0, ip, asr #7
    1634:	000003d0 	ldrdeq	r0, [r0], -r0	; <UNPREDICTABLE>
    1638:	000003d0 	ldrdeq	r0, [r0], -r0	; <UNPREDICTABLE>
    163c:	000003d4 	ldrdeq	r0, [r0], -r4
    1640:	000003d4 	ldrdeq	r0, [r0], -r4
    1644:	000003f0 	strdeq	r0, [r0], -r0	; <UNPREDICTABLE>
	...
    1650:	000002dc 	ldrdeq	r0, [r0], -ip
    1654:	000002e0 	andeq	r0, r0, r0, ror #5
    1658:	000002e0 	andeq	r0, r0, r0, ror #5
    165c:	000002e0 	andeq	r0, r0, r0, ror #5
    1660:	000002e4 	andeq	r0, r0, r4, ror #5
    1664:	000002f0 	strdeq	r0, [r0], -r0	; <UNPREDICTABLE>
    1668:	000002f0 	strdeq	r0, [r0], -r0	; <UNPREDICTABLE>
    166c:	000002f0 	strdeq	r0, [r0], -r0	; <UNPREDICTABLE>
    1670:	000002f0 	strdeq	r0, [r0], -r0	; <UNPREDICTABLE>
    1674:	000002f0 	strdeq	r0, [r0], -r0	; <UNPREDICTABLE>
    1678:	000002f0 	strdeq	r0, [r0], -r0	; <UNPREDICTABLE>
    167c:	000002f4 	strdeq	r0, [r0], -r4
    1680:	000002f4 	strdeq	r0, [r0], -r4
    1684:	00000304 	andeq	r0, r0, r4, lsl #6
    1688:	00000304 	andeq	r0, r0, r4, lsl #6
    168c:	00000304 	andeq	r0, r0, r4, lsl #6
    1690:	00000304 	andeq	r0, r0, r4, lsl #6
    1694:	00000308 	andeq	r0, r0, r8, lsl #6
    1698:	00000308 	andeq	r0, r0, r8, lsl #6
    169c:	0000030c 	andeq	r0, r0, ip, lsl #6
    16a0:	0000030c 	andeq	r0, r0, ip, lsl #6
    16a4:	0000031c 	andeq	r0, r0, ip, lsl r3
    16a8:	000003b8 			; <UNDEFINED> instruction: 0x000003b8
    16ac:	000003b8 			; <UNDEFINED> instruction: 0x000003b8
    16b0:	000003b8 			; <UNDEFINED> instruction: 0x000003b8
    16b4:	000003b8 			; <UNDEFINED> instruction: 0x000003b8
    16b8:	000003b8 			; <UNDEFINED> instruction: 0x000003b8
    16bc:	000003b8 			; <UNDEFINED> instruction: 0x000003b8
    16c0:	000003b8 			; <UNDEFINED> instruction: 0x000003b8
    16c4:	000003bc 			; <UNDEFINED> instruction: 0x000003bc
    16c8:	000003bc 			; <UNDEFINED> instruction: 0x000003bc
    16cc:	000003cc 	andeq	r0, r0, ip, asr #7
    16d0:	000003cc 	andeq	r0, r0, ip, asr #7
    16d4:	000003cc 	andeq	r0, r0, ip, asr #7
    16d8:	000003cc 	andeq	r0, r0, ip, asr #7
    16dc:	000003d0 	ldrdeq	r0, [r0], -r0	; <UNPREDICTABLE>
    16e0:	000003d0 	ldrdeq	r0, [r0], -r0	; <UNPREDICTABLE>
    16e4:	000003d4 	ldrdeq	r0, [r0], -r4
    16e8:	000003d4 	ldrdeq	r0, [r0], -r4
    16ec:	000003e4 	andeq	r0, r0, r4, ror #7
	...
    16f8:	000002dc 	ldrdeq	r0, [r0], -ip
    16fc:	000002e0 	andeq	r0, r0, r0, ror #5
    1700:	000003b8 			; <UNDEFINED> instruction: 0x000003b8
    1704:	000003b8 			; <UNDEFINED> instruction: 0x000003b8
    1708:	000003b8 			; <UNDEFINED> instruction: 0x000003b8
    170c:	000003b8 			; <UNDEFINED> instruction: 0x000003b8
    1710:	000003b8 			; <UNDEFINED> instruction: 0x000003b8
    1714:	000003b8 			; <UNDEFINED> instruction: 0x000003b8
    1718:	000003b8 			; <UNDEFINED> instruction: 0x000003b8
    171c:	000003bc 			; <UNDEFINED> instruction: 0x000003bc
    1720:	000003bc 			; <UNDEFINED> instruction: 0x000003bc
    1724:	000003cc 	andeq	r0, r0, ip, asr #7
	...
    1730:	000002dc 	ldrdeq	r0, [r0], -ip
    1734:	000002e0 	andeq	r0, r0, r0, ror #5
    1738:	000003b8 			; <UNDEFINED> instruction: 0x000003b8
    173c:	000003b8 			; <UNDEFINED> instruction: 0x000003b8
    1740:	000003b8 			; <UNDEFINED> instruction: 0x000003b8
    1744:	000003b8 			; <UNDEFINED> instruction: 0x000003b8
    1748:	000003b8 			; <UNDEFINED> instruction: 0x000003b8
    174c:	000003bc 			; <UNDEFINED> instruction: 0x000003bc
    1750:	000003bc 			; <UNDEFINED> instruction: 0x000003bc
    1754:	000003cc 	andeq	r0, r0, ip, asr #7
	...
    1760:	000002dc 	ldrdeq	r0, [r0], -ip
    1764:	000002e0 	andeq	r0, r0, r0, ror #5
    1768:	000003b8 			; <UNDEFINED> instruction: 0x000003b8
    176c:	000003b8 			; <UNDEFINED> instruction: 0x000003b8
	...
    1778:	000003bc 			; <UNDEFINED> instruction: 0x000003bc
    177c:	000003bc 			; <UNDEFINED> instruction: 0x000003bc
    1780:	000003bc 			; <UNDEFINED> instruction: 0x000003bc
    1784:	000003cc 	andeq	r0, r0, ip, asr #7
	...
    1790:	000002e8 	andeq	r0, r0, r8, ror #5
    1794:	000002ec 	andeq	r0, r0, ip, ror #5
    1798:	000002f0 	strdeq	r0, [r0], -r0	; <UNPREDICTABLE>
    179c:	000002f0 	strdeq	r0, [r0], -r0	; <UNPREDICTABLE>
    17a0:	000002f0 	strdeq	r0, [r0], -r0	; <UNPREDICTABLE>
    17a4:	000002f0 	strdeq	r0, [r0], -r0	; <UNPREDICTABLE>
    17a8:	000002f0 	strdeq	r0, [r0], -r0	; <UNPREDICTABLE>
    17ac:	000002f0 	strdeq	r0, [r0], -r0	; <UNPREDICTABLE>
    17b0:	000002f0 	strdeq	r0, [r0], -r0	; <UNPREDICTABLE>
    17b4:	000002f4 	strdeq	r0, [r0], -r4
    17b8:	000002f4 	strdeq	r0, [r0], -r4
    17bc:	00000304 	andeq	r0, r0, r4, lsl #6
	...
    17c8:	000002e8 	andeq	r0, r0, r8, ror #5
    17cc:	000002ec 	andeq	r0, r0, ip, ror #5
    17d0:	000002f0 	strdeq	r0, [r0], -r0	; <UNPREDICTABLE>
    17d4:	000002f0 	strdeq	r0, [r0], -r0	; <UNPREDICTABLE>
    17d8:	000002f0 	strdeq	r0, [r0], -r0	; <UNPREDICTABLE>
    17dc:	000002f0 	strdeq	r0, [r0], -r0	; <UNPREDICTABLE>
    17e0:	000002f0 	strdeq	r0, [r0], -r0	; <UNPREDICTABLE>
    17e4:	000002f4 	strdeq	r0, [r0], -r4
    17e8:	000002f4 	strdeq	r0, [r0], -r4
    17ec:	00000304 	andeq	r0, r0, r4, lsl #6
	...
    17f8:	000002e8 	andeq	r0, r0, r8, ror #5
    17fc:	000002ec 	andeq	r0, r0, ip, ror #5
    1800:	000002f0 	strdeq	r0, [r0], -r0	; <UNPREDICTABLE>
    1804:	000002f0 	strdeq	r0, [r0], -r0	; <UNPREDICTABLE>
	...
    1810:	000002f4 	strdeq	r0, [r0], -r4
    1814:	000002f4 	strdeq	r0, [r0], -r4
    1818:	000002f4 	strdeq	r0, [r0], -r4
    181c:	00000304 	andeq	r0, r0, r4, lsl #6
	...
    1828:	00000304 	andeq	r0, r0, r4, lsl #6
    182c:	00000304 	andeq	r0, r0, r4, lsl #6
    1830:	00000304 	andeq	r0, r0, r4, lsl #6
    1834:	00000304 	andeq	r0, r0, r4, lsl #6
    1838:	00000304 	andeq	r0, r0, r4, lsl #6
    183c:	00000308 	andeq	r0, r0, r8, lsl #6
    1840:	00000308 	andeq	r0, r0, r8, lsl #6
    1844:	0000030c 	andeq	r0, r0, ip, lsl #6
    1848:	0000030c 	andeq	r0, r0, ip, lsl #6
    184c:	0000031c 	andeq	r0, r0, ip, lsl r3
	...
    1858:	0000030c 	andeq	r0, r0, ip, lsl #6
    185c:	0000030c 	andeq	r0, r0, ip, lsl #6
    1860:	0000030c 	andeq	r0, r0, ip, lsl #6
    1864:	0000031c 	andeq	r0, r0, ip, lsl r3
	...
    1870:	000003cc 	andeq	r0, r0, ip, asr #7
    1874:	000003cc 	andeq	r0, r0, ip, asr #7
    1878:	000003cc 	andeq	r0, r0, ip, asr #7
    187c:	000003cc 	andeq	r0, r0, ip, asr #7
    1880:	000003cc 	andeq	r0, r0, ip, asr #7
    1884:	000003d0 	ldrdeq	r0, [r0], -r0	; <UNPREDICTABLE>
    1888:	000003d0 	ldrdeq	r0, [r0], -r0	; <UNPREDICTABLE>
    188c:	000003d4 	ldrdeq	r0, [r0], -r4
    1890:	000003d4 	ldrdeq	r0, [r0], -r4
    1894:	000003e4 	andeq	r0, r0, r4, ror #7
	...
    18a0:	000003d4 	ldrdeq	r0, [r0], -r4
    18a4:	000003d4 	ldrdeq	r0, [r0], -r4
    18a8:	000003d4 	ldrdeq	r0, [r0], -r4
    18ac:	000003e4 	andeq	r0, r0, r4, ror #7
	...
    18b8:	00000324 	andeq	r0, r0, r4, lsr #6
    18bc:	0000033c 	andeq	r0, r0, ip, lsr r3
    18c0:	0000033c 	andeq	r0, r0, ip, lsr r3
    18c4:	0000033c 	andeq	r0, r0, ip, lsr r3
    18c8:	0000033c 	andeq	r0, r0, ip, lsr r3
    18cc:	0000033c 	andeq	r0, r0, ip, lsr r3
    18d0:	0000033c 	andeq	r0, r0, ip, lsr r3
    18d4:	00000340 	andeq	r0, r0, r0, asr #6
    18d8:	00000340 	andeq	r0, r0, r0, asr #6
    18dc:	00000350 	andeq	r0, r0, r0, asr r3
    18e0:	00000350 	andeq	r0, r0, r0, asr r3
    18e4:	00000350 	andeq	r0, r0, r0, asr r3
    18e8:	00000350 	andeq	r0, r0, r0, asr r3
    18ec:	00000354 	andeq	r0, r0, r4, asr r3
    18f0:	00000354 	andeq	r0, r0, r4, asr r3
    18f4:	00000358 	andeq	r0, r0, r8, asr r3
    18f8:	00000358 	andeq	r0, r0, r8, asr r3
    18fc:	00000380 	andeq	r0, r0, r0, lsl #7
    1900:	00000380 	andeq	r0, r0, r0, lsl #7
    1904:	00000380 	andeq	r0, r0, r0, lsl #7
    1908:	00000380 	andeq	r0, r0, r0, lsl #7
    190c:	00000380 	andeq	r0, r0, r0, lsl #7
    1910:	00000380 	andeq	r0, r0, r0, lsl #7
    1914:	00000384 	andeq	r0, r0, r4, lsl #7
    1918:	00000384 	andeq	r0, r0, r4, lsl #7
    191c:	00000394 	muleq	r0, r4, r3
    1920:	00000394 	muleq	r0, r4, r3
    1924:	00000394 	muleq	r0, r4, r3
    1928:	00000394 	muleq	r0, r4, r3
    192c:	00000398 	muleq	r0, r8, r3
    1930:	00000398 	muleq	r0, r8, r3
    1934:	0000039c 	muleq	r0, ip, r3
    1938:	0000039c 	muleq	r0, ip, r3
    193c:	000003b8 			; <UNDEFINED> instruction: 0x000003b8
	...
    1948:	00000328 	andeq	r0, r0, r8, lsr #6
    194c:	0000032c 	andeq	r0, r0, ip, lsr #6
    1950:	00000330 	andeq	r0, r0, r0, lsr r3
    1954:	0000033c 	andeq	r0, r0, ip, lsr r3
    1958:	0000033c 	andeq	r0, r0, ip, lsr r3
    195c:	0000033c 	andeq	r0, r0, ip, lsr r3
    1960:	0000033c 	andeq	r0, r0, ip, lsr r3
    1964:	0000033c 	andeq	r0, r0, ip, lsr r3
    1968:	0000033c 	andeq	r0, r0, ip, lsr r3
    196c:	00000340 	andeq	r0, r0, r0, asr #6
    1970:	00000340 	andeq	r0, r0, r0, asr #6
    1974:	00000350 	andeq	r0, r0, r0, asr r3
    1978:	00000350 	andeq	r0, r0, r0, asr r3
    197c:	00000350 	andeq	r0, r0, r0, asr r3
    1980:	00000350 	andeq	r0, r0, r0, asr r3
    1984:	00000354 	andeq	r0, r0, r4, asr r3
    1988:	00000354 	andeq	r0, r0, r4, asr r3
    198c:	00000358 	andeq	r0, r0, r8, asr r3
    1990:	00000358 	andeq	r0, r0, r8, asr r3
    1994:	00000368 	andeq	r0, r0, r8, ror #6
    1998:	00000370 	andeq	r0, r0, r0, ror r3
    199c:	00000370 	andeq	r0, r0, r0, ror r3
    19a0:	00000374 	andeq	r0, r0, r4, ror r3
    19a4:	00000380 	andeq	r0, r0, r0, lsl #7
    19a8:	00000380 	andeq	r0, r0, r0, lsl #7
    19ac:	00000380 	andeq	r0, r0, r0, lsl #7
    19b0:	00000380 	andeq	r0, r0, r0, lsl #7
    19b4:	00000380 	andeq	r0, r0, r0, lsl #7
    19b8:	00000380 	andeq	r0, r0, r0, lsl #7
    19bc:	00000384 	andeq	r0, r0, r4, lsl #7
    19c0:	00000384 	andeq	r0, r0, r4, lsl #7
    19c4:	00000394 	muleq	r0, r4, r3
    19c8:	00000394 	muleq	r0, r4, r3
    19cc:	00000394 	muleq	r0, r4, r3
    19d0:	00000394 	muleq	r0, r4, r3
    19d4:	00000398 	muleq	r0, r8, r3
    19d8:	00000398 	muleq	r0, r8, r3
    19dc:	0000039c 	muleq	r0, ip, r3
    19e0:	0000039c 	muleq	r0, ip, r3
    19e4:	000003ac 	andeq	r0, r0, ip, lsr #7
	...
    19f0:	00000328 	andeq	r0, r0, r8, lsr #6
    19f4:	0000032c 	andeq	r0, r0, ip, lsr #6
    19f8:	00000380 	andeq	r0, r0, r0, lsl #7
    19fc:	00000380 	andeq	r0, r0, r0, lsl #7
    1a00:	00000380 	andeq	r0, r0, r0, lsl #7
    1a04:	00000380 	andeq	r0, r0, r0, lsl #7
    1a08:	00000380 	andeq	r0, r0, r0, lsl #7
    1a0c:	00000380 	andeq	r0, r0, r0, lsl #7
    1a10:	00000380 	andeq	r0, r0, r0, lsl #7
    1a14:	00000384 	andeq	r0, r0, r4, lsl #7
    1a18:	00000384 	andeq	r0, r0, r4, lsl #7
    1a1c:	00000394 	muleq	r0, r4, r3
	...
    1a28:	00000328 	andeq	r0, r0, r8, lsr #6
    1a2c:	0000032c 	andeq	r0, r0, ip, lsr #6
    1a30:	00000380 	andeq	r0, r0, r0, lsl #7
    1a34:	00000380 	andeq	r0, r0, r0, lsl #7
    1a38:	00000380 	andeq	r0, r0, r0, lsl #7
    1a3c:	00000380 	andeq	r0, r0, r0, lsl #7
    1a40:	00000380 	andeq	r0, r0, r0, lsl #7
    1a44:	00000384 	andeq	r0, r0, r4, lsl #7
    1a48:	00000384 	andeq	r0, r0, r4, lsl #7
    1a4c:	00000394 	muleq	r0, r4, r3
	...
    1a58:	00000328 	andeq	r0, r0, r8, lsr #6
    1a5c:	0000032c 	andeq	r0, r0, ip, lsr #6
    1a60:	00000380 	andeq	r0, r0, r0, lsl #7
    1a64:	00000380 	andeq	r0, r0, r0, lsl #7
	...
    1a70:	00000384 	andeq	r0, r0, r4, lsl #7
    1a74:	00000384 	andeq	r0, r0, r4, lsl #7
    1a78:	00000384 	andeq	r0, r0, r4, lsl #7
    1a7c:	00000394 	muleq	r0, r4, r3
	...
    1a88:	00000334 	andeq	r0, r0, r4, lsr r3
    1a8c:	00000338 	andeq	r0, r0, r8, lsr r3
    1a90:	0000033c 	andeq	r0, r0, ip, lsr r3
    1a94:	0000033c 	andeq	r0, r0, ip, lsr r3
    1a98:	0000033c 	andeq	r0, r0, ip, lsr r3
    1a9c:	0000033c 	andeq	r0, r0, ip, lsr r3
    1aa0:	0000033c 	andeq	r0, r0, ip, lsr r3
    1aa4:	0000033c 	andeq	r0, r0, ip, lsr r3
    1aa8:	0000033c 	andeq	r0, r0, ip, lsr r3
    1aac:	00000340 	andeq	r0, r0, r0, asr #6
    1ab0:	00000340 	andeq	r0, r0, r0, asr #6
    1ab4:	00000350 	andeq	r0, r0, r0, asr r3
    1ab8:	00000378 	andeq	r0, r0, r8, ror r3
    1abc:	0000037c 	andeq	r0, r0, ip, ror r3
	...
    1ac8:	00000334 	andeq	r0, r0, r4, lsr r3
    1acc:	00000338 	andeq	r0, r0, r8, lsr r3
    1ad0:	0000033c 	andeq	r0, r0, ip, lsr r3
    1ad4:	0000033c 	andeq	r0, r0, ip, lsr r3
    1ad8:	0000033c 	andeq	r0, r0, ip, lsr r3
    1adc:	0000033c 	andeq	r0, r0, ip, lsr r3
    1ae0:	0000033c 	andeq	r0, r0, ip, lsr r3
    1ae4:	00000340 	andeq	r0, r0, r0, asr #6
    1ae8:	00000340 	andeq	r0, r0, r0, asr #6
    1aec:	00000350 	andeq	r0, r0, r0, asr r3
    1af0:	00000378 	andeq	r0, r0, r8, ror r3
    1af4:	0000037c 	andeq	r0, r0, ip, ror r3
	...
    1b00:	00000334 	andeq	r0, r0, r4, lsr r3
    1b04:	00000338 	andeq	r0, r0, r8, lsr r3
    1b08:	0000033c 	andeq	r0, r0, ip, lsr r3
    1b0c:	0000033c 	andeq	r0, r0, ip, lsr r3
    1b10:	00000378 	andeq	r0, r0, r8, ror r3
    1b14:	0000037c 	andeq	r0, r0, ip, ror r3
	...
    1b20:	00000340 	andeq	r0, r0, r0, asr #6
    1b24:	00000340 	andeq	r0, r0, r0, asr #6
    1b28:	00000340 	andeq	r0, r0, r0, asr #6
    1b2c:	00000350 	andeq	r0, r0, r0, asr r3
	...
    1b38:	00000350 	andeq	r0, r0, r0, asr r3
    1b3c:	00000350 	andeq	r0, r0, r0, asr r3
    1b40:	00000350 	andeq	r0, r0, r0, asr r3
    1b44:	00000350 	andeq	r0, r0, r0, asr r3
    1b48:	00000350 	andeq	r0, r0, r0, asr r3
    1b4c:	00000354 	andeq	r0, r0, r4, asr r3
    1b50:	00000354 	andeq	r0, r0, r4, asr r3
    1b54:	00000358 	andeq	r0, r0, r8, asr r3
    1b58:	00000358 	andeq	r0, r0, r8, asr r3
    1b5c:	00000368 	andeq	r0, r0, r8, ror #6
	...
    1b68:	00000358 	andeq	r0, r0, r8, asr r3
    1b6c:	00000358 	andeq	r0, r0, r8, asr r3
    1b70:	00000358 	andeq	r0, r0, r8, asr r3
    1b74:	00000368 	andeq	r0, r0, r8, ror #6
	...
    1b80:	00000394 	muleq	r0, r4, r3
    1b84:	00000394 	muleq	r0, r4, r3
    1b88:	00000394 	muleq	r0, r4, r3
    1b8c:	00000394 	muleq	r0, r4, r3
    1b90:	00000394 	muleq	r0, r4, r3
    1b94:	00000398 	muleq	r0, r8, r3
    1b98:	00000398 	muleq	r0, r8, r3
    1b9c:	0000039c 	muleq	r0, ip, r3
    1ba0:	0000039c 	muleq	r0, ip, r3
    1ba4:	000003ac 	andeq	r0, r0, ip, lsr #7
	...
    1bb0:	0000039c 	muleq	r0, ip, r3
    1bb4:	0000039c 	muleq	r0, ip, r3
    1bb8:	0000039c 	muleq	r0, ip, r3
    1bbc:	000003ac 	andeq	r0, r0, ip, lsr #7
	...
    1bc8:	0000042c 	andeq	r0, r0, ip, lsr #8
    1bcc:	00000438 	andeq	r0, r0, r8, lsr r4
    1bd0:	0000043c 	andeq	r0, r0, ip, lsr r4
    1bd4:	0000044c 	andeq	r0, r0, ip, asr #8
    1bd8:	0000044c 	andeq	r0, r0, ip, asr #8
    1bdc:	0000044c 	andeq	r0, r0, ip, asr #8
    1be0:	0000044c 	andeq	r0, r0, ip, asr #8
    1be4:	00000450 	andeq	r0, r0, r0, asr r4
    1be8:	00000450 	andeq	r0, r0, r0, asr r4
    1bec:	00000450 	andeq	r0, r0, r0, asr r4
    1bf0:	00000450 	andeq	r0, r0, r0, asr r4
    1bf4:	00000450 	andeq	r0, r0, r0, asr r4
    1bf8:	00000450 	andeq	r0, r0, r0, asr r4
    1bfc:	00000454 	andeq	r0, r0, r4, asr r4
    1c00:	00000454 	andeq	r0, r0, r4, asr r4
    1c04:	00000458 	andeq	r0, r0, r8, asr r4
    1c08:	00000458 	andeq	r0, r0, r8, asr r4
    1c0c:	00000468 	andeq	r0, r0, r8, ror #8
    1c10:	00000468 	andeq	r0, r0, r8, ror #8
    1c14:	00000468 	andeq	r0, r0, r8, ror #8
    1c18:	00000468 	andeq	r0, r0, r8, ror #8
    1c1c:	00000468 	andeq	r0, r0, r8, ror #8
    1c20:	00000468 	andeq	r0, r0, r8, ror #8
    1c24:	0000046c 	andeq	r0, r0, ip, ror #8
    1c28:	0000046c 	andeq	r0, r0, ip, ror #8
    1c2c:	00000470 	andeq	r0, r0, r0, ror r4
    1c30:	00000470 	andeq	r0, r0, r0, ror r4
    1c34:	0000048c 	andeq	r0, r0, ip, lsl #9
    1c38:	0000048c 	andeq	r0, r0, ip, lsl #9
    1c3c:	0000048c 	andeq	r0, r0, ip, lsl #9
    1c40:	0000048c 	andeq	r0, r0, ip, lsl #9
    1c44:	0000048c 	andeq	r0, r0, ip, lsl #9
    1c48:	0000048c 	andeq	r0, r0, ip, lsl #9
    1c4c:	00000490 	muleq	r0, r0, r4
    1c50:	00000490 	muleq	r0, r0, r4
    1c54:	00000494 	muleq	r0, r4, r4
    1c58:	00000494 	muleq	r0, r4, r4
    1c5c:	000004a4 	andeq	r0, r0, r4, lsr #9
    1c60:	000004a4 	andeq	r0, r0, r4, lsr #9
    1c64:	000004a4 	andeq	r0, r0, r4, lsr #9
    1c68:	000004a4 	andeq	r0, r0, r4, lsr #9
    1c6c:	000004a4 	andeq	r0, r0, r4, lsr #9
    1c70:	000004a4 	andeq	r0, r0, r4, lsr #9
    1c74:	000004a8 	andeq	r0, r0, r8, lsr #9
    1c78:	000004a8 	andeq	r0, r0, r8, lsr #9
    1c7c:	000004ac 	andeq	r0, r0, ip, lsr #9
    1c80:	000004ac 	andeq	r0, r0, ip, lsr #9
    1c84:	000004c8 	andeq	r0, r0, r8, asr #9
    1c88:	000004c8 	andeq	r0, r0, r8, asr #9
    1c8c:	000004c8 	andeq	r0, r0, r8, asr #9
    1c90:	000004c8 	andeq	r0, r0, r8, asr #9
    1c94:	000004c8 	andeq	r0, r0, r8, asr #9
    1c98:	000004c8 	andeq	r0, r0, r8, asr #9
    1c9c:	000004cc 	andeq	r0, r0, ip, asr #9
    1ca0:	000004cc 	andeq	r0, r0, ip, asr #9
    1ca4:	000004d0 	ldrdeq	r0, [r0], -r0	; <UNPREDICTABLE>
    1ca8:	000004d0 	ldrdeq	r0, [r0], -r0	; <UNPREDICTABLE>
    1cac:	000004e0 	andeq	r0, r0, r0, ror #9
    1cb0:	000004e0 	andeq	r0, r0, r0, ror #9
    1cb4:	000004e0 	andeq	r0, r0, r0, ror #9
    1cb8:	000004e0 	andeq	r0, r0, r0, ror #9
    1cbc:	000004e0 	andeq	r0, r0, r0, ror #9
    1cc0:	000004e0 	andeq	r0, r0, r0, ror #9
    1cc4:	000004e4 	andeq	r0, r0, r4, ror #9
    1cc8:	000004e4 	andeq	r0, r0, r4, ror #9
    1ccc:	000004e8 	andeq	r0, r0, r8, ror #9
    1cd0:	000004e8 	andeq	r0, r0, r8, ror #9
    1cd4:	0000050c 	andeq	r0, r0, ip, lsl #10
	...
    1ce0:	00000434 	andeq	r0, r0, r4, lsr r4
    1ce4:	00000438 	andeq	r0, r0, r8, lsr r4
    1ce8:	00000444 	andeq	r0, r0, r4, asr #8
    1cec:	0000044c 	andeq	r0, r0, ip, asr #8
    1cf0:	0000044c 	andeq	r0, r0, ip, asr #8
    1cf4:	0000044c 	andeq	r0, r0, ip, asr #8
    1cf8:	0000044c 	andeq	r0, r0, ip, asr #8
    1cfc:	0000044c 	andeq	r0, r0, ip, asr #8
    1d00:	0000044c 	andeq	r0, r0, ip, asr #8
    1d04:	0000044c 	andeq	r0, r0, ip, asr #8
    1d08:	00000450 	andeq	r0, r0, r0, asr r4
    1d0c:	00000450 	andeq	r0, r0, r0, asr r4
    1d10:	00000450 	andeq	r0, r0, r0, asr r4
    1d14:	00000450 	andeq	r0, r0, r0, asr r4
    1d18:	00000450 	andeq	r0, r0, r0, asr r4
    1d1c:	00000450 	andeq	r0, r0, r0, asr r4
    1d20:	00000450 	andeq	r0, r0, r0, asr r4
    1d24:	00000454 	andeq	r0, r0, r4, asr r4
    1d28:	00000454 	andeq	r0, r0, r4, asr r4
    1d2c:	00000458 	andeq	r0, r0, r8, asr r4
    1d30:	00000458 	andeq	r0, r0, r8, asr r4
    1d34:	00000468 	andeq	r0, r0, r8, ror #8
    1d38:	00000468 	andeq	r0, r0, r8, ror #8
    1d3c:	00000468 	andeq	r0, r0, r8, ror #8
    1d40:	00000468 	andeq	r0, r0, r8, ror #8
    1d44:	00000468 	andeq	r0, r0, r8, ror #8
    1d48:	00000468 	andeq	r0, r0, r8, ror #8
    1d4c:	0000046c 	andeq	r0, r0, ip, ror #8
    1d50:	0000046c 	andeq	r0, r0, ip, ror #8
    1d54:	00000470 	andeq	r0, r0, r0, ror r4
    1d58:	00000470 	andeq	r0, r0, r0, ror r4
    1d5c:	0000048c 	andeq	r0, r0, ip, lsl #9
    1d60:	0000048c 	andeq	r0, r0, ip, lsl #9
    1d64:	0000048c 	andeq	r0, r0, ip, lsl #9
    1d68:	0000048c 	andeq	r0, r0, ip, lsl #9
    1d6c:	0000048c 	andeq	r0, r0, ip, lsl #9
    1d70:	0000048c 	andeq	r0, r0, ip, lsl #9
    1d74:	00000490 	muleq	r0, r0, r4
    1d78:	00000490 	muleq	r0, r0, r4
    1d7c:	00000494 	muleq	r0, r4, r4
    1d80:	00000494 	muleq	r0, r4, r4
    1d84:	000004a4 	andeq	r0, r0, r4, lsr #9
    1d88:	000004a4 	andeq	r0, r0, r4, lsr #9
    1d8c:	000004a4 	andeq	r0, r0, r4, lsr #9
    1d90:	000004a4 	andeq	r0, r0, r4, lsr #9
    1d94:	000004a4 	andeq	r0, r0, r4, lsr #9
    1d98:	000004a4 	andeq	r0, r0, r4, lsr #9
    1d9c:	000004a8 	andeq	r0, r0, r8, lsr #9
    1da0:	000004a8 	andeq	r0, r0, r8, lsr #9
    1da4:	000004ac 	andeq	r0, r0, ip, lsr #9
    1da8:	000004ac 	andeq	r0, r0, ip, lsr #9
    1dac:	000004c8 	andeq	r0, r0, r8, asr #9
    1db0:	000004c8 	andeq	r0, r0, r8, asr #9
    1db4:	000004c8 	andeq	r0, r0, r8, asr #9
    1db8:	000004c8 	andeq	r0, r0, r8, asr #9
    1dbc:	000004c8 	andeq	r0, r0, r8, asr #9
    1dc0:	000004c8 	andeq	r0, r0, r8, asr #9
    1dc4:	000004cc 	andeq	r0, r0, ip, asr #9
    1dc8:	000004cc 	andeq	r0, r0, ip, asr #9
    1dcc:	000004d0 	ldrdeq	r0, [r0], -r0	; <UNPREDICTABLE>
    1dd0:	000004d0 	ldrdeq	r0, [r0], -r0	; <UNPREDICTABLE>
    1dd4:	000004e0 	andeq	r0, r0, r0, ror #9
    1dd8:	000004e0 	andeq	r0, r0, r0, ror #9
    1ddc:	000004e0 	andeq	r0, r0, r0, ror #9
    1de0:	000004e0 	andeq	r0, r0, r0, ror #9
    1de4:	000004e0 	andeq	r0, r0, r0, ror #9
    1de8:	000004e0 	andeq	r0, r0, r0, ror #9
    1dec:	000004e4 	andeq	r0, r0, r4, ror #9
    1df0:	000004e4 	andeq	r0, r0, r4, ror #9
    1df4:	000004e8 	andeq	r0, r0, r8, ror #9
    1df8:	000004e8 	andeq	r0, r0, r8, ror #9
    1dfc:	00000500 	andeq	r0, r0, r0, lsl #10
	...
    1e08:	00000434 	andeq	r0, r0, r4, lsr r4
    1e0c:	00000438 	andeq	r0, r0, r8, lsr r4
    1e10:	00000444 	andeq	r0, r0, r4, asr #8
    1e14:	0000044c 	andeq	r0, r0, ip, asr #8
    1e18:	0000044c 	andeq	r0, r0, ip, asr #8
    1e1c:	0000044c 	andeq	r0, r0, ip, asr #8
    1e20:	0000044c 	andeq	r0, r0, ip, asr #8
    1e24:	0000044c 	andeq	r0, r0, ip, asr #8
    1e28:	00000450 	andeq	r0, r0, r0, asr r4
    1e2c:	00000450 	andeq	r0, r0, r0, asr r4
    1e30:	00000450 	andeq	r0, r0, r0, asr r4
    1e34:	00000450 	andeq	r0, r0, r0, asr r4
    1e38:	00000450 	andeq	r0, r0, r0, asr r4
    1e3c:	00000450 	andeq	r0, r0, r0, asr r4
    1e40:	00000450 	andeq	r0, r0, r0, asr r4
    1e44:	00000454 	andeq	r0, r0, r4, asr r4
    1e48:	00000454 	andeq	r0, r0, r4, asr r4
    1e4c:	00000458 	andeq	r0, r0, r8, asr r4
    1e50:	00000458 	andeq	r0, r0, r8, asr r4
    1e54:	00000468 	andeq	r0, r0, r8, ror #8
    1e58:	00000468 	andeq	r0, r0, r8, ror #8
    1e5c:	00000468 	andeq	r0, r0, r8, ror #8
    1e60:	00000468 	andeq	r0, r0, r8, ror #8
    1e64:	00000468 	andeq	r0, r0, r8, ror #8
    1e68:	00000468 	andeq	r0, r0, r8, ror #8
    1e6c:	0000046c 	andeq	r0, r0, ip, ror #8
    1e70:	0000046c 	andeq	r0, r0, ip, ror #8
    1e74:	00000470 	andeq	r0, r0, r0, ror r4
    1e78:	00000470 	andeq	r0, r0, r0, ror r4
    1e7c:	0000048c 	andeq	r0, r0, ip, lsl #9
	...
    1e88:	00000434 	andeq	r0, r0, r4, lsr r4
    1e8c:	00000438 	andeq	r0, r0, r8, lsr r4
    1e90:	00000444 	andeq	r0, r0, r4, asr #8
    1e94:	0000044c 	andeq	r0, r0, ip, asr #8
    1e98:	0000044c 	andeq	r0, r0, ip, asr #8
    1e9c:	0000044c 	andeq	r0, r0, ip, asr #8
    1ea0:	00000450 	andeq	r0, r0, r0, asr r4
    1ea4:	00000450 	andeq	r0, r0, r0, asr r4
    1ea8:	00000450 	andeq	r0, r0, r0, asr r4
    1eac:	00000450 	andeq	r0, r0, r0, asr r4
    1eb0:	00000450 	andeq	r0, r0, r0, asr r4
    1eb4:	00000450 	andeq	r0, r0, r0, asr r4
    1eb8:	00000450 	andeq	r0, r0, r0, asr r4
    1ebc:	00000454 	andeq	r0, r0, r4, asr r4
    1ec0:	00000454 	andeq	r0, r0, r4, asr r4
    1ec4:	00000458 	andeq	r0, r0, r8, asr r4
    1ec8:	00000458 	andeq	r0, r0, r8, asr r4
    1ecc:	00000468 	andeq	r0, r0, r8, ror #8
    1ed0:	00000468 	andeq	r0, r0, r8, ror #8
    1ed4:	00000468 	andeq	r0, r0, r8, ror #8
    1ed8:	00000468 	andeq	r0, r0, r8, ror #8
    1edc:	00000468 	andeq	r0, r0, r8, ror #8
    1ee0:	00000468 	andeq	r0, r0, r8, ror #8
    1ee4:	0000046c 	andeq	r0, r0, ip, ror #8
    1ee8:	0000046c 	andeq	r0, r0, ip, ror #8
    1eec:	00000470 	andeq	r0, r0, r0, ror r4
    1ef0:	00000470 	andeq	r0, r0, r0, ror r4
    1ef4:	0000048c 	andeq	r0, r0, ip, lsl #9
	...
    1f00:	00000434 	andeq	r0, r0, r4, lsr r4
    1f04:	00000438 	andeq	r0, r0, r8, lsr r4
    1f08:	00000444 	andeq	r0, r0, r4, asr #8
    1f0c:	0000044c 	andeq	r0, r0, ip, asr #8
    1f10:	00000450 	andeq	r0, r0, r0, asr r4
    1f14:	00000450 	andeq	r0, r0, r0, asr r4
    1f18:	00000450 	andeq	r0, r0, r0, asr r4
    1f1c:	00000450 	andeq	r0, r0, r0, asr r4
    1f20:	00000450 	andeq	r0, r0, r0, asr r4
    1f24:	00000450 	andeq	r0, r0, r0, asr r4
    1f28:	00000450 	andeq	r0, r0, r0, asr r4
    1f2c:	00000454 	andeq	r0, r0, r4, asr r4
    1f30:	00000454 	andeq	r0, r0, r4, asr r4
    1f34:	00000458 	andeq	r0, r0, r8, asr r4
    1f38:	00000458 	andeq	r0, r0, r8, asr r4
    1f3c:	00000468 	andeq	r0, r0, r8, ror #8
    1f40:	00000468 	andeq	r0, r0, r8, ror #8
    1f44:	00000468 	andeq	r0, r0, r8, ror #8
    1f48:	00000468 	andeq	r0, r0, r8, ror #8
    1f4c:	00000468 	andeq	r0, r0, r8, ror #8
    1f50:	00000468 	andeq	r0, r0, r8, ror #8
    1f54:	0000046c 	andeq	r0, r0, ip, ror #8
    1f58:	0000046c 	andeq	r0, r0, ip, ror #8
    1f5c:	00000470 	andeq	r0, r0, r0, ror r4
    1f60:	00000470 	andeq	r0, r0, r0, ror r4
    1f64:	00000480 	andeq	r0, r0, r0, lsl #9
	...
    1f70:	00000434 	andeq	r0, r0, r4, lsr r4
    1f74:	00000438 	andeq	r0, r0, r8, lsr r4
    1f78:	00000444 	andeq	r0, r0, r4, asr #8
    1f7c:	0000044c 	andeq	r0, r0, ip, asr #8
    1f80:	00000450 	andeq	r0, r0, r0, asr r4
    1f84:	00000450 	andeq	r0, r0, r0, asr r4
    1f88:	00000450 	andeq	r0, r0, r0, asr r4
    1f8c:	00000450 	andeq	r0, r0, r0, asr r4
    1f90:	00000450 	andeq	r0, r0, r0, asr r4
    1f94:	00000454 	andeq	r0, r0, r4, asr r4
    1f98:	00000454 	andeq	r0, r0, r4, asr r4
    1f9c:	00000458 	andeq	r0, r0, r8, asr r4
    1fa0:	00000458 	andeq	r0, r0, r8, asr r4
    1fa4:	00000468 	andeq	r0, r0, r8, ror #8
	...
    1fb0:	00000434 	andeq	r0, r0, r4, lsr r4
    1fb4:	00000438 	andeq	r0, r0, r8, lsr r4
    1fb8:	00000444 	andeq	r0, r0, r4, asr #8
    1fbc:	0000044c 	andeq	r0, r0, ip, asr #8
    1fc0:	00000450 	andeq	r0, r0, r0, asr r4
    1fc4:	00000450 	andeq	r0, r0, r0, asr r4
    1fc8:	00000450 	andeq	r0, r0, r0, asr r4
    1fcc:	00000454 	andeq	r0, r0, r4, asr r4
    1fd0:	00000454 	andeq	r0, r0, r4, asr r4
    1fd4:	00000458 	andeq	r0, r0, r8, asr r4
    1fd8:	00000458 	andeq	r0, r0, r8, asr r4
    1fdc:	00000468 	andeq	r0, r0, r8, ror #8
	...
    1fe8:	00000434 	andeq	r0, r0, r4, lsr r4
    1fec:	00000438 	andeq	r0, r0, r8, lsr r4
    1ff0:	00000444 	andeq	r0, r0, r4, asr #8
    1ff4:	0000044c 	andeq	r0, r0, ip, asr #8
    1ff8:	00000450 	andeq	r0, r0, r0, asr r4
    1ffc:	00000454 	andeq	r0, r0, r4, asr r4
	...
    2008:	00000458 	andeq	r0, r0, r8, asr r4
    200c:	00000458 	andeq	r0, r0, r8, asr r4
    2010:	00000458 	andeq	r0, r0, r8, asr r4
    2014:	00000468 	andeq	r0, r0, r8, ror #8
	...
    2020:	00000470 	andeq	r0, r0, r0, ror r4
    2024:	00000470 	andeq	r0, r0, r0, ror r4
    2028:	00000470 	andeq	r0, r0, r0, ror r4
    202c:	00000480 	andeq	r0, r0, r0, lsl #9
	...
    2038:	0000048c 	andeq	r0, r0, ip, lsl #9
    203c:	0000048c 	andeq	r0, r0, ip, lsl #9
    2040:	0000048c 	andeq	r0, r0, ip, lsl #9
    2044:	0000048c 	andeq	r0, r0, ip, lsl #9
    2048:	0000048c 	andeq	r0, r0, ip, lsl #9
    204c:	0000048c 	andeq	r0, r0, ip, lsl #9
    2050:	0000048c 	andeq	r0, r0, ip, lsl #9
    2054:	00000490 	muleq	r0, r0, r4
    2058:	00000490 	muleq	r0, r0, r4
    205c:	00000494 	muleq	r0, r4, r4
    2060:	00000494 	muleq	r0, r4, r4
    2064:	000004a4 	andeq	r0, r0, r4, lsr #9
    2068:	000004a4 	andeq	r0, r0, r4, lsr #9
    206c:	000004a4 	andeq	r0, r0, r4, lsr #9
    2070:	000004a4 	andeq	r0, r0, r4, lsr #9
    2074:	000004a4 	andeq	r0, r0, r4, lsr #9
    2078:	000004a4 	andeq	r0, r0, r4, lsr #9
    207c:	000004a8 	andeq	r0, r0, r8, lsr #9
    2080:	000004a8 	andeq	r0, r0, r8, lsr #9
    2084:	000004ac 	andeq	r0, r0, ip, lsr #9
    2088:	000004ac 	andeq	r0, r0, ip, lsr #9
    208c:	000004c8 	andeq	r0, r0, r8, asr #9
	...
    2098:	0000048c 	andeq	r0, r0, ip, lsl #9
    209c:	0000048c 	andeq	r0, r0, ip, lsl #9
    20a0:	0000048c 	andeq	r0, r0, ip, lsl #9
    20a4:	0000048c 	andeq	r0, r0, ip, lsl #9
    20a8:	0000048c 	andeq	r0, r0, ip, lsl #9
    20ac:	0000048c 	andeq	r0, r0, ip, lsl #9
    20b0:	0000048c 	andeq	r0, r0, ip, lsl #9
    20b4:	00000490 	muleq	r0, r0, r4
    20b8:	00000490 	muleq	r0, r0, r4
    20bc:	00000494 	muleq	r0, r4, r4
    20c0:	00000494 	muleq	r0, r4, r4
    20c4:	000004a4 	andeq	r0, r0, r4, lsr #9
    20c8:	000004a4 	andeq	r0, r0, r4, lsr #9
    20cc:	000004a4 	andeq	r0, r0, r4, lsr #9
    20d0:	000004a4 	andeq	r0, r0, r4, lsr #9
    20d4:	000004a4 	andeq	r0, r0, r4, lsr #9
    20d8:	000004a4 	andeq	r0, r0, r4, lsr #9
    20dc:	000004a8 	andeq	r0, r0, r8, lsr #9
    20e0:	000004a8 	andeq	r0, r0, r8, lsr #9
    20e4:	000004ac 	andeq	r0, r0, ip, lsr #9
    20e8:	000004ac 	andeq	r0, r0, ip, lsr #9
    20ec:	000004bc 			; <UNDEFINED> instruction: 0x000004bc
	...
    20f8:	0000048c 	andeq	r0, r0, ip, lsl #9
    20fc:	0000048c 	andeq	r0, r0, ip, lsl #9
    2100:	0000048c 	andeq	r0, r0, ip, lsl #9
    2104:	0000048c 	andeq	r0, r0, ip, lsl #9
    2108:	0000048c 	andeq	r0, r0, ip, lsl #9
    210c:	00000490 	muleq	r0, r0, r4
    2110:	00000490 	muleq	r0, r0, r4
    2114:	00000494 	muleq	r0, r4, r4
    2118:	00000494 	muleq	r0, r4, r4
    211c:	000004a4 	andeq	r0, r0, r4, lsr #9
	...
    2128:	00000494 	muleq	r0, r4, r4
    212c:	00000494 	muleq	r0, r4, r4
    2130:	00000494 	muleq	r0, r4, r4
    2134:	000004a4 	andeq	r0, r0, r4, lsr #9
	...
    2140:	000004ac 	andeq	r0, r0, ip, lsr #9
    2144:	000004ac 	andeq	r0, r0, ip, lsr #9
    2148:	000004ac 	andeq	r0, r0, ip, lsr #9
    214c:	000004bc 			; <UNDEFINED> instruction: 0x000004bc
	...
    2158:	000004c8 	andeq	r0, r0, r8, asr #9
    215c:	000004c8 	andeq	r0, r0, r8, asr #9
    2160:	000004c8 	andeq	r0, r0, r8, asr #9
    2164:	000004c8 	andeq	r0, r0, r8, asr #9
    2168:	000004c8 	andeq	r0, r0, r8, asr #9
    216c:	000004c8 	andeq	r0, r0, r8, asr #9
    2170:	000004c8 	andeq	r0, r0, r8, asr #9
    2174:	000004cc 	andeq	r0, r0, ip, asr #9
    2178:	000004cc 	andeq	r0, r0, ip, asr #9
    217c:	000004d0 	ldrdeq	r0, [r0], -r0	; <UNPREDICTABLE>
    2180:	000004d0 	ldrdeq	r0, [r0], -r0	; <UNPREDICTABLE>
    2184:	000004e0 	andeq	r0, r0, r0, ror #9
    2188:	000004e0 	andeq	r0, r0, r0, ror #9
    218c:	000004e0 	andeq	r0, r0, r0, ror #9
    2190:	000004e0 	andeq	r0, r0, r0, ror #9
    2194:	000004e0 	andeq	r0, r0, r0, ror #9
    2198:	000004e0 	andeq	r0, r0, r0, ror #9
    219c:	000004e4 	andeq	r0, r0, r4, ror #9
    21a0:	000004e4 	andeq	r0, r0, r4, ror #9
    21a4:	000004e8 	andeq	r0, r0, r8, ror #9
    21a8:	000004e8 	andeq	r0, r0, r8, ror #9
    21ac:	00000500 	andeq	r0, r0, r0, lsl #10
	...
    21b8:	000004c8 	andeq	r0, r0, r8, asr #9
    21bc:	000004c8 	andeq	r0, r0, r8, asr #9
    21c0:	000004c8 	andeq	r0, r0, r8, asr #9
    21c4:	000004c8 	andeq	r0, r0, r8, asr #9
    21c8:	000004c8 	andeq	r0, r0, r8, asr #9
    21cc:	000004c8 	andeq	r0, r0, r8, asr #9
    21d0:	000004c8 	andeq	r0, r0, r8, asr #9
    21d4:	000004cc 	andeq	r0, r0, ip, asr #9
    21d8:	000004cc 	andeq	r0, r0, ip, asr #9
    21dc:	000004d0 	ldrdeq	r0, [r0], -r0	; <UNPREDICTABLE>
    21e0:	000004d0 	ldrdeq	r0, [r0], -r0	; <UNPREDICTABLE>
    21e4:	000004e0 	andeq	r0, r0, r0, ror #9
    21e8:	000004e0 	andeq	r0, r0, r0, ror #9
    21ec:	000004e0 	andeq	r0, r0, r0, ror #9
    21f0:	000004e0 	andeq	r0, r0, r0, ror #9
    21f4:	000004e0 	andeq	r0, r0, r0, ror #9
    21f8:	000004e0 	andeq	r0, r0, r0, ror #9
    21fc:	000004e4 	andeq	r0, r0, r4, ror #9
    2200:	000004e4 	andeq	r0, r0, r4, ror #9
    2204:	000004e8 	andeq	r0, r0, r8, ror #9
    2208:	000004e8 	andeq	r0, r0, r8, ror #9
    220c:	000004f8 	strdeq	r0, [r0], -r8
	...
    2218:	000004c8 	andeq	r0, r0, r8, asr #9
    221c:	000004c8 	andeq	r0, r0, r8, asr #9
    2220:	000004c8 	andeq	r0, r0, r8, asr #9
    2224:	000004c8 	andeq	r0, r0, r8, asr #9
    2228:	000004c8 	andeq	r0, r0, r8, asr #9
    222c:	000004cc 	andeq	r0, r0, ip, asr #9
    2230:	000004cc 	andeq	r0, r0, ip, asr #9
    2234:	000004d0 	ldrdeq	r0, [r0], -r0	; <UNPREDICTABLE>
    2238:	000004d0 	ldrdeq	r0, [r0], -r0	; <UNPREDICTABLE>
    223c:	000004e0 	andeq	r0, r0, r0, ror #9
	...
    2248:	000004d0 	ldrdeq	r0, [r0], -r0	; <UNPREDICTABLE>
    224c:	000004d0 	ldrdeq	r0, [r0], -r0	; <UNPREDICTABLE>
    2250:	000004d0 	ldrdeq	r0, [r0], -r0	; <UNPREDICTABLE>
    2254:	000004e0 	andeq	r0, r0, r0, ror #9
	...
    2260:	000004e8 	andeq	r0, r0, r8, ror #9
    2264:	000004e8 	andeq	r0, r0, r8, ror #9
    2268:	000004e8 	andeq	r0, r0, r8, ror #9
    226c:	000004f8 	strdeq	r0, [r0], -r8
	...
    2278:	00000524 	andeq	r0, r0, r4, lsr #10
    227c:	00000540 	andeq	r0, r0, r0, asr #10
    2280:	00000540 	andeq	r0, r0, r0, asr #10
    2284:	00000540 	andeq	r0, r0, r0, asr #10
    2288:	00000540 	andeq	r0, r0, r0, asr #10
    228c:	00000544 	andeq	r0, r0, r4, asr #10
    2290:	00000544 	andeq	r0, r0, r4, asr #10
    2294:	00000544 	andeq	r0, r0, r4, asr #10
    2298:	00000544 	andeq	r0, r0, r4, asr #10
    229c:	00000544 	andeq	r0, r0, r4, asr #10
    22a0:	00000544 	andeq	r0, r0, r4, asr #10
    22a4:	00000548 	andeq	r0, r0, r8, asr #10
    22a8:	00000548 	andeq	r0, r0, r8, asr #10
    22ac:	0000054c 	andeq	r0, r0, ip, asr #10
    22b0:	0000054c 	andeq	r0, r0, ip, asr #10
    22b4:	0000055c 	andeq	r0, r0, ip, asr r5
    22b8:	0000055c 	andeq	r0, r0, ip, asr r5
    22bc:	0000055c 	andeq	r0, r0, ip, asr r5
    22c0:	0000055c 	andeq	r0, r0, ip, asr r5
    22c4:	0000055c 	andeq	r0, r0, ip, asr r5
    22c8:	0000055c 	andeq	r0, r0, ip, asr r5
    22cc:	00000560 	andeq	r0, r0, r0, ror #10
    22d0:	00000560 	andeq	r0, r0, r0, ror #10
    22d4:	00000564 	andeq	r0, r0, r4, ror #10
    22d8:	00000564 	andeq	r0, r0, r4, ror #10
    22dc:	00000580 	andeq	r0, r0, r0, lsl #11
    22e0:	00000580 	andeq	r0, r0, r0, lsl #11
    22e4:	00000580 	andeq	r0, r0, r0, lsl #11
    22e8:	00000580 	andeq	r0, r0, r0, lsl #11
    22ec:	00000580 	andeq	r0, r0, r0, lsl #11
    22f0:	00000580 	andeq	r0, r0, r0, lsl #11
    22f4:	00000584 	andeq	r0, r0, r4, lsl #11
    22f8:	00000584 	andeq	r0, r0, r4, lsl #11
    22fc:	00000588 	andeq	r0, r0, r8, lsl #11
    2300:	00000588 	andeq	r0, r0, r8, lsl #11
    2304:	00000598 	muleq	r0, r8, r5
    2308:	00000598 	muleq	r0, r8, r5
    230c:	00000598 	muleq	r0, r8, r5
    2310:	00000598 	muleq	r0, r8, r5
    2314:	00000598 	muleq	r0, r8, r5
    2318:	00000598 	muleq	r0, r8, r5
    231c:	0000059c 	muleq	r0, ip, r5
    2320:	0000059c 	muleq	r0, ip, r5
    2324:	000005a0 	andeq	r0, r0, r0, lsr #11
    2328:	000005a0 	andeq	r0, r0, r0, lsr #11
    232c:	000005bc 			; <UNDEFINED> instruction: 0x000005bc
    2330:	000005bc 			; <UNDEFINED> instruction: 0x000005bc
    2334:	000005bc 			; <UNDEFINED> instruction: 0x000005bc
    2338:	000005bc 			; <UNDEFINED> instruction: 0x000005bc
    233c:	000005bc 			; <UNDEFINED> instruction: 0x000005bc
    2340:	000005bc 			; <UNDEFINED> instruction: 0x000005bc
    2344:	000005c0 	andeq	r0, r0, r0, asr #11
    2348:	000005c0 	andeq	r0, r0, r0, asr #11
    234c:	000005c4 	andeq	r0, r0, r4, asr #11
    2350:	000005c4 	andeq	r0, r0, r4, asr #11
    2354:	000005d4 	ldrdeq	r0, [r0], -r4
    2358:	000005d4 	ldrdeq	r0, [r0], -r4
    235c:	000005d4 	ldrdeq	r0, [r0], -r4
    2360:	000005d4 	ldrdeq	r0, [r0], -r4
    2364:	000005d4 	ldrdeq	r0, [r0], -r4
    2368:	000005d4 	ldrdeq	r0, [r0], -r4
    236c:	000005d8 	ldrdeq	r0, [r0], -r8
    2370:	000005d8 	ldrdeq	r0, [r0], -r8
    2374:	000005dc 	ldrdeq	r0, [r0], -ip
    2378:	000005dc 	ldrdeq	r0, [r0], -ip
    237c:	00000600 	andeq	r0, r0, r0, lsl #12
    2380:	00000604 	andeq	r0, r0, r4, lsl #12
    2384:	0000060c 	andeq	r0, r0, ip, lsl #12
	...
    2390:	00000524 	andeq	r0, r0, r4, lsr #10
    2394:	00000540 	andeq	r0, r0, r0, asr #10
    2398:	00000540 	andeq	r0, r0, r0, asr #10
    239c:	00000540 	andeq	r0, r0, r0, asr #10
    23a0:	00000540 	andeq	r0, r0, r0, asr #10
    23a4:	00000544 	andeq	r0, r0, r4, asr #10
    23a8:	00000544 	andeq	r0, r0, r4, asr #10
    23ac:	00000544 	andeq	r0, r0, r4, asr #10
    23b0:	00000544 	andeq	r0, r0, r4, asr #10
    23b4:	00000544 	andeq	r0, r0, r4, asr #10
    23b8:	00000544 	andeq	r0, r0, r4, asr #10
    23bc:	00000548 	andeq	r0, r0, r8, asr #10
    23c0:	00000548 	andeq	r0, r0, r8, asr #10
    23c4:	0000054c 	andeq	r0, r0, ip, asr #10
    23c8:	0000054c 	andeq	r0, r0, ip, asr #10
    23cc:	0000055c 	andeq	r0, r0, ip, asr r5
    23d0:	0000055c 	andeq	r0, r0, ip, asr r5
    23d4:	0000055c 	andeq	r0, r0, ip, asr r5
    23d8:	0000055c 	andeq	r0, r0, ip, asr r5
    23dc:	0000055c 	andeq	r0, r0, ip, asr r5
    23e0:	0000055c 	andeq	r0, r0, ip, asr r5
    23e4:	00000560 	andeq	r0, r0, r0, ror #10
    23e8:	00000560 	andeq	r0, r0, r0, ror #10
    23ec:	00000564 	andeq	r0, r0, r4, ror #10
    23f0:	00000564 	andeq	r0, r0, r4, ror #10
    23f4:	00000580 	andeq	r0, r0, r0, lsl #11
    23f8:	00000580 	andeq	r0, r0, r0, lsl #11
    23fc:	00000580 	andeq	r0, r0, r0, lsl #11
    2400:	00000580 	andeq	r0, r0, r0, lsl #11
    2404:	00000580 	andeq	r0, r0, r0, lsl #11
    2408:	00000580 	andeq	r0, r0, r0, lsl #11
    240c:	00000584 	andeq	r0, r0, r4, lsl #11
    2410:	00000584 	andeq	r0, r0, r4, lsl #11
    2414:	00000588 	andeq	r0, r0, r8, lsl #11
    2418:	00000588 	andeq	r0, r0, r8, lsl #11
    241c:	00000598 	muleq	r0, r8, r5
    2420:	00000598 	muleq	r0, r8, r5
    2424:	00000598 	muleq	r0, r8, r5
    2428:	00000598 	muleq	r0, r8, r5
    242c:	00000598 	muleq	r0, r8, r5
    2430:	00000598 	muleq	r0, r8, r5
    2434:	0000059c 	muleq	r0, ip, r5
    2438:	0000059c 	muleq	r0, ip, r5
    243c:	000005a0 	andeq	r0, r0, r0, lsr #11
    2440:	000005a0 	andeq	r0, r0, r0, lsr #11
    2444:	000005bc 			; <UNDEFINED> instruction: 0x000005bc
    2448:	000005bc 			; <UNDEFINED> instruction: 0x000005bc
    244c:	000005bc 			; <UNDEFINED> instruction: 0x000005bc
    2450:	000005bc 			; <UNDEFINED> instruction: 0x000005bc
    2454:	000005bc 			; <UNDEFINED> instruction: 0x000005bc
    2458:	000005bc 			; <UNDEFINED> instruction: 0x000005bc
    245c:	000005c0 	andeq	r0, r0, r0, asr #11
    2460:	000005c0 	andeq	r0, r0, r0, asr #11
    2464:	000005c4 	andeq	r0, r0, r4, asr #11
    2468:	000005c4 	andeq	r0, r0, r4, asr #11
    246c:	000005d4 	ldrdeq	r0, [r0], -r4
    2470:	000005d4 	ldrdeq	r0, [r0], -r4
    2474:	000005d4 	ldrdeq	r0, [r0], -r4
    2478:	000005d4 	ldrdeq	r0, [r0], -r4
    247c:	000005d4 	ldrdeq	r0, [r0], -r4
    2480:	000005d4 	ldrdeq	r0, [r0], -r4
    2484:	000005d8 	ldrdeq	r0, [r0], -r8
    2488:	000005d8 	ldrdeq	r0, [r0], -r8
    248c:	000005dc 	ldrdeq	r0, [r0], -ip
    2490:	000005dc 	ldrdeq	r0, [r0], -ip
    2494:	00000600 	andeq	r0, r0, r0, lsl #12
	...
    24a0:	0000052c 	andeq	r0, r0, ip, lsr #10
    24a4:	00000530 	andeq	r0, r0, r0, lsr r5
    24a8:	00000538 	andeq	r0, r0, r8, lsr r5
    24ac:	00000540 	andeq	r0, r0, r0, asr #10
    24b0:	00000540 	andeq	r0, r0, r0, asr #10
    24b4:	00000540 	andeq	r0, r0, r0, asr #10
    24b8:	00000540 	andeq	r0, r0, r0, asr #10
    24bc:	00000540 	andeq	r0, r0, r0, asr #10
    24c0:	00000540 	andeq	r0, r0, r0, asr #10
    24c4:	00000540 	andeq	r0, r0, r0, asr #10
    24c8:	00000544 	andeq	r0, r0, r4, asr #10
    24cc:	00000544 	andeq	r0, r0, r4, asr #10
    24d0:	00000544 	andeq	r0, r0, r4, asr #10
    24d4:	00000544 	andeq	r0, r0, r4, asr #10
    24d8:	00000544 	andeq	r0, r0, r4, asr #10
    24dc:	00000544 	andeq	r0, r0, r4, asr #10
    24e0:	00000544 	andeq	r0, r0, r4, asr #10
    24e4:	00000548 	andeq	r0, r0, r8, asr #10
    24e8:	00000548 	andeq	r0, r0, r8, asr #10
    24ec:	0000054c 	andeq	r0, r0, ip, asr #10
    24f0:	0000054c 	andeq	r0, r0, ip, asr #10
    24f4:	0000055c 	andeq	r0, r0, ip, asr r5
    24f8:	0000055c 	andeq	r0, r0, ip, asr r5
    24fc:	0000055c 	andeq	r0, r0, ip, asr r5
    2500:	0000055c 	andeq	r0, r0, ip, asr r5
    2504:	0000055c 	andeq	r0, r0, ip, asr r5
    2508:	0000055c 	andeq	r0, r0, ip, asr r5
    250c:	00000560 	andeq	r0, r0, r0, ror #10
    2510:	00000560 	andeq	r0, r0, r0, ror #10
    2514:	00000564 	andeq	r0, r0, r4, ror #10
    2518:	00000564 	andeq	r0, r0, r4, ror #10
    251c:	00000580 	andeq	r0, r0, r0, lsl #11
    2520:	00000580 	andeq	r0, r0, r0, lsl #11
    2524:	00000580 	andeq	r0, r0, r0, lsl #11
    2528:	00000580 	andeq	r0, r0, r0, lsl #11
    252c:	00000580 	andeq	r0, r0, r0, lsl #11
    2530:	00000580 	andeq	r0, r0, r0, lsl #11
    2534:	00000584 	andeq	r0, r0, r4, lsl #11
    2538:	00000584 	andeq	r0, r0, r4, lsl #11
    253c:	00000588 	andeq	r0, r0, r8, lsl #11
    2540:	00000588 	andeq	r0, r0, r8, lsl #11
    2544:	00000598 	muleq	r0, r8, r5
    2548:	00000598 	muleq	r0, r8, r5
    254c:	00000598 	muleq	r0, r8, r5
    2550:	00000598 	muleq	r0, r8, r5
    2554:	00000598 	muleq	r0, r8, r5
    2558:	00000598 	muleq	r0, r8, r5
    255c:	0000059c 	muleq	r0, ip, r5
    2560:	0000059c 	muleq	r0, ip, r5
    2564:	000005a0 	andeq	r0, r0, r0, lsr #11
    2568:	000005a0 	andeq	r0, r0, r0, lsr #11
    256c:	000005bc 			; <UNDEFINED> instruction: 0x000005bc
    2570:	000005bc 			; <UNDEFINED> instruction: 0x000005bc
    2574:	000005bc 			; <UNDEFINED> instruction: 0x000005bc
    2578:	000005bc 			; <UNDEFINED> instruction: 0x000005bc
    257c:	000005bc 			; <UNDEFINED> instruction: 0x000005bc
    2580:	000005bc 			; <UNDEFINED> instruction: 0x000005bc
    2584:	000005c0 	andeq	r0, r0, r0, asr #11
    2588:	000005c0 	andeq	r0, r0, r0, asr #11
    258c:	000005c4 	andeq	r0, r0, r4, asr #11
    2590:	000005c4 	andeq	r0, r0, r4, asr #11
    2594:	000005d4 	ldrdeq	r0, [r0], -r4
    2598:	000005d4 	ldrdeq	r0, [r0], -r4
    259c:	000005d4 	ldrdeq	r0, [r0], -r4
    25a0:	000005d4 	ldrdeq	r0, [r0], -r4
    25a4:	000005d4 	ldrdeq	r0, [r0], -r4
    25a8:	000005d4 	ldrdeq	r0, [r0], -r4
    25ac:	000005d8 	ldrdeq	r0, [r0], -r8
    25b0:	000005d8 	ldrdeq	r0, [r0], -r8
    25b4:	000005dc 	ldrdeq	r0, [r0], -ip
    25b8:	000005dc 	ldrdeq	r0, [r0], -ip
    25bc:	000005f4 	strdeq	r0, [r0], -r4
	...
    25c8:	0000052c 	andeq	r0, r0, ip, lsr #10
    25cc:	00000530 	andeq	r0, r0, r0, lsr r5
    25d0:	00000538 	andeq	r0, r0, r8, lsr r5
    25d4:	00000540 	andeq	r0, r0, r0, asr #10
    25d8:	00000540 	andeq	r0, r0, r0, asr #10
    25dc:	00000540 	andeq	r0, r0, r0, asr #10
    25e0:	00000540 	andeq	r0, r0, r0, asr #10
    25e4:	00000540 	andeq	r0, r0, r0, asr #10
    25e8:	00000544 	andeq	r0, r0, r4, asr #10
    25ec:	00000544 	andeq	r0, r0, r4, asr #10
    25f0:	00000544 	andeq	r0, r0, r4, asr #10
    25f4:	00000544 	andeq	r0, r0, r4, asr #10
    25f8:	00000544 	andeq	r0, r0, r4, asr #10
    25fc:	00000544 	andeq	r0, r0, r4, asr #10
    2600:	00000544 	andeq	r0, r0, r4, asr #10
    2604:	00000548 	andeq	r0, r0, r8, asr #10
    2608:	00000548 	andeq	r0, r0, r8, asr #10
    260c:	0000054c 	andeq	r0, r0, ip, asr #10
    2610:	0000054c 	andeq	r0, r0, ip, asr #10
    2614:	0000055c 	andeq	r0, r0, ip, asr r5
    2618:	0000055c 	andeq	r0, r0, ip, asr r5
    261c:	0000055c 	andeq	r0, r0, ip, asr r5
    2620:	0000055c 	andeq	r0, r0, ip, asr r5
    2624:	0000055c 	andeq	r0, r0, ip, asr r5
    2628:	0000055c 	andeq	r0, r0, ip, asr r5
    262c:	00000560 	andeq	r0, r0, r0, ror #10
    2630:	00000560 	andeq	r0, r0, r0, ror #10
    2634:	00000564 	andeq	r0, r0, r4, ror #10
    2638:	00000564 	andeq	r0, r0, r4, ror #10
    263c:	00000580 	andeq	r0, r0, r0, lsl #11
	...
    2648:	0000052c 	andeq	r0, r0, ip, lsr #10
    264c:	00000530 	andeq	r0, r0, r0, lsr r5
    2650:	00000538 	andeq	r0, r0, r8, lsr r5
    2654:	00000540 	andeq	r0, r0, r0, asr #10
    2658:	00000540 	andeq	r0, r0, r0, asr #10
    265c:	00000540 	andeq	r0, r0, r0, asr #10
    2660:	00000544 	andeq	r0, r0, r4, asr #10
    2664:	00000544 	andeq	r0, r0, r4, asr #10
    2668:	00000544 	andeq	r0, r0, r4, asr #10
    266c:	00000544 	andeq	r0, r0, r4, asr #10
    2670:	00000544 	andeq	r0, r0, r4, asr #10
    2674:	00000544 	andeq	r0, r0, r4, asr #10
    2678:	00000544 	andeq	r0, r0, r4, asr #10
    267c:	00000548 	andeq	r0, r0, r8, asr #10
    2680:	00000548 	andeq	r0, r0, r8, asr #10
    2684:	0000054c 	andeq	r0, r0, ip, asr #10
    2688:	0000054c 	andeq	r0, r0, ip, asr #10
    268c:	0000055c 	andeq	r0, r0, ip, asr r5
    2690:	0000055c 	andeq	r0, r0, ip, asr r5
    2694:	0000055c 	andeq	r0, r0, ip, asr r5
    2698:	0000055c 	andeq	r0, r0, ip, asr r5
    269c:	0000055c 	andeq	r0, r0, ip, asr r5
    26a0:	0000055c 	andeq	r0, r0, ip, asr r5
    26a4:	00000560 	andeq	r0, r0, r0, ror #10
    26a8:	00000560 	andeq	r0, r0, r0, ror #10
    26ac:	00000564 	andeq	r0, r0, r4, ror #10
    26b0:	00000564 	andeq	r0, r0, r4, ror #10
    26b4:	00000580 	andeq	r0, r0, r0, lsl #11
	...
    26c0:	0000052c 	andeq	r0, r0, ip, lsr #10
    26c4:	00000530 	andeq	r0, r0, r0, lsr r5
    26c8:	00000538 	andeq	r0, r0, r8, lsr r5
    26cc:	00000540 	andeq	r0, r0, r0, asr #10
    26d0:	00000544 	andeq	r0, r0, r4, asr #10
    26d4:	00000544 	andeq	r0, r0, r4, asr #10
    26d8:	00000544 	andeq	r0, r0, r4, asr #10
    26dc:	00000544 	andeq	r0, r0, r4, asr #10
    26e0:	00000544 	andeq	r0, r0, r4, asr #10
    26e4:	00000544 	andeq	r0, r0, r4, asr #10
    26e8:	00000544 	andeq	r0, r0, r4, asr #10
    26ec:	00000548 	andeq	r0, r0, r8, asr #10
    26f0:	00000548 	andeq	r0, r0, r8, asr #10
    26f4:	0000054c 	andeq	r0, r0, ip, asr #10
    26f8:	0000054c 	andeq	r0, r0, ip, asr #10
    26fc:	0000055c 	andeq	r0, r0, ip, asr r5
    2700:	0000055c 	andeq	r0, r0, ip, asr r5
    2704:	0000055c 	andeq	r0, r0, ip, asr r5
    2708:	0000055c 	andeq	r0, r0, ip, asr r5
    270c:	0000055c 	andeq	r0, r0, ip, asr r5
    2710:	0000055c 	andeq	r0, r0, ip, asr r5
    2714:	00000560 	andeq	r0, r0, r0, ror #10
    2718:	00000560 	andeq	r0, r0, r0, ror #10
    271c:	00000564 	andeq	r0, r0, r4, ror #10
    2720:	00000564 	andeq	r0, r0, r4, ror #10
    2724:	00000574 	andeq	r0, r0, r4, ror r5
	...
    2730:	0000052c 	andeq	r0, r0, ip, lsr #10
    2734:	00000530 	andeq	r0, r0, r0, lsr r5
    2738:	00000538 	andeq	r0, r0, r8, lsr r5
    273c:	00000540 	andeq	r0, r0, r0, asr #10
    2740:	00000544 	andeq	r0, r0, r4, asr #10
    2744:	00000544 	andeq	r0, r0, r4, asr #10
    2748:	00000544 	andeq	r0, r0, r4, asr #10
    274c:	00000544 	andeq	r0, r0, r4, asr #10
    2750:	00000544 	andeq	r0, r0, r4, asr #10
    2754:	00000548 	andeq	r0, r0, r8, asr #10
    2758:	00000548 	andeq	r0, r0, r8, asr #10
    275c:	0000054c 	andeq	r0, r0, ip, asr #10
    2760:	0000054c 	andeq	r0, r0, ip, asr #10
    2764:	0000055c 	andeq	r0, r0, ip, asr r5
	...
    2770:	0000052c 	andeq	r0, r0, ip, lsr #10
    2774:	00000530 	andeq	r0, r0, r0, lsr r5
    2778:	00000538 	andeq	r0, r0, r8, lsr r5
    277c:	00000540 	andeq	r0, r0, r0, asr #10
    2780:	00000544 	andeq	r0, r0, r4, asr #10
    2784:	00000544 	andeq	r0, r0, r4, asr #10
    2788:	00000544 	andeq	r0, r0, r4, asr #10
    278c:	00000548 	andeq	r0, r0, r8, asr #10
    2790:	00000548 	andeq	r0, r0, r8, asr #10
    2794:	0000054c 	andeq	r0, r0, ip, asr #10
    2798:	0000054c 	andeq	r0, r0, ip, asr #10
    279c:	0000055c 	andeq	r0, r0, ip, asr r5
	...
    27a8:	0000052c 	andeq	r0, r0, ip, lsr #10
    27ac:	00000530 	andeq	r0, r0, r0, lsr r5
    27b0:	00000538 	andeq	r0, r0, r8, lsr r5
    27b4:	00000540 	andeq	r0, r0, r0, asr #10
    27b8:	00000544 	andeq	r0, r0, r4, asr #10
    27bc:	00000548 	andeq	r0, r0, r8, asr #10
	...
    27c8:	0000054c 	andeq	r0, r0, ip, asr #10
    27cc:	0000054c 	andeq	r0, r0, ip, asr #10
    27d0:	0000054c 	andeq	r0, r0, ip, asr #10
    27d4:	0000055c 	andeq	r0, r0, ip, asr r5
	...
    27e0:	00000564 	andeq	r0, r0, r4, ror #10
    27e4:	00000564 	andeq	r0, r0, r4, ror #10
    27e8:	00000564 	andeq	r0, r0, r4, ror #10
    27ec:	00000574 	andeq	r0, r0, r4, ror r5
	...
    27f8:	00000580 	andeq	r0, r0, r0, lsl #11
    27fc:	00000580 	andeq	r0, r0, r0, lsl #11
    2800:	00000580 	andeq	r0, r0, r0, lsl #11
    2804:	00000580 	andeq	r0, r0, r0, lsl #11
    2808:	00000580 	andeq	r0, r0, r0, lsl #11
    280c:	00000580 	andeq	r0, r0, r0, lsl #11
    2810:	00000580 	andeq	r0, r0, r0, lsl #11
    2814:	00000584 	andeq	r0, r0, r4, lsl #11
    2818:	00000584 	andeq	r0, r0, r4, lsl #11
    281c:	00000588 	andeq	r0, r0, r8, lsl #11
    2820:	00000588 	andeq	r0, r0, r8, lsl #11
    2824:	00000598 	muleq	r0, r8, r5
    2828:	00000598 	muleq	r0, r8, r5
    282c:	00000598 	muleq	r0, r8, r5
    2830:	00000598 	muleq	r0, r8, r5
    2834:	00000598 	muleq	r0, r8, r5
    2838:	00000598 	muleq	r0, r8, r5
    283c:	0000059c 	muleq	r0, ip, r5
    2840:	0000059c 	muleq	r0, ip, r5
    2844:	000005a0 	andeq	r0, r0, r0, lsr #11
    2848:	000005a0 	andeq	r0, r0, r0, lsr #11
    284c:	000005bc 			; <UNDEFINED> instruction: 0x000005bc
	...
    2858:	00000580 	andeq	r0, r0, r0, lsl #11
    285c:	00000580 	andeq	r0, r0, r0, lsl #11
    2860:	00000580 	andeq	r0, r0, r0, lsl #11
    2864:	00000580 	andeq	r0, r0, r0, lsl #11
    2868:	00000580 	andeq	r0, r0, r0, lsl #11
    286c:	00000580 	andeq	r0, r0, r0, lsl #11
    2870:	00000580 	andeq	r0, r0, r0, lsl #11
    2874:	00000584 	andeq	r0, r0, r4, lsl #11
    2878:	00000584 	andeq	r0, r0, r4, lsl #11
    287c:	00000588 	andeq	r0, r0, r8, lsl #11
    2880:	00000588 	andeq	r0, r0, r8, lsl #11
    2884:	00000598 	muleq	r0, r8, r5
    2888:	00000598 	muleq	r0, r8, r5
    288c:	00000598 	muleq	r0, r8, r5
    2890:	00000598 	muleq	r0, r8, r5
    2894:	00000598 	muleq	r0, r8, r5
    2898:	00000598 	muleq	r0, r8, r5
    289c:	0000059c 	muleq	r0, ip, r5
    28a0:	0000059c 	muleq	r0, ip, r5
    28a4:	000005a0 	andeq	r0, r0, r0, lsr #11
    28a8:	000005a0 	andeq	r0, r0, r0, lsr #11
    28ac:	000005b0 			; <UNDEFINED> instruction: 0x000005b0
	...
    28b8:	00000580 	andeq	r0, r0, r0, lsl #11
    28bc:	00000580 	andeq	r0, r0, r0, lsl #11
    28c0:	00000580 	andeq	r0, r0, r0, lsl #11
    28c4:	00000580 	andeq	r0, r0, r0, lsl #11
    28c8:	00000580 	andeq	r0, r0, r0, lsl #11
    28cc:	00000584 	andeq	r0, r0, r4, lsl #11
    28d0:	00000584 	andeq	r0, r0, r4, lsl #11
    28d4:	00000588 	andeq	r0, r0, r8, lsl #11
    28d8:	00000588 	andeq	r0, r0, r8, lsl #11
    28dc:	00000598 	muleq	r0, r8, r5
	...
    28e8:	00000588 	andeq	r0, r0, r8, lsl #11
    28ec:	00000588 	andeq	r0, r0, r8, lsl #11
    28f0:	00000588 	andeq	r0, r0, r8, lsl #11
    28f4:	00000598 	muleq	r0, r8, r5
	...
    2900:	000005a0 	andeq	r0, r0, r0, lsr #11
    2904:	000005a0 	andeq	r0, r0, r0, lsr #11
    2908:	000005a0 	andeq	r0, r0, r0, lsr #11
    290c:	000005b0 			; <UNDEFINED> instruction: 0x000005b0
	...
    2918:	000005bc 			; <UNDEFINED> instruction: 0x000005bc
    291c:	000005bc 			; <UNDEFINED> instruction: 0x000005bc
    2920:	000005bc 			; <UNDEFINED> instruction: 0x000005bc
    2924:	000005bc 			; <UNDEFINED> instruction: 0x000005bc
    2928:	000005bc 			; <UNDEFINED> instruction: 0x000005bc
    292c:	000005bc 			; <UNDEFINED> instruction: 0x000005bc
    2930:	000005bc 			; <UNDEFINED> instruction: 0x000005bc
    2934:	000005c0 	andeq	r0, r0, r0, asr #11
    2938:	000005c0 	andeq	r0, r0, r0, asr #11
    293c:	000005c4 	andeq	r0, r0, r4, asr #11
    2940:	000005c4 	andeq	r0, r0, r4, asr #11
    2944:	000005d4 	ldrdeq	r0, [r0], -r4
    2948:	000005d4 	ldrdeq	r0, [r0], -r4
    294c:	000005d4 	ldrdeq	r0, [r0], -r4
    2950:	000005d4 	ldrdeq	r0, [r0], -r4
    2954:	000005d4 	ldrdeq	r0, [r0], -r4
    2958:	000005d4 	ldrdeq	r0, [r0], -r4
    295c:	000005d8 	ldrdeq	r0, [r0], -r8
    2960:	000005d8 	ldrdeq	r0, [r0], -r8
    2964:	000005dc 	ldrdeq	r0, [r0], -ip
    2968:	000005dc 	ldrdeq	r0, [r0], -ip
    296c:	000005f4 	strdeq	r0, [r0], -r4
	...
    2978:	000005bc 			; <UNDEFINED> instruction: 0x000005bc
    297c:	000005bc 			; <UNDEFINED> instruction: 0x000005bc
    2980:	000005bc 			; <UNDEFINED> instruction: 0x000005bc
    2984:	000005bc 			; <UNDEFINED> instruction: 0x000005bc
    2988:	000005bc 			; <UNDEFINED> instruction: 0x000005bc
    298c:	000005bc 			; <UNDEFINED> instruction: 0x000005bc
    2990:	000005bc 			; <UNDEFINED> instruction: 0x000005bc
    2994:	000005c0 	andeq	r0, r0, r0, asr #11
    2998:	000005c0 	andeq	r0, r0, r0, asr #11
    299c:	000005c4 	andeq	r0, r0, r4, asr #11
    29a0:	000005c4 	andeq	r0, r0, r4, asr #11
    29a4:	000005d4 	ldrdeq	r0, [r0], -r4
    29a8:	000005d4 	ldrdeq	r0, [r0], -r4
    29ac:	000005d4 	ldrdeq	r0, [r0], -r4
    29b0:	000005d4 	ldrdeq	r0, [r0], -r4
    29b4:	000005d4 	ldrdeq	r0, [r0], -r4
    29b8:	000005d4 	ldrdeq	r0, [r0], -r4
    29bc:	000005d8 	ldrdeq	r0, [r0], -r8
    29c0:	000005d8 	ldrdeq	r0, [r0], -r8
    29c4:	000005dc 	ldrdeq	r0, [r0], -ip
    29c8:	000005dc 	ldrdeq	r0, [r0], -ip
    29cc:	000005ec 	andeq	r0, r0, ip, ror #11
	...
    29d8:	000005bc 			; <UNDEFINED> instruction: 0x000005bc
    29dc:	000005bc 			; <UNDEFINED> instruction: 0x000005bc
    29e0:	000005bc 			; <UNDEFINED> instruction: 0x000005bc
    29e4:	000005bc 			; <UNDEFINED> instruction: 0x000005bc
    29e8:	000005bc 			; <UNDEFINED> instruction: 0x000005bc
    29ec:	000005c0 	andeq	r0, r0, r0, asr #11
    29f0:	000005c0 	andeq	r0, r0, r0, asr #11
    29f4:	000005c4 	andeq	r0, r0, r4, asr #11
    29f8:	000005c4 	andeq	r0, r0, r4, asr #11
    29fc:	000005d4 	ldrdeq	r0, [r0], -r4
	...
    2a08:	000005c4 	andeq	r0, r0, r4, asr #11
    2a0c:	000005c4 	andeq	r0, r0, r4, asr #11
    2a10:	000005c4 	andeq	r0, r0, r4, asr #11
    2a14:	000005d4 	ldrdeq	r0, [r0], -r4
	...
    2a20:	000005dc 	ldrdeq	r0, [r0], -ip
    2a24:	000005dc 	ldrdeq	r0, [r0], -ip
    2a28:	000005dc 	ldrdeq	r0, [r0], -ip
    2a2c:	000005ec 	andeq	r0, r0, ip, ror #11
	...
    2a38:	00000020 	andeq	r0, r0, r0, lsr #32
    2a3c:	00000020 	andeq	r0, r0, r0, lsr #32
    2a40:	00000020 	andeq	r0, r0, r0, lsr #32
    2a44:	00000028 	andeq	r0, r0, r8, lsr #32
	...
    2a50:	00000158 	andeq	r0, r0, r8, asr r1
    2a54:	00000170 	andeq	r0, r0, r0, ror r1
    2a58:	000001fc 	strdeq	r0, [r0], -ip
    2a5c:	00000248 	andeq	r0, r0, r8, asr #4
	...
    2a68:	00000264 	andeq	r0, r0, r4, ror #4
    2a6c:	00000264 	andeq	r0, r0, r4, ror #4
    2a70:	00000264 	andeq	r0, r0, r4, ror #4
    2a74:	0000026c 	andeq	r0, r0, ip, ror #4
	...
    2a80:	00009410 	andeq	r9, r0, r0, lsl r4
    2a84:	00009430 	andeq	r9, r0, r0, lsr r4
	...
    2a90:	0000949c 	muleq	r0, ip, r4
    2a94:	0000951c 	andeq	r9, r0, ip, lsl r5
	...
    2aa0:	00009810 	andeq	r9, r0, r0, lsl r8
    2aa4:	0000983c 	andeq	r9, r0, ip, lsr r8
	...

Disassembly of section .debug_line:

00000000 <.debug_line>:
       0:	00000167 	andeq	r0, r0, r7, ror #2
       4:	009c0003 	addseq	r0, ip, r3
       8:	01020000 	mrseq	r0, (UNDEF: 2)
       c:	000d0efb 	strdeq	r0, [sp], -fp
      10:	01010101 	tsteq	r1, r1, lsl #2
      14:	01000000 	mrseq	r0, (UNDEF: 0)
      18:	2f010000 	svccs	0x00010000
      1c:	72657355 	rsbvc	r7, r5, #1409286145	; 0x54000001
      20:	6e612f73 	mcrvs	15, 3, r2, cr1, cr3, {3}
      24:	442f616e 	strtmi	r6, [pc], #-366	; 2c <__code_start__-0x7fd4>
      28:	6d75636f 	ldclvs	3, cr6, [r5, #-444]!	; 0xfffffe44
      2c:	73746e65 	cmnvc	r4, #1616	; 0x650
      30:	6863532f 	stmdavs	r3!, {r0, r1, r2, r3, r5, r8, r9, ip, lr}^
      34:	2f6c6f6f 	svccs	0x006c6f6f
      38:	6c6c6f43 	stclvs	15, cr6, [ip], #-268	; 0xfffffef4
      3c:	2f656765 	svccs	0x00656765
      40:	696e754a 	stmdbvs	lr!, {r1, r3, r6, r8, sl, ip, sp, lr}^
      44:	532f726f 			; <UNDEFINED> instruction: 0x532f726f
      48:	432f3232 			; <UNDEFINED> instruction: 0x432f3232
      4c:	30343253 	eorscc	r3, r4, r3, asr r2
      50:	6d2f584c 	stcvs	8, cr5, [pc, #-304]!	; ffffff28 <__bss_end__+0xffff5f38>
      54:	646f6379 	strbtvs	r6, [pc], #-889	; 5c <__code_start__-0x7fa4>
      58:	696c2f65 	stmdbvs	ip!, {r0, r2, r5, r6, r8, r9, sl, fp, sp}^
      5c:	2f697062 	svccs	0x00697062
      60:	6c636e69 	stclvs	14, cr6, [r3], #-420	; 0xfffffe5c
      64:	00656475 	rsbeq	r6, r5, r5, ror r4
      68:	6e2d3200 	cdpvs	2, 2, cr3, cr13, cr0, {0}
      6c:	69706f65 	ldmdbvs	r0!, {r0, r2, r5, r6, r8, r9, sl, fp, sp, lr}^
      70:	00632e78 	rsbeq	r2, r3, r8, ror lr
      74:	72000000 	andvc	r0, r0, #0, 0
      78:	682e6970 	stmdavs	lr!, {r4, r5, r6, r8, fp, sp, lr}
      7c:	00000100 	andeq	r0, r0, r0, lsl #2
      80:	38325357 	ldmdacc	r2!, {r0, r1, r2, r4, r6, r8, r9, ip, lr}
      84:	2e423231 	mcrcs	2, 2, r3, cr2, cr1, {1}
      88:	00000068 	andeq	r0, r0, r8, rrx
      8c:	6f656e00 	svcvs	0x00656e00
      90:	65786970 	ldrbvs	r6, [r8, #-2416]!	; 0xfffff690
      94:	00682e6c 	rsbeq	r2, r8, ip, ror #28
      98:	67000000 	strvs	r0, [r0, -r0]
      9c:	2e6f6970 			; <UNDEFINED> instruction: 0x2e6f6970
      a0:	00010068 	andeq	r0, r1, r8, rrx
      a4:	23050000 	movwcs	r0, #20480	; 0x5000
      a8:	38020500 	stmdacc	r2, {r8, sl}
      ac:	03000080 	movweq	r0, #128	; 0x80
      b0:	0505010c 	streq	r0, [r5, #-268]	; 0xfffffef4
      b4:	06230513 			; <UNDEFINED> instruction: 0x06230513
      b8:	2f050511 	svccs	0x00050511
      bc:	052d2305 	streq	r2, [sp, #-773]!	; 0xfffffcfb
      c0:	06666705 	strbteq	r6, [r6], -r5, lsl #14
      c4:	05d7bb4b 	ldrbeq	fp, [r7, #2891]	; 0xb4b
      c8:	052f0601 	streq	r0, [pc, #-1537]!	; fffffacf <__bss_end__+0xffff5adf>
      cc:	052e4905 	streq	r4, [lr, #-2309]!	; 0xfffff6fb
      d0:	05000614 	streq	r0, [r0, #-1556]	; 0xfffff9ec
      d4:	0080a402 	addeq	sl, r0, r2, lsl #8
      d8:	05051500 	streq	r1, [r5, #-1280]	; 0xfffffb00
      dc:	06140513 			; <UNDEFINED> instruction: 0x06140513
      e0:	4b050511 	blmi	14152c <__bss_end__+0x13753c>
      e4:	134f2f06 	movtne	r2, #65286	; 0xff06
      e8:	01060f05 	tsteq	r6, r5, lsl #30
      ec:	05690d05 	strbeq	r0, [r9, #-3333]!	; 0xfffff2fb
      f0:	05052b0f 	streq	r2, [r5, #-2831]	; 0xfffff4f1
      f4:	09053106 	stmdbeq	r5, {r1, r2, r8, ip, sp}
      f8:	01140501 	tsteq	r4, r1, lsl #10
      fc:	03060505 	movweq	r0, #25861	; 0x6505
     100:	0905016f 	stmdbeq	r5, {r0, r1, r2, r3, r5, r6, r8}
     104:	064a1203 	strbeq	r1, [sl], -r3, lsl #4
     108:	0d05672e 	stceq	7, cr6, [r5, #-184]	; 0xffffff48
     10c:	01180501 	tsteq	r8, r1, lsl #10
     110:	01061105 	tsteq	r6, r5, lsl #2
     114:	4b060d05 	blmi	183530 <__bss_end__+0x179540>
     118:	6b030605 	blvs	c1934 <__bss_end__+0xb7944>
     11c:	13050501 	movwne	r0, #21761	; 0x5501
     120:	06bbbbbb 			; <UNDEFINED> instruction: 0x06bbbbbb
     124:	060d054a 	streq	r0, [sp], -sl, asr #10
     128:	05011203 	streq	r1, [r1, #-515]	; 0xfffffdfd
     12c:	05100626 	ldreq	r0, [r0, #-1574]	; 0xfffff9da
     130:	2505300d 	strcs	r3, [r5, #-13]
     134:	18054806 	stmdane	r5, {r1, r2, fp, lr}
     138:	06090501 	streq	r0, [r9], -r1, lsl #10
     13c:	001c0501 	andseq	r0, ip, r1, lsl #10
     140:	06020402 	streq	r0, [r2], -r2, lsl #8
     144:	001d0548 	andseq	r0, sp, r8, asr #10
     148:	06020402 	streq	r0, [r2], -r2, lsl #8
     14c:	00140501 	andseq	r0, r4, r1, lsl #10
     150:	06020402 	streq	r0, [r2], -r2, lsl #8
     154:	0005052e 	andeq	r0, r5, lr, lsr #10
     158:	06020402 	streq	r0, [r2], -r2, lsl #8
     15c:	05510601 	ldrbeq	r0, [r1, #-1537]	; 0xfffff9ff
     160:	052f0601 	streq	r0, [pc, #-1537]!	; fffffb67 <__bss_end__+0xffff5b77>
     164:	06024905 	streq	r4, [r2], -r5, lsl #18
     168:	6b010100 	blvs	40570 <__bss_end__+0x36580>
     16c:	03000012 	movweq	r0, #18
     170:	00010200 	andeq	r0, r1, r0, lsl #4
     174:	fb010200 	blx	4097e <__bss_end__+0x3698e>
     178:	01000d0e 	tsteq	r0, lr, lsl #26
     17c:	00010101 	andeq	r0, r1, r1, lsl #2
     180:	00010000 	andeq	r0, r1, r0
     184:	752f0100 	strvc	r0, [pc, #-256]!	; 8c <__code_start__-0x7f74>
     188:	6c2f7273 	sfmvs	f7, 4, [pc], #-460	; ffffffc4 <__bss_end__+0xffff5fd4>
     18c:	6c61636f 	stclvs	3, cr6, [r1], #-444	; 0xfffffe44
     190:	6c65432f 	stclvs	3, cr4, [r5], #-188	; 0xffffff44
     194:	2f72616c 	svccs	0x0072616c
     198:	2d6d7261 	sfmcs	f7, 2, [sp, #-388]!	; 0xfffffe7c
     19c:	656e6f6e 	strbvs	r6, [lr, #-3950]!	; 0xfffff092
     1a0:	6261652d 	rsbvs	r6, r1, #188743680	; 0xb400000
     1a4:	2f392d69 	svccs	0x00392d69
     1a8:	30322d39 	eorscc	r2, r2, r9, lsr sp
     1ac:	34713931 	ldrbtcc	r3, [r1], #-2353	; 0xfffff6cf
     1b0:	3173632d 	cmncc	r3, sp, lsr #6
     1b4:	2f653730 	svccs	0x00653730
     1b8:	2f62696c 	svccs	0x0062696c
     1bc:	2f636367 	svccs	0x00636367
     1c0:	2d6d7261 	sfmcs	f7, 2, [sp, #-388]!	; 0xfffffe7c
     1c4:	656e6f6e 	strbvs	r6, [lr, #-3950]!	; 0xfffff092
     1c8:	6261652d 	rsbvs	r6, r1, #188743680	; 0xb400000
     1cc:	2e392f69 	cdpcs	15, 3, cr2, cr9, cr9, {3}
     1d0:	2f312e32 	svccs	0x00312e32
     1d4:	6c636e69 	stclvs	14, cr6, [r3], #-420	; 0xfffffe5c
     1d8:	00656475 	rsbeq	r6, r5, r5, ror r4
     1dc:	6573552f 	ldrbvs	r5, [r3, #-1327]!	; 0xfffffad1
     1e0:	612f7372 			; <UNDEFINED> instruction: 0x612f7372
     1e4:	2f616e6e 	svccs	0x00616e6e
     1e8:	75636f44 	strbvc	r6, [r3, #-3908]!	; 0xfffff0bc
     1ec:	746e656d 	strbtvc	r6, [lr], #-1389	; 0xfffffa93
     1f0:	63532f73 	cmpvs	r3, #460	; 0x1cc
     1f4:	6c6f6f68 	stclvs	15, cr6, [pc], #-416	; 5c <__code_start__-0x7fa4>
     1f8:	6c6f432f 	stclvs	3, cr4, [pc], #-188	; 144 <__code_start__-0x7ebc>
     1fc:	6567656c 	strbvs	r6, [r7, #-1388]!	; 0xfffffa94
     200:	6e754a2f 	vaddvs.f32	s9, s10, s31
     204:	2f726f69 	svccs	0x00726f69
     208:	2f323253 	svccs	0x00323253
     20c:	34325343 	ldrtcc	r5, [r2], #-835	; 0xfffffcbd
     210:	2f584c30 	svccs	0x00584c30
     214:	6f63796d 	svcvs	0x0063796d
     218:	6c2f6564 	cfstr32vs	mvfx6, [pc], #-400	; 90 <__code_start__-0x7f70>
     21c:	69706269 	ldmdbvs	r0!, {r0, r3, r5, r6, r9, sp, lr}^
     220:	636e692f 	cmnvs	lr, #770048	; 0xbc000
     224:	6564756c 	strbvs	r7, [r4, #-1388]!	; 0xfffffa94
     228:	656e0000 	strbvs	r0, [lr, #-0]!
     22c:	7869706f 	stmdavc	r9!, {r0, r1, r2, r3, r5, r6, ip, sp, lr}^
     230:	632e6c65 			; <UNDEFINED> instruction: 0x632e6c65
     234:	00000000 	andeq	r0, r0, r0
     238:	38325357 	ldmdacc	r2!, {r0, r1, r2, r4, r6, r8, r9, ip, lr}
     23c:	2e423231 	mcrcs	2, 2, r3, cr2, cr1, {1}
     240:	00000068 	andeq	r0, r0, r8, rrx
     244:	64747300 	ldrbtvs	r7, [r4], #-768	; 0xfffffd00
     248:	2d746e69 	ldclcs	14, cr6, [r4, #-420]!	; 0xfffffe5c
     24c:	2e636367 	cdpcs	3, 6, cr6, cr3, cr7, {3}
     250:	00010068 	andeq	r0, r1, r8, rrx
     254:	69707200 	ldmdbvs	r0!, {r9, ip, sp, lr}^
     258:	0200682e 	andeq	r6, r0, #3014656	; 0x2e0000
     25c:	656e0000 	strbvs	r0, [lr, #-0]!
     260:	7869706f 	stmdavc	r9!, {r0, r1, r2, r3, r5, r6, ip, sp, lr}^
     264:	682e6c65 	stmdavs	lr!, {r0, r2, r5, r6, sl, fp, sp, lr}
     268:	00000000 	andeq	r0, r0, r0
     26c:	6f697067 	svcvs	0x00697067
     270:	0200682e 	andeq	r6, r0, #3014656	; 0x2e0000
     274:	05000000 	streq	r0, [r0, #-0]
     278:	0205001c 	andeq	r0, r5, #28, 0
     27c:	00008174 	andeq	r8, r0, r4, ror r1
     280:	05011d03 	streq	r1, [r1, #-3331]	; 0xfffff2fd
     284:	0a051305 	beq	144ea0 <__bss_end__+0x13aeb0>
     288:	01150501 	tsteq	r5, r1, lsl #10
     28c:	01061a05 	tsteq	r6, r5, lsl #20
     290:	052e0505 	streq	r0, [lr, #-1285]!	; 0xfffffafb
     294:	0204491c 	andeq	r4, r4, #28, 18	; 0x70000
     298:	d8030e05 	stmdale	r3, {r0, r2, r9, sl, fp}
     29c:	01042e00 	tsteq	r4, r0, lsl #28
     2a0:	ab030905 	blge	c26bc <__bss_end__+0xb86cc>
     2a4:	02044a7f 	andeq	r4, r4, #520192	; 0x7f000
     2a8:	d5030b05 	strle	r0, [r3, #-2821]	; 0xfffff4fb
     2ac:	0e054a00 	vmlaeq.f32	s8, s10, s0
     2b0:	01042e4a 	tsteq	r4, sl, asr #28
     2b4:	02000905 	andeq	r0, r0, #81920	; 0x14000
     2b8:	03060304 	movweq	r0, #25348	; 0x6304
     2bc:	04017faa 	streq	r7, [r1], #-4010	; 0xfffff056
     2c0:	000e0502 	andeq	r0, lr, r2, lsl #10
     2c4:	06030402 	streq	r0, [r3], -r2, lsl #8
     2c8:	0101b903 	tsteq	r1, r3, lsl #18
     2cc:	1a050104 	bne	1406e4 <__bss_end__+0x1366f4>
     2d0:	03040200 	movweq	r0, #16896	; 0x4200
     2d4:	2e7ec703 	cdpcs	7, 7, cr12, cr14, cr3, {0}
     2d8:	03040200 	movweq	r0, #16896	; 0x4200
     2dc:	0009052e 	andeq	r0, r9, lr, lsr #10
     2e0:	06030402 	streq	r0, [r3], -r2, lsl #8
     2e4:	0502042f 	streq	r0, [r2, #-1071]	; 0xfffffbd1
     2e8:	04020014 	streq	r0, [r2], #-20	; 0xffffffec
     2ec:	01be0303 			; <UNDEFINED> instruction: 0x01be0303
     2f0:	00050501 	andeq	r0, r5, r1, lsl #10
     2f4:	17030402 	strne	r0, [r3, -r2, lsl #8]
     2f8:	02000d05 	andeq	r0, r0, #320	; 0x140
     2fc:	74030304 	strvc	r0, [r3], #-772	; 0xfffffcfc
     300:	00050501 	andeq	r0, r5, r1, lsl #10
     304:	13030402 	movwne	r0, #13314	; 0x3402
     308:	02000a05 	andeq	r0, r0, #20480	; 0x5000
     30c:	05010304 	streq	r0, [r1, #-772]	; 0xfffffcfc
     310:	04020015 	streq	r0, [r2], #-21	; 0xffffffeb
     314:	09050103 	stmdbeq	r5, {r0, r1, r8}
     318:	0314052f 	tsteq	r4, #197132288	; 0xbc00000
     31c:	0505016f 	streq	r0, [r5, #-367]	; 0xfffffe91
     320:	061c0513 			; <UNDEFINED> instruction: 0x061c0513
     324:	05011003 	streq	r1, [r1, #-3]
     328:	2e700308 	cdpcs	3, 7, cr0, cr0, cr8, {0}
     32c:	ac030b05 			; <UNDEFINED> instruction: 0xac030b05
     330:	08052e7f 	stmdaeq	r5, {r0, r1, r2, r3, r4, r5, r6, r9, sl, fp, sp}
     334:	2e00d403 	cdpcs	4, 0, cr13, cr0, cr3, {0}
     338:	2f060905 	svccs	0x00060905
     33c:	5f031405 	svcpl	0x00031405
     340:	13050501 	movwne	r0, #21761	; 0x5501
     344:	70031405 	andvc	r1, r3, r5, lsl #8
     348:	14050501 	strne	r0, [r5], #-1281	; 0xfffffaff
     34c:	57031405 	strpl	r1, [r3, -r5, lsl #8]
     350:	13050501 	movwne	r0, #21761	; 0x5501
     354:	06010613 			; <UNDEFINED> instruction: 0x06010613
     358:	05012803 	streq	r2, [r1, #-2051]	; 0xfffff7fd
     35c:	2e010113 	mcrcs	1, 0, r0, cr1, cr3, {0}
     360:	14050106 	strne	r0, [r5], #-262	; 0xfffffefa
     364:	01610306 	cmneq	r1, r6, lsl #6
     368:	05130505 	ldreq	r0, [r3, #-1285]	; 0xfffffafb
     36c:	05051114 	streq	r1, [r5, #-276]	; 0xfffffeec
     370:	31051315 	tstcc	r5, r5, lsl r3
     374:	010b0501 	tsteq	fp, r1, lsl #10
     378:	01010c05 	tsteq	r1, r5, lsl #24
     37c:	061d052e 	ldreq	r0, [sp], -lr, lsr #10
     380:	2e0b0501 	cfsh32cs	mvfx0, mvfx11, #1
     384:	0609054a 	streq	r0, [r9], -sl, asr #10
     388:	0100c903 	tsteq	r0, r3, lsl #18
     38c:	67031405 	strvs	r1, [r3, -r5, lsl #8]
     390:	13050501 	movwne	r0, #21761	; 0x5501
     394:	6f031405 	svcvs	0x00031405
     398:	14050501 	strne	r0, [r5], #-1281	; 0xfffffaff
     39c:	54031405 	strpl	r1, [r3], #-1029	; 0xfffffbfb
     3a0:	13050501 	movwne	r0, #21761	; 0x5501
     3a4:	060b0513 			; <UNDEFINED> instruction: 0x060b0513
     3a8:	05052e01 	streq	r2, [r5, #-3585]	; 0xfffff1ff
     3ac:	012b0306 			; <UNDEFINED> instruction: 0x012b0306
     3b0:	01011305 	tsteq	r1, r5, lsl #6
     3b4:	0501062e 	streq	r0, [r1, #-1582]	; 0xfffff9d2
     3b8:	59030614 	stmdbpl	r3, {r2, r4, r9, sl}
     3bc:	13050501 	movwne	r0, #21761	; 0x5501
     3c0:	05111405 	ldreq	r1, [r1, #-1029]	; 0xfffffbfb
     3c4:	05131505 	ldreq	r1, [r3, #-1285]	; 0xfffffafb
     3c8:	0b050131 	bleq	140894 <__bss_end__+0x1368a4>
     3cc:	010c0501 	tsteq	ip, r1, lsl #10
     3d0:	1d052e01 	stcne	14, cr2, [r5, #-4]
     3d4:	0b050106 	bleq	1407f4 <__bss_end__+0x136804>
     3d8:	1c054a2e 			; <UNDEFINED> instruction: 0x1c054a2e
     3dc:	00d60306 	sbcseq	r0, r6, r6, lsl #6
     3e0:	06050501 	streq	r0, [r5], -r1, lsl #10
     3e4:	052e2e01 	streq	r2, [lr, #-3585]!	; 0xfffff1ff
     3e8:	0905010e 	stmdbeq	r5, {r1, r2, r3, r8}
     3ec:	14052f06 	strne	r2, [r5], #-3846	; 0xfffff0fa
     3f0:	05016f03 	streq	r6, [r1, #-3843]	; 0xfffff0fd
     3f4:	1c051305 	stcne	3, cr1, [r5], {5}
     3f8:	01100306 	tsteq	r0, r6, lsl #6
     3fc:	70030805 	andvc	r0, r3, r5, lsl #16
     400:	030b052e 	movweq	r0, #46382	; 0xb52e
     404:	052e7fac 	streq	r7, [lr, #-4012]!	; 0xfffff054
     408:	00d40308 	sbcseq	r0, r4, r8, lsl #6
     40c:	0609052e 	streq	r0, [r9], -lr, lsr #10
     410:	0314052f 	tsteq	r4, #197132288	; 0xbc00000
     414:	0505015f 	streq	r0, [r5, #-351]	; 0xfffffea1
     418:	03140513 	tsteq	r4, #79691776	; 0x4c00000
     41c:	05050170 	streq	r0, [r5, #-368]	; 0xfffffe90
     420:	03140514 	tsteq	r4, #20, 10	; 0x5000000
     424:	05050157 	streq	r0, [r5, #-343]	; 0xfffffea9
     428:	01061313 	tsteq	r6, r3, lsl r3
     42c:	01280306 			; <UNDEFINED> instruction: 0x01280306
     430:	01011305 	tsteq	r1, r5, lsl #6
     434:	0501062e 	streq	r0, [r1, #-1582]	; 0xfffff9d2
     438:	61030614 	tstvs	r3, r4, lsl r6
     43c:	13050501 	movwne	r0, #21761	; 0x5501
     440:	05111405 	ldreq	r1, [r1, #-1029]	; 0xfffffbfb
     444:	05131505 	ldreq	r1, [r3, #-1285]	; 0xfffffafb
     448:	0b050131 	bleq	140914 <__bss_end__+0x136924>
     44c:	010c0501 	tsteq	ip, r1, lsl #10
     450:	1d052e01 	stcne	14, cr2, [r5, #-4]
     454:	0b050106 	bleq	140874 <__bss_end__+0x136884>
     458:	09054a2e 	stmdbeq	r5, {r1, r2, r3, r5, r9, fp, lr}
     45c:	00c90306 	sbceq	r0, r9, r6, lsl #6
     460:	03140501 	tsteq	r4, #4194304	; 0x400000
     464:	05050167 	streq	r0, [r5, #-359]	; 0xfffffe99
     468:	03140513 	tsteq	r4, #79691776	; 0x4c00000
     46c:	0505016f 	streq	r0, [r5, #-367]	; 0xfffffe91
     470:	03140514 	tsteq	r4, #20, 10	; 0x5000000
     474:	05050154 	streq	r0, [r5, #-340]	; 0xfffffeac
     478:	0b051313 	bleq	1450cc <__bss_end__+0x13b0dc>
     47c:	052e0106 	streq	r0, [lr, #-262]!	; 0xfffffefa
     480:	2b030605 	blcs	c1c9c <__bss_end__+0xb7cac>
     484:	01130501 	tsteq	r3, r1, lsl #10
     488:	01062e01 	tsteq	r6, r1, lsl #28
     48c:	03061405 	movweq	r1, #25605	; 0x6405
     490:	05050159 	streq	r0, [r5, #-345]	; 0xfffffea7
     494:	11140513 	tstne	r4, r3, lsl r5
     498:	13150505 	tstne	r5, #20971520	; 0x1400000
     49c:	05013105 	streq	r3, [r1, #-261]	; 0xfffffefb
     4a0:	0c05010b 	stfeqs	f0, [r5], {11}
     4a4:	052e0101 	streq	r0, [lr, #-257]!	; 0xfffffeff
     4a8:	0501061d 	streq	r0, [r1, #-1565]	; 0xfffff9e3
     4ac:	054a2e0b 	strbeq	r2, [sl, #-3595]	; 0xfffff1f5
     4b0:	d603061c 			; <UNDEFINED> instruction: 0xd603061c
     4b4:	05050100 	streq	r0, [r5, #-256]	; 0xffffff00
     4b8:	2e2e0106 	sufcse	f0, f6, f6
     4bc:	05010e05 	streq	r0, [r1, #-3589]	; 0xfffff1fb
     4c0:	052f0609 	streq	r0, [pc, #-1545]!	; fffffebf <__bss_end__+0xffff5ecf>
     4c4:	016f0314 	cmneq	pc, r4, lsl r3	; <UNPREDICTABLE>
     4c8:	05130505 	ldreq	r0, [r3, #-1285]	; 0xfffffafb
     4cc:	1003061c 	andne	r0, r3, ip, lsl r6
     4d0:	03080501 	movweq	r0, #34049	; 0x8501
     4d4:	0b052e70 	bleq	14be9c <__bss_end__+0x141eac>
     4d8:	2e7fac03 	cdpcs	12, 7, cr10, cr15, cr3, {0}
     4dc:	d4030805 	strle	r0, [r3], #-2053	; 0xfffff7fb
     4e0:	09052e00 	stmdbeq	r5, {r9, sl, fp, sp}
     4e4:	14052f06 	strne	r2, [r5], #-3846	; 0xfffff0fa
     4e8:	05015f03 	streq	r5, [r1, #-3843]	; 0xfffff0fd
     4ec:	14051305 	strne	r1, [r5], #-773	; 0xfffffcfb
     4f0:	05017003 	streq	r7, [r1, #-3]
     4f4:	14051405 	strne	r1, [r5], #-1029	; 0xfffffbfb
     4f8:	05015703 	streq	r5, [r1, #-1795]	; 0xfffff8fd
     4fc:	06131305 	ldreq	r1, [r3], -r5, lsl #6
     500:	28030601 	stmdacs	r3, {r0, r9, sl}
     504:	01130501 	tsteq	r3, r1, lsl #10
     508:	01062e01 	tsteq	r6, r1, lsl #28
     50c:	03061405 	movweq	r1, #25605	; 0x6405
     510:	05050161 	streq	r0, [r5, #-353]	; 0xfffffe9f
     514:	11140513 	tstne	r4, r3, lsl r5
     518:	13150505 	tstne	r5, #20971520	; 0x1400000
     51c:	05013105 	streq	r3, [r1, #-261]	; 0xfffffefb
     520:	0c05010b 	stfeqs	f0, [r5], {11}
     524:	052e0101 	streq	r0, [lr, #-257]!	; 0xfffffeff
     528:	0501061d 	streq	r0, [r1, #-1565]	; 0xfffff9e3
     52c:	054a2e0b 	strbeq	r2, [sl, #-3595]	; 0xfffff1f5
     530:	c9030609 	stmdbgt	r3, {r0, r3, r9, sl}
     534:	14050100 	strne	r0, [r5], #-256	; 0xffffff00
     538:	05016703 	streq	r6, [r1, #-1795]	; 0xfffff8fd
     53c:	14051305 	strne	r1, [r5], #-773	; 0xfffffcfb
     540:	05016f03 	streq	r6, [r1, #-3843]	; 0xfffff0fd
     544:	14051405 	strne	r1, [r5], #-1029	; 0xfffffbfb
     548:	05015403 	streq	r5, [r1, #-1027]	; 0xfffffbfd
     54c:	05131305 	ldreq	r1, [r3, #-773]	; 0xfffffcfb
     550:	2e01060b 	cfmadd32cs	mvax0, mvfx0, mvfx1, mvfx11
     554:	03060505 	movweq	r0, #25861	; 0x6505
     558:	1305012b 	movwne	r0, #20779	; 0x512b
     55c:	062e0101 	strteq	r0, [lr], -r1, lsl #2
     560:	06140501 	ldreq	r0, [r4], -r1, lsl #10
     564:	05015903 	streq	r5, [r1, #-2307]	; 0xfffff6fd
     568:	14051305 	strne	r1, [r5], #-773	; 0xfffffcfb
     56c:	15050511 	strne	r0, [r5, #-1297]	; 0xfffffaef
     570:	01310513 	teqeq	r1, r3, lsl r5
     574:	05010b05 	streq	r0, [r1, #-2821]	; 0xfffff4fb
     578:	2e01010c 	adfcss	f0, f1, #4.0
     57c:	01061d05 	tsteq	r6, r5, lsl #26
     580:	4a2e0b05 	bmi	b8319c <__bss_end__+0xb791ac>
     584:	03061c05 	movweq	r1, #27653	; 0x6c05
     588:	050100d6 	streq	r0, [r1, #-214]	; 0xffffff2a
     58c:	2e010605 	cfmadd32cs	mvax0, mvfx0, mvfx1, mvfx5
     590:	0501042e 	streq	r0, [r1, #-1070]	; 0xfffffbd2
     594:	04020024 	streq	r0, [r2], #-36	; 0xffffffdc
     598:	c6030603 	strgt	r0, [r3], -r3, lsl #12
     59c:	1505017e 	strne	r0, [r5, #-382]	; 0xfffffe82
     5a0:	03040200 	movweq	r0, #16896	; 0x4200
     5a4:	00050501 	andeq	r0, r5, r1, lsl #10
     5a8:	06030402 	streq	r0, [r3], -r2, lsl #8
     5ac:	044e062e 	strbeq	r0, [lr], #-1582	; 0xfffff9d2
     5b0:	03140502 	tsteq	r4, #8388608	; 0x800000
     5b4:	050101a1 	streq	r0, [r1, #-417]	; 0xfffffe5f
     5b8:	14051305 	strne	r1, [r5], #-773	; 0xfffffcfb
     5bc:	05017603 	streq	r7, [r1, #-1539]	; 0xfffff9fd
     5c0:	14051305 	strne	r1, [r5], #-773	; 0xfffffcfb
     5c4:	05016703 	streq	r6, [r1, #-1795]	; 0xfffff8fd
     5c8:	14051405 	strne	r1, [r5], #-1029	; 0xfffffbfb
     5cc:	05015403 	streq	r5, [r1, #-1027]	; 0xfffffbfd
     5d0:	05131305 	ldreq	r1, [r3, #-773]	; 0xfffffcfb
     5d4:	4a01060b 	bmi	41e08 <__bss_end__+0x37e18>
     5d8:	03060505 	movweq	r0, #25861	; 0x6505
     5dc:	1305012b 	movwne	r0, #20779	; 0x512b
     5e0:	062e0101 	strteq	r0, [lr], -r1, lsl #2
     5e4:	06140501 	ldreq	r0, [r4], -r1, lsl #10
     5e8:	05015903 	streq	r5, [r1, #-2307]	; 0xfffff6fd
     5ec:	14051305 	strne	r1, [r5], #-773	; 0xfffffcfb
     5f0:	15050511 	strne	r0, [r5, #-1297]	; 0xfffffaef
     5f4:	060b0513 			; <UNDEFINED> instruction: 0x060b0513
     5f8:	06310501 	ldrteq	r0, [r1], -r1, lsl #10
     5fc:	010b052e 	tsteq	fp, lr, lsr #10
     600:	01010c05 	tsteq	r1, r5, lsl #24
     604:	061d052e 	ldreq	r0, [sp], -lr, lsr #10
     608:	2e0b0501 	cfsh32cs	mvfx0, mvfx11, #1
     60c:	0501044a 	streq	r0, [r1, #-1098]	; 0xfffffbb6
     610:	a1030605 	tstge	r3, r5, lsl #12
     614:	0105017f 	tsteq	r5, pc, ror r1
     618:	05051306 	streq	r1, [r5, #-774]	; 0xfffffcfa
     61c:	02044a2d 	andeq	r4, r4, #184320	; 0x2d000
     620:	03060905 	movweq	r0, #26885	; 0x6905
     624:	052e01aa 	streq	r0, [lr, #-426]!	; 0xfffffe56
     628:	01610314 	cmneq	r1, r4, lsl r3
     62c:	05130505 	ldreq	r0, [r3, #-1285]	; 0xfffffafb
     630:	016b0314 	cmneq	fp, r4, lsl r3
     634:	05140505 	ldreq	r0, [r4, #-1285]	; 0xfffffafb
     638:	01570314 	cmpeq	r7, r4, lsl r3
     63c:	13130505 	tstne	r3, #20971520	; 0x1400000
     640:	03060106 	movweq	r0, #24838	; 0x6106
     644:	13050128 	movwne	r0, #20776	; 0x5128
     648:	062e0101 	strteq	r0, [lr], -r1, lsl #2
     64c:	06140501 	ldreq	r0, [r4], -r1, lsl #10
     650:	05016103 	streq	r6, [r1, #-259]	; 0xfffffefd
     654:	14051305 	strne	r1, [r5], #-773	; 0xfffffcfb
     658:	15050511 	strne	r0, [r5, #-1297]	; 0xfffffaef
     65c:	01310513 	teqeq	r1, r3, lsl r5
     660:	05010b05 	streq	r0, [r1, #-2821]	; 0xfffff4fb
     664:	2e01010c 	adfcss	f0, f1, #4.0
     668:	01061d05 	tsteq	r6, r5, lsl #26
     66c:	4a2e0b05 	bmi	b83288 <__bss_end__+0xb79298>
     670:	03060905 	movweq	r0, #26885	; 0x6905
     674:	050100cc 	streq	r0, [r1, #-204]	; 0xffffff34
     678:	01680314 	cmneq	r8, r4, lsl r3
     67c:	05130505 	ldreq	r0, [r3, #-1285]	; 0xfffffafb
     680:	016b0314 	cmneq	fp, r4, lsl r3
     684:	05140505 	ldreq	r0, [r4, #-1285]	; 0xfffffafb
     688:	01540314 	cmpeq	r4, r4, lsl r3
     68c:	13130505 	tstne	r3, #20971520	; 0x1400000
     690:	01060b05 	tsteq	r6, r5, lsl #22
     694:	0605052e 	streq	r0, [r5], -lr, lsr #10
     698:	05012b03 	streq	r2, [r1, #-2819]	; 0xfffff4fd
     69c:	2e010113 	mcrcs	1, 0, r0, cr1, cr3, {0}
     6a0:	14050106 	strne	r0, [r5], #-262	; 0xfffffefa
     6a4:	01590306 	cmpeq	r9, r6, lsl #6
     6a8:	05130505 	ldreq	r0, [r3, #-1285]	; 0xfffffafb
     6ac:	05051114 	streq	r1, [r5, #-276]	; 0xfffffeec
     6b0:	31051315 	tstcc	r5, r5, lsl r3
     6b4:	010b0501 	tsteq	fp, r1, lsl #10
     6b8:	01010c05 	tsteq	r1, r5, lsl #24
     6bc:	061d052e 	ldreq	r0, [sp], -lr, lsr #10
     6c0:	2e0b0501 	cfsh32cs	mvfx0, mvfx11, #1
     6c4:	061c054a 	ldreq	r0, [ip], -sl, asr #10
     6c8:	0100d603 	tsteq	r0, r3, lsl #12
     6cc:	01060505 	tsteq	r6, r5, lsl #10
     6d0:	09054a2e 	stmdbeq	r5, {r1, r2, r3, r5, r9, fp, lr}
     6d4:	01750306 	cmneq	r5, r6, lsl #6
     6d8:	61031405 	tstvs	r3, r5, lsl #8
     6dc:	13050501 	movwne	r0, #21761	; 0x5501
     6e0:	6b031405 	blvs	c56fc <__bss_end__+0xbb70c>
     6e4:	14050501 	strne	r0, [r5], #-1281	; 0xfffffaff
     6e8:	57031405 	strpl	r1, [r3, -r5, lsl #8]
     6ec:	13050501 	movwne	r0, #21761	; 0x5501
     6f0:	06010613 			; <UNDEFINED> instruction: 0x06010613
     6f4:	05012803 	streq	r2, [r1, #-2051]	; 0xfffff7fd
     6f8:	2e010113 	mcrcs	1, 0, r0, cr1, cr3, {0}
     6fc:	14050106 	strne	r0, [r5], #-262	; 0xfffffefa
     700:	01610306 	cmneq	r1, r6, lsl #6
     704:	05130505 	ldreq	r0, [r3, #-1285]	; 0xfffffafb
     708:	05051114 	streq	r1, [r5, #-276]	; 0xfffffeec
     70c:	31051315 	tstcc	r5, r5, lsl r3
     710:	010b0501 	tsteq	fp, r1, lsl #10
     714:	01010c05 	tsteq	r1, r5, lsl #24
     718:	061d052e 	ldreq	r0, [sp], -lr, lsr #10
     71c:	2e0b0501 	cfsh32cs	mvfx0, mvfx11, #1
     720:	0609054a 	streq	r0, [r9], -sl, asr #10
     724:	0100cc03 	tsteq	r0, r3, lsl #24
     728:	68031405 	stmdavs	r3, {r0, r2, sl, ip}
     72c:	13050501 	movwne	r0, #21761	; 0x5501
     730:	6b031405 	blvs	c574c <__bss_end__+0xbb75c>
     734:	14050501 	strne	r0, [r5], #-1281	; 0xfffffaff
     738:	54031405 	strpl	r1, [r3], #-1029	; 0xfffffbfb
     73c:	13050501 	movwne	r0, #21761	; 0x5501
     740:	060b0513 			; <UNDEFINED> instruction: 0x060b0513
     744:	05052e01 	streq	r2, [r5, #-3585]	; 0xfffff1ff
     748:	012b0306 			; <UNDEFINED> instruction: 0x012b0306
     74c:	01011305 	tsteq	r1, r5, lsl #6
     750:	0501062e 	streq	r0, [r1, #-1582]	; 0xfffff9d2
     754:	59030614 	stmdbpl	r3, {r2, r4, r9, sl}
     758:	13050501 	movwne	r0, #21761	; 0x5501
     75c:	05111405 	ldreq	r1, [r1, #-1029]	; 0xfffffbfb
     760:	05131505 	ldreq	r1, [r3, #-1285]	; 0xfffffafb
     764:	0b050131 	bleq	140c30 <__bss_end__+0x136c40>
     768:	010c0501 	tsteq	ip, r1, lsl #10
     76c:	1d052e01 	stcne	14, cr2, [r5, #-4]
     770:	0b050106 	bleq	140b90 <__bss_end__+0x136ba0>
     774:	1c054a2e 			; <UNDEFINED> instruction: 0x1c054a2e
     778:	00d60306 	sbcseq	r0, r6, r6, lsl #6
     77c:	06050501 	streq	r0, [r5], -r1, lsl #10
     780:	054a2e01 	strbeq	r2, [sl, #-3585]	; 0xfffff1ff
     784:	75030609 	strvc	r0, [r3, #-1545]	; 0xfffff9f7
     788:	03140501 	tsteq	r4, #4194304	; 0x400000
     78c:	05050161 	streq	r0, [r5, #-353]	; 0xfffffe9f
     790:	03140513 	tsteq	r4, #79691776	; 0x4c00000
     794:	0505016b 	streq	r0, [r5, #-363]	; 0xfffffe95
     798:	03140514 	tsteq	r4, #20, 10	; 0x5000000
     79c:	05050157 	streq	r0, [r5, #-343]	; 0xfffffea9
     7a0:	01061313 	tsteq	r6, r3, lsl r3
     7a4:	01280306 			; <UNDEFINED> instruction: 0x01280306
     7a8:	01011305 	tsteq	r1, r5, lsl #6
     7ac:	0501062e 	streq	r0, [r1, #-1582]	; 0xfffff9d2
     7b0:	61030614 	tstvs	r3, r4, lsl r6
     7b4:	13050501 	movwne	r0, #21761	; 0x5501
     7b8:	05111405 	ldreq	r1, [r1, #-1029]	; 0xfffffbfb
     7bc:	05131505 	ldreq	r1, [r3, #-1285]	; 0xfffffafb
     7c0:	0b050131 	bleq	140c8c <__bss_end__+0x136c9c>
     7c4:	010c0501 	tsteq	ip, r1, lsl #10
     7c8:	1d052e01 	stcne	14, cr2, [r5, #-4]
     7cc:	0b050106 	bleq	140bec <__bss_end__+0x136bfc>
     7d0:	09054a2e 	stmdbeq	r5, {r1, r2, r3, r5, r9, fp, lr}
     7d4:	00cc0306 	sbceq	r0, ip, r6, lsl #6
     7d8:	03140501 	tsteq	r4, #4194304	; 0x400000
     7dc:	05050168 	streq	r0, [r5, #-360]	; 0xfffffe98
     7e0:	03140513 	tsteq	r4, #79691776	; 0x4c00000
     7e4:	0505016b 	streq	r0, [r5, #-363]	; 0xfffffe95
     7e8:	03140514 	tsteq	r4, #20, 10	; 0x5000000
     7ec:	05050154 	streq	r0, [r5, #-340]	; 0xfffffeac
     7f0:	0b051313 	bleq	145444 <__bss_end__+0x13b454>
     7f4:	052e0106 	streq	r0, [lr, #-262]!	; 0xfffffefa
     7f8:	2b030605 	blcs	c2014 <__bss_end__+0xb8024>
     7fc:	01130501 	tsteq	r3, r1, lsl #10
     800:	01062e01 	tsteq	r6, r1, lsl #28
     804:	03061405 	movweq	r1, #25605	; 0x6405
     808:	05050159 	streq	r0, [r5, #-345]	; 0xfffffea7
     80c:	11140513 	tstne	r4, r3, lsl r5
     810:	13150505 	tstne	r5, #20971520	; 0x1400000
     814:	05013105 	streq	r3, [r1, #-261]	; 0xfffffefb
     818:	0c05010b 	stfeqs	f0, [r5], {11}
     81c:	052e0101 	streq	r0, [lr, #-257]!	; 0xfffffeff
     820:	0501061d 	streq	r0, [r1, #-1565]	; 0xfffff9e3
     824:	054a2e0b 	strbeq	r2, [sl, #-3595]	; 0xfffff1f5
     828:	d603061c 			; <UNDEFINED> instruction: 0xd603061c
     82c:	05050100 	streq	r0, [r5, #-256]	; 0xffffff00
     830:	4a2e0106 	bmi	b80c50 <__bss_end__+0xb76c60>
     834:	03060104 	movweq	r0, #24836	; 0x6104
     838:	04667eca 	strbteq	r7, [r6], #-3786	; 0xfffff136
     83c:	03140502 	tsteq	r4, #8388608	; 0x800000
     840:	050101a1 	streq	r0, [r1, #-417]	; 0xfffffe5f
     844:	14051305 	strne	r1, [r5], #-773	; 0xfffffcfb
     848:	05017603 	streq	r7, [r1, #-1539]	; 0xfffff9fd
     84c:	14051305 	strne	r1, [r5], #-773	; 0xfffffcfb
     850:	05016703 	streq	r6, [r1, #-1795]	; 0xfffff8fd
     854:	14051405 	strne	r1, [r5], #-1029	; 0xfffffbfb
     858:	05015403 	streq	r5, [r1, #-1027]	; 0xfffffbfd
     85c:	05131305 	ldreq	r1, [r3, #-773]	; 0xfffffcfb
     860:	4a01060b 	bmi	42094 <__bss_end__+0x380a4>
     864:	03060505 	movweq	r0, #25861	; 0x6505
     868:	1305012b 	movwne	r0, #20779	; 0x512b
     86c:	062e0101 	strteq	r0, [lr], -r1, lsl #2
     870:	06140501 	ldreq	r0, [r4], -r1, lsl #10
     874:	05015903 	streq	r5, [r1, #-2307]	; 0xfffff6fd
     878:	14051305 	strne	r1, [r5], #-773	; 0xfffffcfb
     87c:	15050511 	strne	r0, [r5, #-1297]	; 0xfffffaef
     880:	060b0513 			; <UNDEFINED> instruction: 0x060b0513
     884:	06310501 	ldrteq	r0, [r1], -r1, lsl #10
     888:	010b052e 	tsteq	fp, lr, lsr #10
     88c:	01010c05 	tsteq	r1, r5, lsl #24
     890:	061d052e 	ldreq	r0, [sp], -lr, lsr #10
     894:	2e0b0501 	cfsh32cs	mvfx0, mvfx11, #1
     898:	0501044a 	streq	r0, [r1, #-1098]	; 0xfffffbb6
     89c:	a1030605 	tstge	r3, r5, lsl #12
     8a0:	4a06017f 	bmi	180ea4 <__bss_end__+0x176eb4>
     8a4:	0631052e 	ldrteq	r0, [r1], -lr, lsr #10
     8a8:	a8020500 	stmdage	r2, {r8, sl}
     8ac:	15000083 	strne	r0, [r0, #-131]	; 0xffffff7d
     8b0:	13130505 	tstne	r3, #20971520	; 0x1400000
     8b4:	10063105 	andne	r3, r6, r5, lsl #2
     8b8:	3137052e 	teqcc	r7, lr, lsr #10
     8bc:	052e0e05 	streq	r0, [lr, #-3589]!	; 0xfffff1fb
     8c0:	05052b31 	streq	r2, [r5, #-2865]	; 0xfffff4cf
     8c4:	132f0630 			; <UNDEFINED> instruction: 0x132f0630
     8c8:	01060905 	tsteq	r6, r5, lsl #18
     8cc:	67060505 	strvs	r0, [r6, -r5, lsl #10]
     8d0:	05140668 	ldreq	r0, [r4, #-1640]	; 0xfffff998
     8d4:	05052c0f 	streq	r2, [r5, #-3087]	; 0xfffff3f1
     8d8:	0c052f06 	stceq	15, cr2, [r5], {6}
     8dc:	05050106 	streq	r0, [r5, #-262]	; 0xfffffefa
     8e0:	052f2f06 	streq	r2, [pc, #-3846]!	; fffff9e2 <__bss_end__+0xffff59f2>
     8e4:	05130601 	ldreq	r0, [r3, #-1537]	; 0xfffff9ff
     8e8:	054d0641 	strbeq	r0, [sp, #-1601]	; 0xfffff9bf
     8ec:	41051305 	tstmi	r5, r5, lsl #6
     8f0:	02041106 	andeq	r1, r4, #-2147483647	; 0x80000001
     8f4:	c1030e05 	tstgt	r3, r5, lsl #28
     8f8:	052e2e00 	streq	r2, [lr, #-3584]!	; 0xfffff200
     8fc:	e9030614 	stmdb	r3, {r2, r4, r9, sl}
     900:	05050100 	streq	r0, [r5, #-256]	; 0xffffff00
     904:	030d0517 	movweq	r0, #54551	; 0xd517
     908:	05050174 	streq	r0, [r5, #-372]	; 0xfffffe8c
     90c:	010a0513 	tsteq	sl, r3, lsl r5
     910:	05011505 	streq	r1, [r1, #-1285]	; 0xfffffafb
     914:	0401060e 	streq	r0, [r1], #-1550	; 0xfffff9f2
     918:	03050501 	movweq	r0, #21761	; 0x5501
     91c:	042e7edd 	strteq	r7, [lr], #-3805	; 0xfffff123
     920:	030b0502 	movweq	r0, #46338	; 0xb502
     924:	052e00c0 	streq	r0, [lr, #-192]!	; 0xffffff40
     928:	052e2e0e 	streq	r2, [lr, #-3598]!	; 0xfffff1f2
     92c:	e4030609 	str	r0, [r3], #-1545	; 0xfffff9f7
     930:	14050100 	strne	r0, [r5], #-256	; 0xffffff00
     934:	05016f03 	streq	r6, [r1, #-3843]	; 0xfffff0fd
     938:	1c051305 	stcne	3, cr1, [r5], {5}
     93c:	01100306 	tsteq	r0, r6, lsl #6
     940:	70030805 	andvc	r0, r3, r5, lsl #16
     944:	030b052e 	movweq	r0, #46382	; 0xb52e
     948:	052e7fac 	streq	r7, [lr, #-4012]!	; 0xfffff054
     94c:	00d40308 	sbcseq	r0, r4, r8, lsl #6
     950:	0609052e 	streq	r0, [r9], -lr, lsr #10
     954:	0314052f 	tsteq	r4, #197132288	; 0xbc00000
     958:	0505015f 	streq	r0, [r5, #-351]	; 0xfffffea1
     95c:	03140513 	tsteq	r4, #79691776	; 0x4c00000
     960:	05050170 	streq	r0, [r5, #-368]	; 0xfffffe90
     964:	03140514 	tsteq	r4, #20, 10	; 0x5000000
     968:	05050157 	streq	r0, [r5, #-343]	; 0xfffffea9
     96c:	01061313 	tsteq	r6, r3, lsl r3
     970:	01280306 			; <UNDEFINED> instruction: 0x01280306
     974:	01011305 	tsteq	r1, r5, lsl #6
     978:	0501062e 	streq	r0, [r1, #-1582]	; 0xfffff9d2
     97c:	61030614 	tstvs	r3, r4, lsl r6
     980:	13050501 	movwne	r0, #21761	; 0x5501
     984:	05111405 	ldreq	r1, [r1, #-1029]	; 0xfffffbfb
     988:	05131505 	ldreq	r1, [r3, #-1285]	; 0xfffffafb
     98c:	0b050131 	bleq	140e58 <__bss_end__+0x136e68>
     990:	010c0501 	tsteq	ip, r1, lsl #10
     994:	1d052e01 	stcne	14, cr2, [r5, #-4]
     998:	0b050106 	bleq	140db8 <__bss_end__+0x136dc8>
     99c:	09054a2e 	stmdbeq	r5, {r1, r2, r3, r5, r9, fp, lr}
     9a0:	00c90306 	sbceq	r0, r9, r6, lsl #6
     9a4:	03140501 	tsteq	r4, #4194304	; 0x400000
     9a8:	05050167 	streq	r0, [r5, #-359]	; 0xfffffe99
     9ac:	03140513 	tsteq	r4, #79691776	; 0x4c00000
     9b0:	0505016f 	streq	r0, [r5, #-367]	; 0xfffffe91
     9b4:	03140514 	tsteq	r4, #20, 10	; 0x5000000
     9b8:	05050154 	streq	r0, [r5, #-340]	; 0xfffffeac
     9bc:	0b051313 	bleq	145610 <__bss_end__+0x13b620>
     9c0:	052e0106 	streq	r0, [lr, #-262]!	; 0xfffffefa
     9c4:	2b030605 	blcs	c21e0 <__bss_end__+0xb81f0>
     9c8:	01130501 	tsteq	r3, r1, lsl #10
     9cc:	01062e01 	tsteq	r6, r1, lsl #28
     9d0:	03061405 	movweq	r1, #25605	; 0x6405
     9d4:	05050159 	streq	r0, [r5, #-345]	; 0xfffffea7
     9d8:	11140513 	tstne	r4, r3, lsl r5
     9dc:	13150505 	tstne	r5, #20971520	; 0x1400000
     9e0:	05013105 	streq	r3, [r1, #-261]	; 0xfffffefb
     9e4:	0c05010b 	stfeqs	f0, [r5], {11}
     9e8:	052e0101 	streq	r0, [lr, #-257]!	; 0xfffffeff
     9ec:	0501061d 	streq	r0, [r1, #-1565]	; 0xfffff9e3
     9f0:	054a2e0b 	strbeq	r2, [sl, #-3595]	; 0xfffff1f5
     9f4:	d603061c 			; <UNDEFINED> instruction: 0xd603061c
     9f8:	05050100 	streq	r0, [r5, #-256]	; 0xffffff00
     9fc:	2e2e0106 	sufcse	f0, f6, f6
     a00:	05010e05 	streq	r0, [r1, #-3589]	; 0xfffff1fb
     a04:	7f9d030b 	svcvc	0x009d030b
     a08:	09052e2e 	stmdbeq	r5, {r1, r2, r3, r5, r9, sl, fp, sp}
     a0c:	00e40306 	rsceq	r0, r4, r6, lsl #6
     a10:	03140501 	tsteq	r4, #4194304	; 0x400000
     a14:	0505016f 	streq	r0, [r5, #-367]	; 0xfffffe91
     a18:	061c0513 			; <UNDEFINED> instruction: 0x061c0513
     a1c:	05011003 	streq	r1, [r1, #-3]
     a20:	2e700308 	cdpcs	3, 7, cr0, cr0, cr8, {0}
     a24:	ac030b05 			; <UNDEFINED> instruction: 0xac030b05
     a28:	08052e7f 	stmdaeq	r5, {r0, r1, r2, r3, r4, r5, r6, r9, sl, fp, sp}
     a2c:	2e00d403 	cdpcs	4, 0, cr13, cr0, cr3, {0}
     a30:	2f060905 	svccs	0x00060905
     a34:	5f031405 	svcpl	0x00031405
     a38:	13050501 	movwne	r0, #21761	; 0x5501
     a3c:	70031405 	andvc	r1, r3, r5, lsl #8
     a40:	14050501 	strne	r0, [r5], #-1281	; 0xfffffaff
     a44:	57031405 	strpl	r1, [r3, -r5, lsl #8]
     a48:	13050501 	movwne	r0, #21761	; 0x5501
     a4c:	06010613 			; <UNDEFINED> instruction: 0x06010613
     a50:	05012803 	streq	r2, [r1, #-2051]	; 0xfffff7fd
     a54:	2e010113 	mcrcs	1, 0, r0, cr1, cr3, {0}
     a58:	14050106 	strne	r0, [r5], #-262	; 0xfffffefa
     a5c:	01610306 	cmneq	r1, r6, lsl #6
     a60:	05130505 	ldreq	r0, [r3, #-1285]	; 0xfffffafb
     a64:	05051114 	streq	r1, [r5, #-276]	; 0xfffffeec
     a68:	31051315 	tstcc	r5, r5, lsl r3
     a6c:	010b0501 	tsteq	fp, r1, lsl #10
     a70:	01010c05 	tsteq	r1, r5, lsl #24
     a74:	061d052e 	ldreq	r0, [sp], -lr, lsr #10
     a78:	2e0b0501 	cfsh32cs	mvfx0, mvfx11, #1
     a7c:	0609054a 	streq	r0, [r9], -sl, asr #10
     a80:	0100c903 	tsteq	r0, r3, lsl #18
     a84:	67031405 	strvs	r1, [r3, -r5, lsl #8]
     a88:	13050501 	movwne	r0, #21761	; 0x5501
     a8c:	6f031405 	svcvs	0x00031405
     a90:	14050501 	strne	r0, [r5], #-1281	; 0xfffffaff
     a94:	54031405 	strpl	r1, [r3], #-1029	; 0xfffffbfb
     a98:	13050501 	movwne	r0, #21761	; 0x5501
     a9c:	060b0513 			; <UNDEFINED> instruction: 0x060b0513
     aa0:	05052e01 	streq	r2, [r5, #-3585]	; 0xfffff1ff
     aa4:	012b0306 			; <UNDEFINED> instruction: 0x012b0306
     aa8:	01011305 	tsteq	r1, r5, lsl #6
     aac:	0501062e 	streq	r0, [r1, #-1582]	; 0xfffff9d2
     ab0:	59030614 	stmdbpl	r3, {r2, r4, r9, sl}
     ab4:	13050501 	movwne	r0, #21761	; 0x5501
     ab8:	05111405 	ldreq	r1, [r1, #-1029]	; 0xfffffbfb
     abc:	05131505 	ldreq	r1, [r3, #-1285]	; 0xfffffafb
     ac0:	0b050131 	bleq	140f8c <__bss_end__+0x136f9c>
     ac4:	010c0501 	tsteq	ip, r1, lsl #10
     ac8:	1d052e01 	stcne	14, cr2, [r5, #-4]
     acc:	0b050106 	bleq	140eec <__bss_end__+0x136efc>
     ad0:	1c054a2e 			; <UNDEFINED> instruction: 0x1c054a2e
     ad4:	00d60306 	sbcseq	r0, r6, r6, lsl #6
     ad8:	06050501 	streq	r0, [r5], -r1, lsl #10
     adc:	052e2e01 	streq	r2, [lr, #-3585]!	; 0xfffff1ff
     ae0:	0905010e 	stmdbeq	r5, {r1, r2, r3, r8}
     ae4:	14052f06 	strne	r2, [r5], #-3846	; 0xfffff0fa
     ae8:	05016f03 	streq	r6, [r1, #-3843]	; 0xfffff0fd
     aec:	0b051305 	bleq	145708 <__bss_end__+0x13b718>
     af0:	7fac0306 	svcvc	0x00ac0306
     af4:	031c0501 	tsteq	ip, #4194304	; 0x400000
     af8:	052e00e4 	streq	r0, [lr, #-228]!	; 0xffffff1c
     afc:	2e700308 	cdpcs	3, 7, cr0, cr0, cr8, {0}
     b00:	ac030b05 			; <UNDEFINED> instruction: 0xac030b05
     b04:	08052e7f 	stmdaeq	r5, {r0, r1, r2, r3, r4, r5, r6, r9, sl, fp, sp}
     b08:	2e00d403 	cdpcs	4, 0, cr13, cr0, cr3, {0}
     b0c:	2f060905 	svccs	0x00060905
     b10:	5f031405 	svcpl	0x00031405
     b14:	13050501 	movwne	r0, #21761	; 0x5501
     b18:	70031405 	andvc	r1, r3, r5, lsl #8
     b1c:	14050501 	strne	r0, [r5], #-1281	; 0xfffffaff
     b20:	57031405 	strpl	r1, [r3, -r5, lsl #8]
     b24:	13050501 	movwne	r0, #21761	; 0x5501
     b28:	06010613 			; <UNDEFINED> instruction: 0x06010613
     b2c:	05012803 	streq	r2, [r1, #-2051]	; 0xfffff7fd
     b30:	2e010113 	mcrcs	1, 0, r0, cr1, cr3, {0}
     b34:	14050106 	strne	r0, [r5], #-262	; 0xfffffefa
     b38:	01610306 	cmneq	r1, r6, lsl #6
     b3c:	05130505 	ldreq	r0, [r3, #-1285]	; 0xfffffafb
     b40:	05051114 	streq	r1, [r5, #-276]	; 0xfffffeec
     b44:	31051315 	tstcc	r5, r5, lsl r3
     b48:	010b0501 	tsteq	fp, r1, lsl #10
     b4c:	01010c05 	tsteq	r1, r5, lsl #24
     b50:	061d052e 	ldreq	r0, [sp], -lr, lsr #10
     b54:	2e0b0501 	cfsh32cs	mvfx0, mvfx11, #1
     b58:	0609054a 	streq	r0, [r9], -sl, asr #10
     b5c:	0100c903 	tsteq	r0, r3, lsl #18
     b60:	67031405 	strvs	r1, [r3, -r5, lsl #8]
     b64:	13050501 	movwne	r0, #21761	; 0x5501
     b68:	6f031405 	svcvs	0x00031405
     b6c:	14050501 	strne	r0, [r5], #-1281	; 0xfffffaff
     b70:	54031405 	strpl	r1, [r3], #-1029	; 0xfffffbfb
     b74:	13050501 	movwne	r0, #21761	; 0x5501
     b78:	060b0513 			; <UNDEFINED> instruction: 0x060b0513
     b7c:	05052e01 	streq	r2, [r5, #-3585]	; 0xfffff1ff
     b80:	012b0306 			; <UNDEFINED> instruction: 0x012b0306
     b84:	01011305 	tsteq	r1, r5, lsl #6
     b88:	0501062e 	streq	r0, [r1, #-1582]	; 0xfffff9d2
     b8c:	59030614 	stmdbpl	r3, {r2, r4, r9, sl}
     b90:	13050501 	movwne	r0, #21761	; 0x5501
     b94:	05111405 	ldreq	r1, [r1, #-1029]	; 0xfffffbfb
     b98:	05131505 	ldreq	r1, [r3, #-1285]	; 0xfffffafb
     b9c:	0b050131 	bleq	141068 <__bss_end__+0x137078>
     ba0:	010c0501 	tsteq	ip, r1, lsl #10
     ba4:	1d052e01 	stcne	14, cr2, [r5, #-4]
     ba8:	0b050106 	bleq	140fc8 <__bss_end__+0x136fd8>
     bac:	1c054a2e 			; <UNDEFINED> instruction: 0x1c054a2e
     bb0:	00d60306 	sbcseq	r0, r6, r6, lsl #6
     bb4:	06050501 	streq	r0, [r5], -r1, lsl #10
     bb8:	09052e01 	stmdbeq	r5, {r0, r9, sl, fp, sp}
     bbc:	14052f06 	strne	r2, [r5], #-3846	; 0xfffff0fa
     bc0:	05016f03 	streq	r6, [r1, #-3843]	; 0xfffff0fd
     bc4:	1c051305 	stcne	3, cr1, [r5], {5}
     bc8:	01100306 	tsteq	r0, r6, lsl #6
     bcc:	70030805 	andvc	r0, r3, r5, lsl #16
     bd0:	030b052e 	movweq	r0, #46382	; 0xb52e
     bd4:	052e7fac 	streq	r7, [lr, #-4012]!	; 0xfffff054
     bd8:	00d40308 	sbcseq	r0, r4, r8, lsl #6
     bdc:	0609052e 	streq	r0, [r9], -lr, lsr #10
     be0:	03140532 	tsteq	r4, #209715200	; 0xc800000
     be4:	05050161 	streq	r0, [r5, #-353]	; 0xfffffe9f
     be8:	03140513 	tsteq	r4, #79691776	; 0x4c00000
     bec:	0505016b 	streq	r0, [r5, #-363]	; 0xfffffe95
     bf0:	03140514 	tsteq	r4, #20, 10	; 0x5000000
     bf4:	05050157 	streq	r0, [r5, #-343]	; 0xfffffea9
     bf8:	01061313 	tsteq	r6, r3, lsl r3
     bfc:	01280306 			; <UNDEFINED> instruction: 0x01280306
     c00:	01011305 	tsteq	r1, r5, lsl #6
     c04:	0501062e 	streq	r0, [r1, #-1582]	; 0xfffff9d2
     c08:	61030614 	tstvs	r3, r4, lsl r6
     c0c:	13050501 	movwne	r0, #21761	; 0x5501
     c10:	05111405 	ldreq	r1, [r1, #-1029]	; 0xfffffbfb
     c14:	05131505 	ldreq	r1, [r3, #-1285]	; 0xfffffafb
     c18:	0b050131 	bleq	1410e4 <__bss_end__+0x1370f4>
     c1c:	010c0501 	tsteq	ip, r1, lsl #10
     c20:	1d052e01 	stcne	14, cr2, [r5, #-4]
     c24:	0b050106 	bleq	141044 <__bss_end__+0x137054>
     c28:	09054a2e 	stmdbeq	r5, {r1, r2, r3, r5, r9, fp, lr}
     c2c:	00cc0306 	sbceq	r0, ip, r6, lsl #6
     c30:	03140501 	tsteq	r4, #4194304	; 0x400000
     c34:	05050168 	streq	r0, [r5, #-360]	; 0xfffffe98
     c38:	03140513 	tsteq	r4, #79691776	; 0x4c00000
     c3c:	0505016b 	streq	r0, [r5, #-363]	; 0xfffffe95
     c40:	03140514 	tsteq	r4, #20, 10	; 0x5000000
     c44:	05050154 	streq	r0, [r5, #-340]	; 0xfffffeac
     c48:	0b051313 	bleq	14589c <__bss_end__+0x13b8ac>
     c4c:	052e0106 	streq	r0, [lr, #-262]!	; 0xfffffefa
     c50:	2b030605 	blcs	c246c <__bss_end__+0xb847c>
     c54:	01130501 	tsteq	r3, r1, lsl #10
     c58:	01062e01 	tsteq	r6, r1, lsl #28
     c5c:	03061405 	movweq	r1, #25605	; 0x6405
     c60:	05050159 	streq	r0, [r5, #-345]	; 0xfffffea7
     c64:	11140513 	tstne	r4, r3, lsl r5
     c68:	13150505 	tstne	r5, #20971520	; 0x1400000
     c6c:	05013105 	streq	r3, [r1, #-261]	; 0xfffffefb
     c70:	0c05010b 	stfeqs	f0, [r5], {11}
     c74:	052e0101 	streq	r0, [lr, #-257]!	; 0xfffffeff
     c78:	0501061d 	streq	r0, [r1, #-1565]	; 0xfffff9e3
     c7c:	054a2e0b 	strbeq	r2, [sl, #-3595]	; 0xfffff1f5
     c80:	d603061c 			; <UNDEFINED> instruction: 0xd603061c
     c84:	05050100 	streq	r0, [r5, #-256]	; 0xffffff00
     c88:	4a2e0106 	bmi	b810a8 <__bss_end__+0xb770b8>
     c8c:	03060905 	movweq	r0, #26885	; 0x6905
     c90:	14050175 	strne	r0, [r5], #-373	; 0xfffffe8b
     c94:	05016103 	streq	r6, [r1, #-259]	; 0xfffffefd
     c98:	14051305 	strne	r1, [r5], #-773	; 0xfffffcfb
     c9c:	05016b03 	streq	r6, [r1, #-2819]	; 0xfffff4fd
     ca0:	14051405 	strne	r1, [r5], #-1029	; 0xfffffbfb
     ca4:	05015703 	streq	r5, [r1, #-1795]	; 0xfffff8fd
     ca8:	06131305 	ldreq	r1, [r3], -r5, lsl #6
     cac:	28030601 	stmdacs	r3, {r0, r9, sl}
     cb0:	01130501 	tsteq	r3, r1, lsl #10
     cb4:	01062e01 	tsteq	r6, r1, lsl #28
     cb8:	03061405 	movweq	r1, #25605	; 0x6405
     cbc:	05050161 	streq	r0, [r5, #-353]	; 0xfffffe9f
     cc0:	11140513 	tstne	r4, r3, lsl r5
     cc4:	13150505 	tstne	r5, #20971520	; 0x1400000
     cc8:	05013105 	streq	r3, [r1, #-261]	; 0xfffffefb
     ccc:	0c05010b 	stfeqs	f0, [r5], {11}
     cd0:	052e0101 	streq	r0, [lr, #-257]!	; 0xfffffeff
     cd4:	0501061d 	streq	r0, [r1, #-1565]	; 0xfffff9e3
     cd8:	054a2e0b 	strbeq	r2, [sl, #-3595]	; 0xfffff1f5
     cdc:	cc030609 	stcgt	6, cr0, [r3], {9}
     ce0:	14050100 	strne	r0, [r5], #-256	; 0xffffff00
     ce4:	05016803 	streq	r6, [r1, #-2051]	; 0xfffff7fd
     ce8:	14051305 	strne	r1, [r5], #-773	; 0xfffffcfb
     cec:	05016b03 	streq	r6, [r1, #-2819]	; 0xfffff4fd
     cf0:	14051405 	strne	r1, [r5], #-1029	; 0xfffffbfb
     cf4:	05015403 	streq	r5, [r1, #-1027]	; 0xfffffbfd
     cf8:	05131305 	ldreq	r1, [r3, #-773]	; 0xfffffcfb
     cfc:	2e01060b 	cfmadd32cs	mvax0, mvfx0, mvfx1, mvfx11
     d00:	03060505 	movweq	r0, #25861	; 0x6505
     d04:	1305012b 	movwne	r0, #20779	; 0x512b
     d08:	062e0101 	strteq	r0, [lr], -r1, lsl #2
     d0c:	06140501 	ldreq	r0, [r4], -r1, lsl #10
     d10:	05015903 	streq	r5, [r1, #-2307]	; 0xfffff6fd
     d14:	14051305 	strne	r1, [r5], #-773	; 0xfffffcfb
     d18:	15050511 	strne	r0, [r5, #-1297]	; 0xfffffaef
     d1c:	01310513 	teqeq	r1, r3, lsl r5
     d20:	05010b05 	streq	r0, [r1, #-2821]	; 0xfffff4fb
     d24:	2e01010c 	adfcss	f0, f1, #4.0
     d28:	01061d05 	tsteq	r6, r5, lsl #26
     d2c:	4a2e0b05 	bmi	b83948 <__bss_end__+0xb79958>
     d30:	03061c05 	movweq	r1, #27653	; 0x6c05
     d34:	050100d6 	streq	r0, [r1, #-214]	; 0xffffff2a
     d38:	2e010605 	cfmadd32cs	mvax0, mvfx0, mvfx1, mvfx5
     d3c:	0609054a 	streq	r0, [r9], -sl, asr #10
     d40:	05017503 	streq	r7, [r1, #-1283]	; 0xfffffafd
     d44:	01610314 	cmneq	r1, r4, lsl r3
     d48:	05130505 	ldreq	r0, [r3, #-1285]	; 0xfffffafb
     d4c:	016b0314 	cmneq	fp, r4, lsl r3
     d50:	05140505 	ldreq	r0, [r4, #-1285]	; 0xfffffafb
     d54:	01570314 	cmpeq	r7, r4, lsl r3
     d58:	13130505 	tstne	r3, #20971520	; 0x1400000
     d5c:	03060106 	movweq	r0, #24838	; 0x6106
     d60:	13050128 	movwne	r0, #20776	; 0x5128
     d64:	062e0101 	strteq	r0, [lr], -r1, lsl #2
     d68:	06140501 	ldreq	r0, [r4], -r1, lsl #10
     d6c:	05016103 	streq	r6, [r1, #-259]	; 0xfffffefd
     d70:	14051305 	strne	r1, [r5], #-773	; 0xfffffcfb
     d74:	15050511 	strne	r0, [r5, #-1297]	; 0xfffffaef
     d78:	01310513 	teqeq	r1, r3, lsl r5
     d7c:	05010b05 	streq	r0, [r1, #-2821]	; 0xfffff4fb
     d80:	2e01010c 	adfcss	f0, f1, #4.0
     d84:	01061d05 	tsteq	r6, r5, lsl #26
     d88:	4a2e0b05 	bmi	b839a4 <__bss_end__+0xb799b4>
     d8c:	03060905 	movweq	r0, #26885	; 0x6905
     d90:	050100cc 	streq	r0, [r1, #-204]	; 0xffffff34
     d94:	01680314 	cmneq	r8, r4, lsl r3
     d98:	05130505 	ldreq	r0, [r3, #-1285]	; 0xfffffafb
     d9c:	016b0314 	cmneq	fp, r4, lsl r3
     da0:	05140505 	ldreq	r0, [r4, #-1285]	; 0xfffffafb
     da4:	01540314 	cmpeq	r4, r4, lsl r3
     da8:	13130505 	tstne	r3, #20971520	; 0x1400000
     dac:	01060b05 	tsteq	r6, r5, lsl #22
     db0:	0605052e 	streq	r0, [r5], -lr, lsr #10
     db4:	05012b03 	streq	r2, [r1, #-2819]	; 0xfffff4fd
     db8:	2e010113 	mcrcs	1, 0, r0, cr1, cr3, {0}
     dbc:	14050106 	strne	r0, [r5], #-262	; 0xfffffefa
     dc0:	01590306 	cmpeq	r9, r6, lsl #6
     dc4:	05130505 	ldreq	r0, [r3, #-1285]	; 0xfffffafb
     dc8:	05051114 	streq	r1, [r5, #-276]	; 0xfffffeec
     dcc:	31051315 	tstcc	r5, r5, lsl r3
     dd0:	010b0501 	tsteq	fp, r1, lsl #10
     dd4:	01010c05 	tsteq	r1, r5, lsl #24
     dd8:	061d052e 	ldreq	r0, [sp], -lr, lsr #10
     ddc:	2e0b0501 	cfsh32cs	mvfx0, mvfx11, #1
     de0:	061c054a 	ldreq	r0, [ip], -sl, asr #10
     de4:	0100d603 	tsteq	r0, r3, lsl #12
     de8:	01060505 	tsteq	r6, r5, lsl #10
     dec:	0501042e 	streq	r0, [r1, #-1070]	; 0xfffffbd2
     df0:	e103062d 	tst	r3, sp, lsr #12
     df4:	0505667e 	streq	r6, [r5, #-1662]	; 0xfffff982
     df8:	01090513 	tsteq	r9, r3, lsl r5
     dfc:	05011405 	streq	r1, [r1, #-1029]	; 0xfffffbfb
     e00:	2e010605 	cfmadd32cs	mvax0, mvfx0, mvfx1, mvfx5
     e04:	0e050204 	cdpeq	2, 0, cr0, cr5, cr4, {0}
     e08:	042e3b03 	strteq	r3, [lr], #-2819	; 0xfffff4fd
     e0c:	032d0501 			; <UNDEFINED> instruction: 0x032d0501
     e10:	0d052e44 	stceq	14, cr2, [r5, #-272]	; 0xfffffef0
     e14:	2f09052f 	svccs	0x0009052f
     e18:	0b050204 	bleq	141630 <__bss_end__+0x137640>
     e1c:	052e3a03 	streq	r3, [lr, #-2563]!	; 0xfffff5fd
     e20:	042e2e0e 	strteq	r2, [lr], #-3598	; 0xfffff1f2
     e24:	00090501 	andeq	r0, r9, r1, lsl #10
     e28:	06030402 	streq	r0, [r3], -r2, lsl #8
     e2c:	04014603 	streq	r4, [r1], #-1539	; 0xfffff9fd
     e30:	00140502 	andseq	r0, r4, r2, lsl #10
     e34:	03030402 	movweq	r0, #13314	; 0x3402
     e38:	050101a3 	streq	r0, [r1, #-419]	; 0xfffffe5d
     e3c:	04020005 	streq	r0, [r2], #-5
     e40:	0d051703 	stceq	7, cr1, [r5, #-12]
     e44:	03040200 	movweq	r0, #16896	; 0x4200
     e48:	05017403 	streq	r7, [r1, #-1027]	; 0xfffffbfd
     e4c:	04020005 	streq	r0, [r2], #-5
     e50:	0a051303 	beq	145a64 <__bss_end__+0x13ba74>
     e54:	03040200 	movweq	r0, #16896	; 0x4200
     e58:	00150501 	andseq	r0, r5, r1, lsl #10
     e5c:	01030402 	tsteq	r3, r2, lsl #8
     e60:	0d050104 	stfeqs	f0, [r5, #-16]
     e64:	03040200 	movweq	r0, #16896	; 0x4200
     e68:	7ee20306 	cdpvc	3, 14, cr0, cr2, cr6, {0}
     e6c:	05020401 	streq	r0, [r2, #-1025]	; 0xfffffbff
     e70:	9f030609 	svcls	0x00030609
     e74:	14052e01 	strne	r2, [r5], #-3585	; 0xfffff1ff
     e78:	05016f03 	streq	r6, [r1, #-3843]	; 0xfffff0fd
     e7c:	09051305 	stmdbeq	r5, {r0, r2, r8, r9, ip}
     e80:	03140516 	tsteq	r4, #92274688	; 0x5800000
     e84:	05050161 	streq	r0, [r5, #-353]	; 0xfffffe9f
     e88:	03140513 	tsteq	r4, #79691776	; 0x4c00000
     e8c:	0505016b 	streq	r0, [r5, #-363]	; 0xfffffe95
     e90:	03140514 	tsteq	r4, #20, 10	; 0x5000000
     e94:	05050157 	streq	r0, [r5, #-343]	; 0xfffffea9
     e98:	0b051313 	bleq	145aec <__bss_end__+0x13bafc>
     e9c:	052e0106 	streq	r0, [lr, #-262]!	; 0xfffffefa
     ea0:	28030605 	stmdacs	r3, {r0, r2, r9, sl}
     ea4:	01130501 	tsteq	r3, r1, lsl #10
     ea8:	01062e01 	tsteq	r6, r1, lsl #28
     eac:	03061405 	movweq	r1, #25605	; 0x6405
     eb0:	05050161 	streq	r0, [r5, #-353]	; 0xfffffe9f
     eb4:	11140513 	tstne	r4, r3, lsl r5
     eb8:	13150505 	tstne	r5, #20971520	; 0x1400000
     ebc:	05013105 	streq	r3, [r1, #-261]	; 0xfffffefb
     ec0:	0c05010b 	stfeqs	f0, [r5], {11}
     ec4:	052e0101 	streq	r0, [lr, #-257]!	; 0xfffffeff
     ec8:	0501061d 	streq	r0, [r1, #-1565]	; 0xfffff9e3
     ecc:	054a2e0b 	strbeq	r2, [sl, #-3595]	; 0xfffff1f5
     ed0:	cc030609 	stcgt	6, cr0, [r3], {9}
     ed4:	14050100 	strne	r0, [r5], #-256	; 0xffffff00
     ed8:	05016803 	streq	r6, [r1, #-2051]	; 0xfffff7fd
     edc:	14051305 	strne	r1, [r5], #-773	; 0xfffffcfb
     ee0:	05016b03 	streq	r6, [r1, #-2819]	; 0xfffff4fd
     ee4:	14051405 	strne	r1, [r5], #-1029	; 0xfffffbfb
     ee8:	05015403 	streq	r5, [r1, #-1027]	; 0xfffffbfd
     eec:	05131305 	ldreq	r1, [r3, #-773]	; 0xfffffcfb
     ef0:	2e01060b 	cfmadd32cs	mvax0, mvfx0, mvfx1, mvfx11
     ef4:	03060505 	movweq	r0, #25861	; 0x6505
     ef8:	1305012b 	movwne	r0, #20779	; 0x512b
     efc:	062e0101 	strteq	r0, [lr], -r1, lsl #2
     f00:	06140501 	ldreq	r0, [r4], -r1, lsl #10
     f04:	05015903 	streq	r5, [r1, #-2307]	; 0xfffff6fd
     f08:	14051305 	strne	r1, [r5], #-773	; 0xfffffcfb
     f0c:	15050511 	strne	r0, [r5, #-1297]	; 0xfffffaef
     f10:	01310513 	teqeq	r1, r3, lsl r5
     f14:	05010b05 	streq	r0, [r1, #-2821]	; 0xfffff4fb
     f18:	2e01010c 	adfcss	f0, f1, #4.0
     f1c:	01061d05 	tsteq	r6, r5, lsl #26
     f20:	4a2e0b05 	bmi	b83b3c <__bss_end__+0xb79b4c>
     f24:	03061c05 	movweq	r1, #27653	; 0x6c05
     f28:	050100d6 	streq	r0, [r1, #-214]	; 0xffffff2a
     f2c:	05050115 	streq	r0, [r5, #-277]	; 0xfffffeeb
     f30:	05660106 	strbeq	r0, [r6, #-262]!	; 0xfffffefa
     f34:	05130609 	ldreq	r0, [r3, #-1545]	; 0xfffff9f7
     f38:	016f0314 	cmneq	pc, r4, lsl r3	; <UNPREDICTABLE>
     f3c:	05130505 	ldreq	r0, [r3, #-1285]	; 0xfffffafb
     f40:	14051609 	strne	r1, [r5], #-1545	; 0xfffff9f7
     f44:	05016103 	streq	r6, [r1, #-259]	; 0xfffffefd
     f48:	14051305 	strne	r1, [r5], #-773	; 0xfffffcfb
     f4c:	05016b03 	streq	r6, [r1, #-2819]	; 0xfffff4fd
     f50:	14051405 	strne	r1, [r5], #-1029	; 0xfffffbfb
     f54:	05015703 	streq	r5, [r1, #-1795]	; 0xfffff8fd
     f58:	05131305 	ldreq	r1, [r3, #-773]	; 0xfffffcfb
     f5c:	2e01060b 	cfmadd32cs	mvax0, mvfx0, mvfx1, mvfx11
     f60:	03060505 	movweq	r0, #25861	; 0x6505
     f64:	13050128 	movwne	r0, #20776	; 0x5128
     f68:	062e0101 	strteq	r0, [lr], -r1, lsl #2
     f6c:	06140501 	ldreq	r0, [r4], -r1, lsl #10
     f70:	05016103 	streq	r6, [r1, #-259]	; 0xfffffefd
     f74:	14051305 	strne	r1, [r5], #-773	; 0xfffffcfb
     f78:	15050511 	strne	r0, [r5, #-1297]	; 0xfffffaef
     f7c:	01310513 	teqeq	r1, r3, lsl r5
     f80:	05010b05 	streq	r0, [r1, #-2821]	; 0xfffff4fb
     f84:	2e01010c 	adfcss	f0, f1, #4.0
     f88:	01061d05 	tsteq	r6, r5, lsl #26
     f8c:	4a2e0b05 	bmi	b83ba8 <__bss_end__+0xb79bb8>
     f90:	03060905 	movweq	r0, #26885	; 0x6905
     f94:	050100cc 	streq	r0, [r1, #-204]	; 0xffffff34
     f98:	01680314 	cmneq	r8, r4, lsl r3
     f9c:	05130505 	ldreq	r0, [r3, #-1285]	; 0xfffffafb
     fa0:	016b0314 	cmneq	fp, r4, lsl r3
     fa4:	05140505 	ldreq	r0, [r4, #-1285]	; 0xfffffafb
     fa8:	01540314 	cmpeq	r4, r4, lsl r3
     fac:	13130505 	tstne	r3, #20971520	; 0x1400000
     fb0:	01060b05 	tsteq	r6, r5, lsl #22
     fb4:	0605052e 	streq	r0, [r5], -lr, lsr #10
     fb8:	05012b03 	streq	r2, [r1, #-2819]	; 0xfffff4fd
     fbc:	2e010113 	mcrcs	1, 0, r0, cr1, cr3, {0}
     fc0:	14050106 	strne	r0, [r5], #-262	; 0xfffffefa
     fc4:	01590306 	cmpeq	r9, r6, lsl #6
     fc8:	05130505 	ldreq	r0, [r3, #-1285]	; 0xfffffafb
     fcc:	05051114 	streq	r1, [r5, #-276]	; 0xfffffeec
     fd0:	31051315 	tstcc	r5, r5, lsl r3
     fd4:	010b0501 	tsteq	fp, r1, lsl #10
     fd8:	01010c05 	tsteq	r1, r5, lsl #24
     fdc:	061d052e 	ldreq	r0, [sp], -lr, lsr #10
     fe0:	2e0b0501 	cfsh32cs	mvfx0, mvfx11, #1
     fe4:	061c054a 	ldreq	r0, [ip], -sl, asr #10
     fe8:	0100d603 	tsteq	r0, r3, lsl #12
     fec:	05011505 	streq	r1, [r1, #-1285]	; 0xfffffafb
     ff0:	05010605 	streq	r0, [r1, #-1541]	; 0xfffff9fb
     ff4:	05670609 	strbeq	r0, [r7, #-1545]!	; 0xfffff9f7
     ff8:	016f0314 	cmneq	pc, r4, lsl r3	; <UNPREDICTABLE>
     ffc:	05130505 	ldreq	r0, [r3, #-1285]	; 0xfffffafb
    1000:	14051609 	strne	r1, [r5], #-1545	; 0xfffff9f7
    1004:	05016103 	streq	r6, [r1, #-259]	; 0xfffffefd
    1008:	14051305 	strne	r1, [r5], #-773	; 0xfffffcfb
    100c:	05016b03 	streq	r6, [r1, #-2819]	; 0xfffff4fd
    1010:	14051405 	strne	r1, [r5], #-1029	; 0xfffffbfb
    1014:	05015703 	streq	r5, [r1, #-1795]	; 0xfffff8fd
    1018:	05131305 	ldreq	r1, [r3, #-773]	; 0xfffffcfb
    101c:	2e01060b 	cfmadd32cs	mvax0, mvfx0, mvfx1, mvfx11
    1020:	03060505 	movweq	r0, #25861	; 0x6505
    1024:	13050128 	movwne	r0, #20776	; 0x5128
    1028:	062e0101 	strteq	r0, [lr], -r1, lsl #2
    102c:	06140501 	ldreq	r0, [r4], -r1, lsl #10
    1030:	05016103 	streq	r6, [r1, #-259]	; 0xfffffefd
    1034:	14051305 	strne	r1, [r5], #-773	; 0xfffffcfb
    1038:	15050511 	strne	r0, [r5, #-1297]	; 0xfffffaef
    103c:	01310513 	teqeq	r1, r3, lsl r5
    1040:	05010b05 	streq	r0, [r1, #-2821]	; 0xfffff4fb
    1044:	2e01010c 	adfcss	f0, f1, #4.0
    1048:	01061d05 	tsteq	r6, r5, lsl #26
    104c:	4a2e0b05 	bmi	b83c68 <__bss_end__+0xb79c78>
    1050:	03060905 	movweq	r0, #26885	; 0x6905
    1054:	050100cc 	streq	r0, [r1, #-204]	; 0xffffff34
    1058:	01680314 	cmneq	r8, r4, lsl r3
    105c:	05130505 	ldreq	r0, [r3, #-1285]	; 0xfffffafb
    1060:	016b0314 	cmneq	fp, r4, lsl r3
    1064:	05140505 	ldreq	r0, [r4, #-1285]	; 0xfffffafb
    1068:	01540314 	cmpeq	r4, r4, lsl r3
    106c:	13130505 	tstne	r3, #20971520	; 0x1400000
    1070:	01060b05 	tsteq	r6, r5, lsl #22
    1074:	0605052e 	streq	r0, [r5], -lr, lsr #10
    1078:	05012b03 	streq	r2, [r1, #-2819]	; 0xfffff4fd
    107c:	2e010113 	mcrcs	1, 0, r0, cr1, cr3, {0}
    1080:	14050106 	strne	r0, [r5], #-262	; 0xfffffefa
    1084:	01590306 	cmpeq	r9, r6, lsl #6
    1088:	05130505 	ldreq	r0, [r3, #-1285]	; 0xfffffafb
    108c:	05051114 	streq	r1, [r5, #-276]	; 0xfffffeec
    1090:	31051315 	tstcc	r5, r5, lsl r3
    1094:	010b0501 	tsteq	fp, r1, lsl #10
    1098:	01010c05 	tsteq	r1, r5, lsl #24
    109c:	061d052e 	ldreq	r0, [sp], -lr, lsr #10
    10a0:	2e0b0501 	cfsh32cs	mvfx0, mvfx11, #1
    10a4:	061c054a 	ldreq	r0, [ip], -sl, asr #10
    10a8:	0100d603 	tsteq	r0, r3, lsl #12
    10ac:	05011505 	streq	r1, [r1, #-1285]	; 0xfffffafb
    10b0:	4a010605 	bmi	428cc <__bss_end__+0x388dc>
    10b4:	1b050104 	blne	1414cc <__bss_end__+0x1374dc>
    10b8:	03040200 	movweq	r0, #16896	; 0x4200
    10bc:	7ee20306 	cdpvc	3, 14, cr0, cr2, cr6, {0}
    10c0:	001c0501 	andseq	r0, ip, r1, lsl #10
    10c4:	06030402 	streq	r0, [r3], -r2, lsl #8
    10c8:	00140501 	andseq	r0, r4, r1, lsl #10
    10cc:	06030402 	streq	r0, [r3], -r2, lsl #8
    10d0:	0005052e 	andeq	r0, r5, lr, lsr #10
    10d4:	06030402 	streq	r0, [r3], -r2, lsl #8
    10d8:	054c0601 	strbeq	r0, [ip, #-1537]	; 0xfffff9ff
    10dc:	05130601 	ldreq	r0, [r3, #-1537]	; 0xfffff9ff
    10e0:	2e062d05 	cdpcs	13, 0, cr2, cr6, cr5, {0}
    10e4:	1c052e06 	stcne	14, cr2, [r5], {6}
    10e8:	02050006 	andeq	r0, r5, #6, 0
    10ec:	00008690 	muleq	r0, r0, r6
    10f0:	13050515 	movwne	r0, #21781	; 0x5515
    10f4:	11061c05 	tstne	r6, r5, lsl #24
    10f8:	052f1b05 	streq	r1, [pc, #-2821]!	; 5fb <__code_start__-0x7a05>
    10fc:	79030606 	stmdbvc	r3, {r1, r2, r9, sl}
    1100:	1314052e 	tstne	r4, #192937984	; 0xb800000
    1104:	01060505 	tsteq	r6, r5, lsl #10
    1108:	0e050204 	cdpeq	2, 0, cr0, cr5, cr4, {0}
    110c:	044a3b03 	strbeq	r3, [sl], #-2819	; 0xfffff4fd
    1110:	030d0501 	movweq	r0, #54529	; 0xd501
    1114:	09052e45 	stmdbeq	r5, {r0, r2, r6, r9, sl, fp, sp}
    1118:	0502042f 	streq	r0, [r2, #-1071]	; 0xfffffbd1
    111c:	2e3a030b 	cdpcs	3, 3, cr0, cr10, cr11, {0}
    1120:	2e2e0e05 	cdpcs	14, 2, cr0, cr14, cr5, {0}
    1124:	09050104 	stmdbeq	r5, {r2, r8}
    1128:	01460306 	cmpeq	r6, r6, lsl #6
    112c:	14050204 	strne	r0, [r5], #-516	; 0xfffffdfc
    1130:	0101a303 	tsteq	r1, r3, lsl #6
    1134:	05170505 	ldreq	r0, [r7, #-1285]	; 0xfffffafb
    1138:	0174030d 	cmneq	r4, sp, lsl #6
    113c:	05130505 	ldreq	r0, [r3, #-1285]	; 0xfffffafb
    1140:	1505010a 	strne	r0, [r5, #-266]	; 0xfffffef6
    1144:	05010401 	streq	r0, [r1, #-1025]	; 0xfffffbff
    1148:	e203060d 	and	r0, r3, #13631488	; 0xd00000
    114c:	0204017e 	andeq	r0, r4, #-2147483617	; 0x8000001f
    1150:	03060905 	movweq	r0, #26885	; 0x6905
    1154:	052e019f 	streq	r0, [lr, #-415]!	; 0xfffffe61
    1158:	016f0314 	cmneq	pc, r4, lsl r3	; <UNPREDICTABLE>
    115c:	05130505 	ldreq	r0, [r3, #-1285]	; 0xfffffafb
    1160:	14051609 	strne	r1, [r5], #-1545	; 0xfffff9f7
    1164:	05016103 	streq	r6, [r1, #-259]	; 0xfffffefd
    1168:	14051305 	strne	r1, [r5], #-773	; 0xfffffcfb
    116c:	05016b03 	streq	r6, [r1, #-2819]	; 0xfffff4fd
    1170:	14051405 	strne	r1, [r5], #-1029	; 0xfffffbfb
    1174:	05015703 	streq	r5, [r1, #-1795]	; 0xfffff8fd
    1178:	05131305 	ldreq	r1, [r3, #-773]	; 0xfffffcfb
    117c:	2e01060b 	cfmadd32cs	mvax0, mvfx0, mvfx1, mvfx11
    1180:	03060505 	movweq	r0, #25861	; 0x6505
    1184:	13050128 	movwne	r0, #20776	; 0x5128
    1188:	062e0101 	strteq	r0, [lr], -r1, lsl #2
    118c:	06140501 	ldreq	r0, [r4], -r1, lsl #10
    1190:	05016103 	streq	r6, [r1, #-259]	; 0xfffffefd
    1194:	14051305 	strne	r1, [r5], #-773	; 0xfffffcfb
    1198:	15050511 	strne	r0, [r5, #-1297]	; 0xfffffaef
    119c:	01310513 	teqeq	r1, r3, lsl r5
    11a0:	05010b05 	streq	r0, [r1, #-2821]	; 0xfffff4fb
    11a4:	2e01010c 	adfcss	f0, f1, #4.0
    11a8:	01061d05 	tsteq	r6, r5, lsl #26
    11ac:	4a2e0b05 	bmi	b83dc8 <__bss_end__+0xb79dd8>
    11b0:	03060905 	movweq	r0, #26885	; 0x6905
    11b4:	050100cc 	streq	r0, [r1, #-204]	; 0xffffff34
    11b8:	01680314 	cmneq	r8, r4, lsl r3
    11bc:	05130505 	ldreq	r0, [r3, #-1285]	; 0xfffffafb
    11c0:	016b0314 	cmneq	fp, r4, lsl r3
    11c4:	05140505 	ldreq	r0, [r4, #-1285]	; 0xfffffafb
    11c8:	01540314 	cmpeq	r4, r4, lsl r3
    11cc:	13130505 	tstne	r3, #20971520	; 0x1400000
    11d0:	01060b05 	tsteq	r6, r5, lsl #22
    11d4:	0605052e 	streq	r0, [r5], -lr, lsr #10
    11d8:	05012b03 	streq	r2, [r1, #-2819]	; 0xfffff4fd
    11dc:	2e010113 	mcrcs	1, 0, r0, cr1, cr3, {0}
    11e0:	14050106 	strne	r0, [r5], #-262	; 0xfffffefa
    11e4:	01590306 	cmpeq	r9, r6, lsl #6
    11e8:	05130505 	ldreq	r0, [r3, #-1285]	; 0xfffffafb
    11ec:	05051114 	streq	r1, [r5, #-276]	; 0xfffffeec
    11f0:	31051315 	tstcc	r5, r5, lsl r3
    11f4:	010b0501 	tsteq	fp, r1, lsl #10
    11f8:	01010c05 	tsteq	r1, r5, lsl #24
    11fc:	061d052e 	ldreq	r0, [sp], -lr, lsr #10
    1200:	2e0b0501 	cfsh32cs	mvfx0, mvfx11, #1
    1204:	061c054a 	ldreq	r0, [ip], -sl, asr #10
    1208:	0100d603 	tsteq	r0, r3, lsl #12
    120c:	05011505 	streq	r1, [r1, #-1285]	; 0xfffffafb
    1210:	66010605 	strvs	r0, [r1], -r5, lsl #12
    1214:	13060905 	movwne	r0, #26885	; 0x6905
    1218:	6f031405 	svcvs	0x00031405
    121c:	13050501 	movwne	r0, #21761	; 0x5501
    1220:	05160905 	ldreq	r0, [r6, #-2309]	; 0xfffff6fb
    1224:	01610314 	cmneq	r1, r4, lsl r3
    1228:	05130505 	ldreq	r0, [r3, #-1285]	; 0xfffffafb
    122c:	016b0314 	cmneq	fp, r4, lsl r3
    1230:	05140505 	ldreq	r0, [r4, #-1285]	; 0xfffffafb
    1234:	01570314 	cmpeq	r7, r4, lsl r3
    1238:	13130505 	tstne	r3, #20971520	; 0x1400000
    123c:	01060b05 	tsteq	r6, r5, lsl #22
    1240:	0605052e 	streq	r0, [r5], -lr, lsr #10
    1244:	05012803 	streq	r2, [r1, #-2051]	; 0xfffff7fd
    1248:	2e010113 	mcrcs	1, 0, r0, cr1, cr3, {0}
    124c:	14050106 	strne	r0, [r5], #-262	; 0xfffffefa
    1250:	01610306 	cmneq	r1, r6, lsl #6
    1254:	05130505 	ldreq	r0, [r3, #-1285]	; 0xfffffafb
    1258:	05051114 	streq	r1, [r5, #-276]	; 0xfffffeec
    125c:	31051315 	tstcc	r5, r5, lsl r3
    1260:	010b0501 	tsteq	fp, r1, lsl #10
    1264:	01010c05 	tsteq	r1, r5, lsl #24
    1268:	061d052e 	ldreq	r0, [sp], -lr, lsr #10
    126c:	2e0b0501 	cfsh32cs	mvfx0, mvfx11, #1
    1270:	0609054a 	streq	r0, [r9], -sl, asr #10
    1274:	0100cc03 	tsteq	r0, r3, lsl #24
    1278:	68031405 	stmdavs	r3, {r0, r2, sl, ip}
    127c:	13050501 	movwne	r0, #21761	; 0x5501
    1280:	6b031405 	blvs	c629c <__bss_end__+0xbc2ac>
    1284:	14050501 	strne	r0, [r5], #-1281	; 0xfffffaff
    1288:	54031405 	strpl	r1, [r3], #-1029	; 0xfffffbfb
    128c:	13050501 	movwne	r0, #21761	; 0x5501
    1290:	060b0513 			; <UNDEFINED> instruction: 0x060b0513
    1294:	05052e01 	streq	r2, [r5, #-3585]	; 0xfffff1ff
    1298:	012b0306 			; <UNDEFINED> instruction: 0x012b0306
    129c:	01011305 	tsteq	r1, r5, lsl #6
    12a0:	0501062e 	streq	r0, [r1, #-1582]	; 0xfffff9d2
    12a4:	59030614 	stmdbpl	r3, {r2, r4, r9, sl}
    12a8:	13050501 	movwne	r0, #21761	; 0x5501
    12ac:	05111405 	ldreq	r1, [r1, #-1029]	; 0xfffffbfb
    12b0:	05131505 	ldreq	r1, [r3, #-1285]	; 0xfffffafb
    12b4:	0b050131 	bleq	141780 <__bss_end__+0x137790>
    12b8:	010c0501 	tsteq	ip, r1, lsl #10
    12bc:	1d052e01 	stcne	14, cr2, [r5, #-4]
    12c0:	0b050106 	bleq	1416e0 <__bss_end__+0x1376f0>
    12c4:	1c054a2e 			; <UNDEFINED> instruction: 0x1c054a2e
    12c8:	00d60306 	sbcseq	r0, r6, r6, lsl #6
    12cc:	01150501 	tsteq	r5, r1, lsl #10
    12d0:	01060505 	tsteq	r6, r5, lsl #10
    12d4:	67060905 	strvs	r0, [r6, -r5, lsl #18]
    12d8:	6f031405 	svcvs	0x00031405
    12dc:	13050501 	movwne	r0, #21761	; 0x5501
    12e0:	05160905 	ldreq	r0, [r6, #-2309]	; 0xfffff6fb
    12e4:	01610314 	cmneq	r1, r4, lsl r3
    12e8:	05130505 	ldreq	r0, [r3, #-1285]	; 0xfffffafb
    12ec:	016b0314 	cmneq	fp, r4, lsl r3
    12f0:	05140505 	ldreq	r0, [r4, #-1285]	; 0xfffffafb
    12f4:	01570314 	cmpeq	r7, r4, lsl r3
    12f8:	13130505 	tstne	r3, #20971520	; 0x1400000
    12fc:	01060b05 	tsteq	r6, r5, lsl #22
    1300:	0605052e 	streq	r0, [r5], -lr, lsr #10
    1304:	05012803 	streq	r2, [r1, #-2051]	; 0xfffff7fd
    1308:	2e010113 	mcrcs	1, 0, r0, cr1, cr3, {0}
    130c:	14050106 	strne	r0, [r5], #-262	; 0xfffffefa
    1310:	01610306 	cmneq	r1, r6, lsl #6
    1314:	05130505 	ldreq	r0, [r3, #-1285]	; 0xfffffafb
    1318:	05051114 	streq	r1, [r5, #-276]	; 0xfffffeec
    131c:	31051315 	tstcc	r5, r5, lsl r3
    1320:	010b0501 	tsteq	fp, r1, lsl #10
    1324:	01010c05 	tsteq	r1, r5, lsl #24
    1328:	061d052e 	ldreq	r0, [sp], -lr, lsr #10
    132c:	2e0b0501 	cfsh32cs	mvfx0, mvfx11, #1
    1330:	0609054a 	streq	r0, [r9], -sl, asr #10
    1334:	0100cc03 	tsteq	r0, r3, lsl #24
    1338:	68031405 	stmdavs	r3, {r0, r2, sl, ip}
    133c:	13050501 	movwne	r0, #21761	; 0x5501
    1340:	6b031405 	blvs	c635c <__bss_end__+0xbc36c>
    1344:	14050501 	strne	r0, [r5], #-1281	; 0xfffffaff
    1348:	54031405 	strpl	r1, [r3], #-1029	; 0xfffffbfb
    134c:	13050501 	movwne	r0, #21761	; 0x5501
    1350:	060b0513 			; <UNDEFINED> instruction: 0x060b0513
    1354:	05052e01 	streq	r2, [r5, #-3585]	; 0xfffff1ff
    1358:	012b0306 			; <UNDEFINED> instruction: 0x012b0306
    135c:	01011305 	tsteq	r1, r5, lsl #6
    1360:	0501062e 	streq	r0, [r1, #-1582]	; 0xfffff9d2
    1364:	59030614 	stmdbpl	r3, {r2, r4, r9, sl}
    1368:	13050501 	movwne	r0, #21761	; 0x5501
    136c:	05111405 	ldreq	r1, [r1, #-1029]	; 0xfffffbfb
    1370:	05131505 	ldreq	r1, [r3, #-1285]	; 0xfffffafb
    1374:	0b050131 	bleq	141840 <__bss_end__+0x137850>
    1378:	010c0501 	tsteq	ip, r1, lsl #10
    137c:	1d052e01 	stcne	14, cr2, [r5, #-4]
    1380:	0b050106 	bleq	1417a0 <__bss_end__+0x1377b0>
    1384:	1c054a2e 			; <UNDEFINED> instruction: 0x1c054a2e
    1388:	00d60306 	sbcseq	r0, r6, r6, lsl #6
    138c:	01150501 	tsteq	r5, r1, lsl #10
    1390:	01060505 	tsteq	r6, r5, lsl #10
    1394:	0501044a 	streq	r0, [r1, #-1098]	; 0xfffffbb6
    1398:	e203061b 	and	r0, r3, #28311552	; 0x1b00000
    139c:	1c05017e 	stfnes	f0, [r5], {126}	; 0x7e
    13a0:	14050106 	strne	r0, [r5], #-262	; 0xfffffefa
    13a4:	05052e06 	streq	r2, [r5, #-3590]	; 0xfffff1fa
    13a8:	064a0106 	strbeq	r0, [sl], -r6, lsl #2
    13ac:	06010514 			; <UNDEFINED> instruction: 0x06010514
    13b0:	29050517 	stmdbcs	r5, {r0, r1, r2, r4, r8, sl}
    13b4:	064b052e 	strbeq	r0, [fp], -lr, lsr #10
    13b8:	80020500 	andhi	r0, r2, r0, lsl #10
    13bc:	1a000087 	bne	15e0 <__code_start__-0x6a20>
    13c0:	14130505 	ldrne	r0, [r3], #-1285	; 0xfffffafb
    13c4:	10060805 	andne	r0, r6, r5, lsl #16
    13c8:	054c1405 	strbeq	r1, [ip, #-1029]	; 0xfffffbfb
    13cc:	14052b4b 	strne	r2, [r5], #-2891	; 0xfffff4b5
    13d0:	01052e31 	tsteq	r5, r1, lsr lr
    13d4:	00020267 	andeq	r0, r2, r7, ror #4
    13d8:	01e50101 	mvneq	r0, r1, lsl #2
    13dc:	00030000 	andeq	r0, r3, r0
    13e0:	000000e9 	andeq	r0, r0, r9, ror #1
    13e4:	0efb0102 	cdpeq	1, 15, cr0, cr11, cr2, {0}
    13e8:	0101000d 	tsteq	r1, sp
    13ec:	00000101 	andeq	r0, r0, r1, lsl #2
    13f0:	00000100 	andeq	r0, r0, r0, lsl #2
    13f4:	732f2e01 			; <UNDEFINED> instruction: 0x732f2e01
    13f8:	2f006372 	svccs	0x00006372
    13fc:	72657355 	rsbvc	r7, r5, #1409286145	; 0x54000001
    1400:	6e612f73 	mcrvs	15, 3, r2, cr1, cr3, {3}
    1404:	442f616e 	strtmi	r6, [pc], #-366	; 140c <__code_start__-0x6bf4>
    1408:	6d75636f 	ldclvs	3, cr6, [r5, #-444]!	; 0xfffffe44
    140c:	73746e65 	cmnvc	r4, #1616	; 0x650
    1410:	6863532f 	stmdavs	r3!, {r0, r1, r2, r3, r5, r8, r9, ip, lr}^
    1414:	2f6c6f6f 	svccs	0x006c6f6f
    1418:	6c6c6f43 	stclvs	15, cr6, [ip], #-268	; 0xfffffef4
    141c:	2f656765 	svccs	0x00656765
    1420:	696e754a 	stmdbvs	lr!, {r1, r3, r6, r8, sl, ip, sp, lr}^
    1424:	532f726f 			; <UNDEFINED> instruction: 0x532f726f
    1428:	432f3232 			; <UNDEFINED> instruction: 0x432f3232
    142c:	30343253 	eorscc	r3, r4, r3, asr r2
    1430:	6d2f584c 	stcvs	8, cr5, [pc, #-304]!	; 1308 <__code_start__-0x6cf8>
    1434:	646f6379 	strbtvs	r6, [pc], #-889	; 143c <__code_start__-0x6bc4>
    1438:	696c2f65 	stmdbvs	ip!, {r0, r2, r5, r6, r8, r9, sl, fp, sp}^
    143c:	2f697062 	svccs	0x00697062
    1440:	6c636e69 	stclvs	14, cr6, [r3], #-420	; 0xfffffe5c
    1444:	00656475 	rsbeq	r6, r5, r5, ror r4
    1448:	7273752f 	rsbsvc	r7, r3, #197132288	; 0xbc00000
    144c:	636f6c2f 	cmnvs	pc, #12032	; 0x2f00
    1450:	432f6c61 			; <UNDEFINED> instruction: 0x432f6c61
    1454:	616c6c65 	cmnvs	ip, r5, ror #24
    1458:	72612f72 	rsbvc	r2, r1, #456	; 0x1c8
    145c:	6f6e2d6d 	svcvs	0x006e2d6d
    1460:	652d656e 	strvs	r6, [sp, #-1390]!	; 0xfffffa92
    1464:	2d696261 	sfmcs	f6, 2, [r9, #-388]!	; 0xfffffe7c
    1468:	2d392f39 	ldccs	15, cr2, [r9, #-228]!	; 0xffffff1c
    146c:	39313032 	ldmdbcc	r1!, {r1, r4, r5, ip, sp}
    1470:	632d3471 			; <UNDEFINED> instruction: 0x632d3471
    1474:	37303173 			; <UNDEFINED> instruction: 0x37303173
    1478:	696c2f65 	stmdbvs	ip!, {r0, r2, r5, r6, r8, r9, sl, fp, sp}^
    147c:	63672f62 	cmnvs	r7, #392	; 0x188
    1480:	72612f63 	rsbvc	r2, r1, #396	; 0x18c
    1484:	6f6e2d6d 	svcvs	0x006e2d6d
    1488:	652d656e 	strvs	r6, [sp, #-1390]!	; 0xfffffa92
    148c:	2f696261 	svccs	0x00696261
    1490:	2e322e39 	mrccs	14, 1, r2, cr2, cr9, {1}
    1494:	6e692f31 	mcrvs	15, 3, r2, cr9, cr1, {1}
    1498:	64756c63 	ldrbtvs	r6, [r5], #-3171	; 0xfffff39d
    149c:	67000065 	strvs	r0, [r0, -r5, rrx]
    14a0:	2e6f6970 			; <UNDEFINED> instruction: 0x2e6f6970
    14a4:	00010063 	andeq	r0, r1, r3, rrx
    14a8:	69707200 	ldmdbvs	r0!, {r9, ip, sp, lr}^
    14ac:	0200682e 	andeq	r6, r0, #3014656	; 0x2e0000
    14b0:	74730000 	ldrbtvc	r0, [r3], #-0
    14b4:	746e6964 	strbtvc	r6, [lr], #-2404	; 0xfffff69c
    14b8:	6363672d 	cmnvs	r3, #11796480	; 0xb40000
    14bc:	0300682e 	movweq	r6, #2094	; 0x82e
    14c0:	70670000 	rsbvc	r0, r7, r0
    14c4:	682e6f69 	stmdavs	lr!, {r0, r3, r5, r6, r8, r9, sl, fp, sp, lr}
    14c8:	00000200 	andeq	r0, r0, r0, lsl #4
    14cc:	00380500 	eorseq	r0, r8, r0, lsl #10
    14d0:	87a40205 	strhi	r0, [r4, r5, lsl #4]!
    14d4:	27030000 	strcs	r0, [r3, -r0]
    14d8:	13050501 	movwne	r0, #21761	; 0x5501
    14dc:	01060705 	tsteq	r6, r5, lsl #14
    14e0:	05493805 	strbeq	r3, [r9, #-2053]	; 0xfffff7fb
    14e4:	054d0605 	strbeq	r0, [sp, #-1541]	; 0xfffff9fb
    14e8:	05010607 	streq	r0, [r1, #-1543]	; 0xfffff9f9
    14ec:	054c0605 	strbeq	r0, [ip, #-1541]	; 0xfffff9fb
    14f0:	05010618 	streq	r0, [r1, #-1560]	; 0xfffff9e8
    14f4:	0505ba0e 	streq	fp, [r5, #-2574]	; 0xfffff5f2
    14f8:	1c052f06 	stcne	15, cr2, [r5], {6}
    14fc:	052e0106 	streq	r0, [lr, #-262]!	; 0xfffffefa
    1500:	05052e0e 	streq	r2, [r5, #-3598]	; 0xfffff1f2
    1504:	12053006 	andne	r3, r5, #6, 0
    1508:	05050106 	streq	r0, [r5, #-262]	; 0xfffffefa
    150c:	07054b06 	streq	r4, [r5, -r6, lsl #22]
    1510:	05050106 	streq	r0, [r5, #-262]	; 0xfffffefa
    1514:	06134b06 	ldreq	r4, [r3], -r6, lsl #22
    1518:	4b01052e 	blmi	429d8 <__bss_end__+0x389e8>
    151c:	4c062405 	cfstrsmi	mvf2, [r6], {5}
    1520:	05050106 	streq	r0, [r5, #-262]	; 0xfffffefa
    1524:	01052f06 	tsteq	r5, r6, lsl #30
    1528:	20054b06 	andcs	r4, r5, r6, lsl #22
    152c:	05053106 	streq	r3, [r5, #-262]	; 0xfffffefa
    1530:	06070513 			; <UNDEFINED> instruction: 0x06070513
    1534:	49200501 	stmdbmi	r0!, {r0, r8, sl}
    1538:	31060505 	tstcc	r6, r5, lsl #10
    153c:	01056606 	tsteq	r5, r6, lsl #12
    1540:	0621052f 	strteq	r0, [r1], -pc, lsr #10
    1544:	1305054d 	movwne	r0, #21837	; 0x554d
    1548:	01060705 	tsteq	r6, r5, lsl #14
    154c:	05492105 	strbeq	r2, [r9, #-261]	; 0xfffffefb
    1550:	06310605 	ldrteq	r0, [r1], -r5, lsl #12
    1554:	2f010566 	svccs	0x00010566
    1558:	4d062305 	stcmi	3, cr2, [r6, #-20]	; 0xffffffec
    155c:	05050106 	streq	r0, [r5, #-262]	; 0xfffffefa
    1560:	01052f06 	tsteq	r5, r6, lsl #30
    1564:	2b054b06 	blcs	154184 <__bss_end__+0x14a194>
    1568:	01063106 	tsteq	r6, r6, lsl #2
    156c:	2f060505 	svccs	0x00060505
    1570:	01060705 	tsteq	r6, r5, lsl #14
    1574:	4b060905 	blmi	183990 <__bss_end__+0x1799a0>
    1578:	30062e06 	andcc	r2, r6, r6, lsl #28
    157c:	2f060105 	svccs	0x00060105
    1580:	30061d05 	andcc	r1, r6, r5, lsl #26
    1584:	05130505 	ldreq	r0, [r3, #-1285]	; 0xfffffafb
    1588:	05010607 	streq	r0, [r1, #-1543]	; 0xfffff9f9
    158c:	0505491d 	streq	r4, [r5, #-2333]	; 0xfffff6e3
    1590:	05133106 	ldreq	r3, [r3, #-262]	; 0xfffffefa
    1594:	0501060e 	streq	r0, [r1, #-1550]	; 0xfffff9f2
    1598:	052f0605 	streq	r0, [pc, #-1541]!	; f9b <__code_start__-0x7065>
    159c:	4a010617 	bmi	42e00 <__bss_end__+0x38e10>
    15a0:	042e2305 	strteq	r2, [lr], #-773	; 0xfffffcfb
    15a4:	06300502 	ldrteq	r0, [r0], -r2, lsl #10
    15a8:	2e00d903 	vmlacs.f16	s26, s0, s6	; <UNPREDICTABLE>
    15ac:	0c050104 	stfeqs	f0, [r5], {4}
    15b0:	7fa70306 	svcvc	0x00a70306
    15b4:	2f010501 	svccs	0x00010501
    15b8:	052a1005 	streq	r1, [sl, #-5]!
    15bc:	04023201 	streq	r3, [r2], #-513	; 0xfffffdff
    15c0:	4a010100 	bmi	419c8 <__bss_end__+0x379d8>
    15c4:	03000003 	movweq	r0, #3
    15c8:	00007c00 	andeq	r7, r0, r0, lsl #24
    15cc:	fb010200 	blx	41dd6 <__bss_end__+0x37de6>
    15d0:	01000d0e 	tsteq	r0, lr, lsl #26
    15d4:	00010101 	andeq	r0, r1, r1, lsl #2
    15d8:	00010000 	andeq	r0, r1, r0
    15dc:	2f2e0100 	svccs	0x002e0100
    15e0:	00637273 	rsbeq	r7, r3, r3, ror r2
    15e4:	6573552f 	ldrbvs	r5, [r3, #-1327]!	; 0xfffffad1
    15e8:	612f7372 			; <UNDEFINED> instruction: 0x612f7372
    15ec:	2f616e6e 	svccs	0x00616e6e
    15f0:	75636f44 	strbvc	r6, [r3, #-3908]!	; 0xfffff0bc
    15f4:	746e656d 	strbtvc	r6, [lr], #-1389	; 0xfffffa93
    15f8:	63532f73 	cmpvs	r3, #460	; 0x1cc
    15fc:	6c6f6f68 	stclvs	15, cr6, [pc], #-416	; 1464 <__code_start__-0x6b9c>
    1600:	6c6f432f 	stclvs	3, cr4, [pc], #-188	; 154c <__code_start__-0x6ab4>
    1604:	6567656c 	strbvs	r6, [r7, #-1388]!	; 0xfffffa94
    1608:	6e754a2f 	vaddvs.f32	s9, s10, s31
    160c:	2f726f69 	svccs	0x00726f69
    1610:	2f323253 	svccs	0x00323253
    1614:	34325343 	ldrtcc	r5, [r2], #-835	; 0xfffffcbd
    1618:	2f584c30 	svccs	0x00584c30
    161c:	6f63796d 	svcvs	0x0063796d
    1620:	6c2f6564 	cfstr32vs	mvfx6, [pc], #-400	; 1498 <__code_start__-0x6b68>
    1624:	69706269 	ldmdbvs	r0!, {r0, r3, r5, r6, r9, sp, lr}^
    1628:	636e692f 	cmnvs	lr, #770048	; 0xbc000
    162c:	6564756c 	strbvs	r7, [r4, #-1388]!	; 0xfffffa94
    1630:	6d6b0000 	stclvs	0, cr0, [fp, #-0]
    1634:	6f6c6c61 	svcvs	0x006c6c61
    1638:	00632e63 	rsbeq	r2, r3, r3, ror #28
    163c:	72000001 	andvc	r0, r0, #1, 0
    1640:	682e6970 	stmdavs	lr!, {r4, r5, r6, r8, fp, sp, lr}
    1644:	00000200 	andeq	r0, r0, r0, lsl #4
    1648:	00200500 	eoreq	r0, r0, r0, lsl #10
    164c:	88c00205 	stmiahi	r0, {r0, r2, r9}^
    1650:	34030000 	strcc	r0, [r3], #-0
    1654:	05010601 	streq	r0, [r1, #-1537]	; 0xfffff9ff
    1658:	014b0605 	cmpeq	fp, r5, lsl #12
    165c:	02002e06 	andeq	r2, r0, #96	; 0x60
    1660:	2e060204 	cdpcs	2, 0, cr0, cr6, cr4, {0}
    1664:	02040200 	andeq	r0, r4, #0, 4
    1668:	04020001 	streq	r0, [r2], #-1
    166c:	02001302 	andeq	r1, r0, #134217728	; 0x8000000
    1670:	82010204 	andhi	r0, r1, #4, 4	; 0x40000000
    1674:	03180513 	tsteq	r8, #79691776	; 0x4c00000
    1678:	0505016b 	streq	r0, [r5, #-363]	; 0xfffffe95
    167c:	01060113 	tsteq	r6, r3, lsl r1
    1680:	01150f06 	tsteq	r5, r6, lsl #30
    1684:	060e0513 			; <UNDEFINED> instruction: 0x060e0513
    1688:	2e160501 	cfmul32cs	mvfx0, mvfx6, mvfx1
    168c:	0605052e 	streq	r0, [r5], -lr, lsr #10
    1690:	01011403 	tsteq	r1, r3, lsl #8
    1694:	61031805 	tstvs	r3, r5, lsl #16
    1698:	1305054a 	movwne	r0, #21834	; 0x554a
    169c:	1e030106 	adfnes	f0, f3, f6
    16a0:	04020001 	streq	r0, [r2], #-1
    16a4:	004a0602 	subeq	r0, sl, r2, lsl #12
    16a8:	13020402 	movwne	r0, #9218	; 0x2402
    16ac:	02040200 	andeq	r0, r4, #0, 4
    16b0:	000e0513 	andeq	r0, lr, r3, lsl r5
    16b4:	06020402 	streq	r0, [r2], -r2, lsl #8
    16b8:	04020001 	streq	r0, [r2], #-1
    16bc:	05052e02 	streq	r2, [r5, #-3586]	; 0xfffff1fe
    16c0:	02040200 	andeq	r0, r4, #0, 4
    16c4:	02004b06 	andeq	r4, r0, #6144	; 0x1800
    16c8:	05010204 	streq	r0, [r1, #-516]	; 0xfffffdfc
    16cc:	05690601 	strbeq	r0, [r9, #-1537]!	; 0xfffff9ff
    16d0:	04020005 	streq	r0, [r2], #-5
    16d4:	77030601 	strvc	r0, [r3, -r1, lsl #12]
    16d8:	0402004a 	streq	r0, [r2], #-74	; 0xffffffb6
    16dc:	02000101 	andeq	r0, r0, #1073741824	; 0x40000000
    16e0:	ba060104 	blt	181af8 <__bss_end__+0x177b08>
    16e4:	01040200 	mrseq	r0, R12_usr
    16e8:	02002e06 	andeq	r2, r0, #96	; 0x60
    16ec:	002f0104 	eoreq	r0, pc, r4, lsl #2
    16f0:	2e010402 	cdpcs	4, 0, cr0, cr1, cr2, {0}
    16f4:	01040200 	mrseq	r0, R12_usr
    16f8:	040200d6 	streq	r0, [r2], #-214	; 0xffffff2a
    16fc:	02003001 	andeq	r3, r0, #1, 0
    1700:	002e0104 	eoreq	r0, lr, r4, lsl #2
    1704:	d6010402 	strle	r0, [r1], -r2, lsl #8
    1708:	01040200 	mrseq	r0, R12_usr
    170c:	04020031 	streq	r0, [r2], #-49	; 0xffffffcf
    1710:	02002e01 	andeq	r2, r0, #1, 28
    1714:	05d60104 	ldrbeq	r0, [r6, #260]	; 0x104
    1718:	0809033c 	stmdaeq	r9, {r2, r3, r4, r5, r8, r9}
    171c:	05010674 	streq	r0, [r1, #-1652]	; 0xfffff98c
    1720:	014b0605 	cmpeq	fp, r5, lsl #12
    1724:	02002e06 	andeq	r2, r0, #96	; 0x60
    1728:	2e060204 	cdpcs	2, 0, cr0, cr6, cr4, {0}
    172c:	02040200 	andeq	r0, r4, #0, 4
    1730:	04020001 	streq	r0, [r2], #-1
    1734:	02001302 	andeq	r1, r0, #134217728	; 0x8000000
    1738:	82010204 	andhi	r0, r1, #4, 4	; 0x40000000
    173c:	18050113 	stmdane	r5, {r0, r1, r4, r8}
    1740:	05015803 	streq	r5, [r1, #-2051]	; 0xfffff7fd
    1744:	11051305 	tstne	r5, r5, lsl #6
    1748:	052e0106 	streq	r0, [lr, #-262]!	; 0xfffffefa
    174c:	01270305 			; <UNDEFINED> instruction: 0x01270305
    1750:	02040200 	andeq	r0, r4, #0, 4
    1754:	02004a06 	andeq	r4, r0, #24576	; 0x6000
    1758:	05130204 	ldreq	r0, [r3, #-516]	; 0xfffffdfc
    175c:	04020007 	streq	r0, [r2], #-7
    1760:	05010602 	streq	r0, [r1, #-1538]	; 0xfffff9fe
    1764:	054c0605 	strbeq	r0, [ip, #-1541]	; 0xfffff9fb
    1768:	05010608 	streq	r0, [r1, #-1544]	; 0xfffff9f8
    176c:	4f030618 	svcmi	0x00030618
    1770:	1305054a 	movwne	r0, #21834	; 0x554a
    1774:	01061905 	tsteq	r6, r5, lsl #18
    1778:	0307052e 	movweq	r0, #29998	; 0x752e
    177c:	05050130 	streq	r0, [r5, #-304]	; 0xfffffed0
    1780:	18054d06 	stmdane	r5, {r1, r2, r8, sl, fp, lr}
    1784:	05015503 	streq	r5, [r1, #-1283]	; 0xfffffafd
    1788:	05011305 	streq	r1, [r1, #-773]	; 0xfffffcfb
    178c:	05050e18 	streq	r0, [r5, #-3608]	; 0xfffff1e8
    1790:	06110513 			; <UNDEFINED> instruction: 0x06110513
    1794:	05052e01 	streq	r2, [r5, #-3585]	; 0xfffff1ff
    1798:	014a0615 	cmpeq	sl, r5, lsl r6
    179c:	060e0513 			; <UNDEFINED> instruction: 0x060e0513
    17a0:	16052e01 	strne	r2, [r5], -r1, lsl #28
    17a4:	0e052e2e 	cdpeq	14, 0, cr2, cr5, cr14, {1}
    17a8:	05012903 	streq	r2, [r1, #-2307]	; 0xfffff6fd
    17ac:	054b0605 	strbeq	r0, [fp, #-1541]	; 0xfffff9fb
    17b0:	0501060c 	streq	r0, [r1, #-1548]	; 0xfffff9f4
    17b4:	05052f01 	streq	r2, [r5, #-3841]	; 0xfffff0ff
    17b8:	01040200 	mrseq	r0, R12_usr
    17bc:	4a760306 	bmi	1d823dc <__bss_end__+0x1d783ec>
    17c0:	01040200 	mrseq	r0, R12_usr
    17c4:	04020001 	streq	r0, [r2], #-1
    17c8:	009e0601 	addseq	r0, lr, r1, lsl #12
    17cc:	2e010402 	cdpcs	4, 0, cr0, cr1, cr2, {0}
    17d0:	01040200 	mrseq	r0, R12_usr
    17d4:	02002e06 	andeq	r2, r0, #96	; 0x60
    17d8:	002f0104 	eoreq	r0, pc, r4, lsl #2
    17dc:	2e010402 	cdpcs	4, 0, cr0, cr1, cr2, {0}
    17e0:	01040200 	mrseq	r0, R12_usr
    17e4:	040200d6 	streq	r0, [r2], #-214	; 0xffffff2a
    17e8:	02002f01 	andeq	r2, r0, #1, 30
    17ec:	002e0104 	eoreq	r0, lr, r4, lsl #2
    17f0:	d6010402 	strle	r0, [r1], -r2, lsl #8
    17f4:	05300905 	ldreq	r0, [r0, #-2309]!	; 0xfffff6fb
    17f8:	2e010610 	mcrcs	6, 0, r0, cr1, cr0, {0}
    17fc:	30060905 	andcc	r0, r6, r5, lsl #18
    1800:	01061005 	tsteq	r6, r5
    1804:	0605052e 	streq	r0, [r5], -lr, lsr #10
    1808:	012e5803 			; <UNDEFINED> instruction: 0x012e5803
    180c:	2e822e06 	cdpcs	14, 8, cr2, cr2, cr6, {0}
    1810:	42052e06 	andmi	r2, r5, #96	; 0x60
    1814:	74083203 	strvc	r3, [r8], #-515	; 0xfffffdfd
    1818:	01130505 	tsteq	r3, r5, lsl #10
    181c:	02040200 	andeq	r0, r4, #0, 4
    1820:	04020082 	streq	r0, [r2], #-130	; 0xffffff7e
    1824:	0c051302 	stceq	3, cr1, [r5], {2}
    1828:	02040200 	andeq	r0, r4, #0, 4
    182c:	05050106 	streq	r0, [r5, #-262]	; 0xfffffefa
    1830:	02040200 	andeq	r0, r4, #0, 4
    1834:	18056706 	stmdane	r5, {r1, r2, r8, r9, sl, sp, lr}
    1838:	02040200 	andeq	r0, r4, #0, 4
    183c:	05014a03 	streq	r4, [r1, #-2563]	; 0xfffff5fd
    1840:	04020005 	streq	r0, [r2], #-5
    1844:	02001302 	andeq	r1, r0, #134217728	; 0x8000000
    1848:	00010204 	andeq	r0, r1, r4, lsl #4
    184c:	06020402 	streq	r0, [r2], -r2, lsl #8
    1850:	04020001 	streq	r0, [r2], #-1
    1854:	000f0602 	andeq	r0, pc, r2, lsl #12
    1858:	15020402 	strne	r0, [r2, #-1026]	; 0xfffffbfe
    185c:	02040200 	andeq	r0, r4, #0, 4
    1860:	04020001 	streq	r0, [r2], #-1
    1864:	0e051302 	cdpeq	3, 0, cr1, cr5, cr2, {0}
    1868:	02040200 	andeq	r0, r4, #0, 4
    186c:	16050106 	strne	r0, [r5], -r6, lsl #2
    1870:	02040200 	andeq	r0, r4, #0, 4
    1874:	0402002e 	streq	r0, [r2], #-46	; 0xffffffd2
    1878:	10052e02 	andne	r2, r5, r2, lsl #28
    187c:	02040200 	andeq	r0, r4, #0, 4
    1880:	05013403 	streq	r3, [r1, #-1027]	; 0xfffffbfd
    1884:	04020005 	streq	r0, [r2], #-5
    1888:	052f0602 	streq	r0, [pc, #-1538]!	; 128e <__code_start__-0x6d72>
    188c:	0402000e 	streq	r0, [r2], #-14
    1890:	05010602 	streq	r0, [r1, #-1538]	; 0xfffff9fe
    1894:	04020005 	streq	r0, [r2], #-5
    1898:	052f0602 	streq	r0, [pc, #-1538]!	; 129e <__code_start__-0x6d62>
    189c:	04020016 	streq	r0, [r2], #-22	; 0xffffffea
    18a0:	05010602 	streq	r0, [r1, #-1538]	; 0xfffff9fe
    18a4:	0402000e 	streq	r0, [r2], #-14
    18a8:	42052e02 	andmi	r2, r5, #2, 28
    18ac:	01040200 	mrseq	r0, R12_usr
    18b0:	00050545 	andeq	r0, r5, r5, asr #10
    18b4:	06010402 	streq	r0, [r1], -r2, lsl #8
    18b8:	0402004b 	streq	r0, [r2], #-75	; 0xffffffb5
    18bc:	02002e01 	andeq	r2, r0, #1, 28
    18c0:	05d60104 	ldrbeq	r0, [r6, #260]	; 0x104
    18c4:	ba120319 	blt	482530 <__bss_end__+0x478540>
    18c8:	05130505 	ldreq	r0, [r3, #-1285]	; 0xfffffafb
    18cc:	05010608 	streq	r0, [r1, #-1544]	; 0xfffff9f8
    18d0:	19054a07 	stmdbne	r5, {r0, r1, r2, r9, fp, lr}
    18d4:	06050549 	streq	r0, [r5], -r9, asr #10
    18d8:	06010535 			; <UNDEFINED> instruction: 0x06010535
    18dc:	06160567 	ldreq	r0, [r6], -r7, ror #10
    18e0:	1305056d 	movwne	r0, #21869	; 0x556d
    18e4:	01060e05 	tsteq	r6, r5, lsl #28
    18e8:	05670105 	strbeq	r0, [r7, #-261]!	; 0xfffffefb
    18ec:	054c0620 	strbeq	r0, [ip, #-1568]	; 0xfffff9e0
    18f0:	01051305 	tsteq	r5, r5, lsl #6
    18f4:	1e051306 	cdpne	3, 0, cr1, cr5, cr6, {0}
    18f8:	05058406 	streq	r8, [r5, #-1030]	; 0xfffffbfa
    18fc:	06010513 			; <UNDEFINED> instruction: 0x06010513
    1900:	061e0513 			; <UNDEFINED> instruction: 0x061e0513
    1904:	13050589 	movwne	r0, #21897	; 0x5589
    1908:	13060105 	movwne	r0, #24837	; 0x6105
    190c:	01000802 	tsteq	r0, r2, lsl #16
    1910:	00010e01 	andeq	r0, r1, r1, lsl #28
    1914:	de000300 	cdple	3, 0, cr0, cr0, cr0, {0}
    1918:	02000000 	andeq	r0, r0, #0, 0
    191c:	0d0efb01 	vstreq	d15, [lr, #-4]
    1920:	01010100 	mrseq	r0, (UNDEF: 17)
    1924:	00000001 	andeq	r0, r0, r1
    1928:	01000001 	tsteq	r0, r1
    192c:	696c2f2e 	stmdbvs	ip!, {r1, r2, r3, r5, r8, r9, sl, fp, sp}^
    1930:	2f006362 	svccs	0x00006362
    1934:	72657355 	rsbvc	r7, r5, #1409286145	; 0x54000001
    1938:	6e612f73 	mcrvs	15, 3, r2, cr1, cr3, {3}
    193c:	442f616e 	strtmi	r6, [pc], #-366	; 1944 <__code_start__-0x66bc>
    1940:	6d75636f 	ldclvs	3, cr6, [r5, #-444]!	; 0xfffffe44
    1944:	73746e65 	cmnvc	r4, #1616	; 0x650
    1948:	6863532f 	stmdavs	r3!, {r0, r1, r2, r3, r5, r8, r9, ip, lr}^
    194c:	2f6c6f6f 	svccs	0x006c6f6f
    1950:	6c6c6f43 	stclvs	15, cr6, [ip], #-268	; 0xfffffef4
    1954:	2f656765 	svccs	0x00656765
    1958:	696e754a 	stmdbvs	lr!, {r1, r3, r6, r8, sl, ip, sp, lr}^
    195c:	532f726f 			; <UNDEFINED> instruction: 0x532f726f
    1960:	432f3232 			; <UNDEFINED> instruction: 0x432f3232
    1964:	30343253 	eorscc	r3, r4, r3, asr r2
    1968:	6d2f584c 	stcvs	8, cr5, [pc, #-304]!	; 1840 <__code_start__-0x67c0>
    196c:	646f6379 	strbtvs	r6, [pc], #-889	; 1974 <__code_start__-0x668c>
    1970:	696c2f65 	stmdbvs	ip!, {r0, r2, r5, r6, r8, r9, sl, fp, sp}^
    1974:	2f697062 	svccs	0x00697062
    1978:	6c636e69 	stclvs	14, cr6, [r3], #-420	; 0xfffffe5c
    197c:	00656475 	rsbeq	r6, r5, r5, ror r4
    1980:	7273752f 	rsbsvc	r7, r3, #197132288	; 0xbc00000
    1984:	636f6c2f 	cmnvs	pc, #12032	; 0x2f00
    1988:	432f6c61 			; <UNDEFINED> instruction: 0x432f6c61
    198c:	616c6c65 	cmnvs	ip, r5, ror #24
    1990:	72612f72 	rsbvc	r2, r1, #456	; 0x1c8
    1994:	6f6e2d6d 	svcvs	0x006e2d6d
    1998:	652d656e 	strvs	r6, [sp, #-1390]!	; 0xfffffa92
    199c:	2d696261 	sfmcs	f6, 2, [r9, #-388]!	; 0xfffffe7c
    19a0:	2d392f39 	ldccs	15, cr2, [r9, #-228]!	; 0xffffff1c
    19a4:	39313032 	ldmdbcc	r1!, {r1, r4, r5, ip, sp}
    19a8:	632d3471 			; <UNDEFINED> instruction: 0x632d3471
    19ac:	37303173 			; <UNDEFINED> instruction: 0x37303173
    19b0:	696c2f65 	stmdbvs	ip!, {r0, r2, r5, r6, r8, r9, sl, fp, sp}^
    19b4:	63672f62 	cmnvs	r7, #392	; 0x188
    19b8:	72612f63 	rsbvc	r2, r1, #396	; 0x18c
    19bc:	6f6e2d6d 	svcvs	0x006e2d6d
    19c0:	652d656e 	strvs	r6, [sp, #-1390]!	; 0xfffffa92
    19c4:	2f696261 	svccs	0x00696261
    19c8:	2e322e39 	mrccs	14, 1, r2, cr2, cr9, {1}
    19cc:	6e692f31 	mcrvs	15, 3, r2, cr9, cr1, {1}
    19d0:	64756c63 	ldrbtvs	r6, [r5], #-3171	; 0xfffff39d
    19d4:	6d000065 	stcvs	0, cr0, [r0, #-404]	; 0xfffffe6c
    19d8:	65736d65 	ldrbvs	r6, [r3, #-3429]!	; 0xfffff29b
    19dc:	00632e74 	rsbeq	r2, r3, r4, ror lr
    19e0:	72000001 	andvc	r0, r0, #1, 0
    19e4:	682e6970 	stmdavs	lr!, {r4, r5, r6, r8, fp, sp, lr}
    19e8:	00000200 	andeq	r0, r0, r0, lsl #4
    19ec:	64647473 	strbtvs	r7, [r4], #-1139	; 0xfffffb8d
    19f0:	682e6665 	stmdavs	lr!, {r0, r2, r5, r6, r9, sl, sp, lr}
    19f4:	00000300 	andeq	r0, r0, r0, lsl #6
    19f8:	00290500 	eoreq	r0, r9, r0, lsl #10
    19fc:	8bf00205 	blhi	ffc02218 <__bss_end__+0xffbf8228>
    1a00:	05150000 	ldreq	r0, [r5, #-0]
    1a04:	14051305 	strne	r1, [r5], #-773	; 0xfffffcfb
    1a08:	05050106 	streq	r0, [r5, #-262]	; 0xfffffefa
    1a0c:	0b053006 	bleq	14da2c <__bss_end__+0x143a3c>
    1a10:	0a051006 	beq	145a30 <__bss_end__+0x13ba40>
    1a14:	09053006 	stmdbeq	r5, {r1, r2, ip, sp}
    1a18:	060e054b 	streq	r0, [lr], -fp, asr #10
    1a1c:	02022e01 	andeq	r2, r2, #1, 28
    1a20:	2d010100 	stfcss	f0, [r1, #-0]
    1a24:	03000001 	movweq	r0, #1
    1a28:	0000fb00 	andeq	pc, r0, r0, lsl #22
    1a2c:	fb010200 	blx	42236 <__bss_end__+0x38246>
    1a30:	01000d0e 	tsteq	r0, lr, lsl #26
    1a34:	00010101 	andeq	r0, r1, r1, lsl #2
    1a38:	00010000 	andeq	r0, r1, r0
    1a3c:	2f2e0100 	svccs	0x002e0100
    1a40:	6362696c 	cmnvs	r2, #108, 18	; 0x1b0000
    1a44:	73752f00 	cmnvc	r5, #0, 30
    1a48:	6f6c2f72 	svcvs	0x006c2f72
    1a4c:	2f6c6163 	svccs	0x006c6163
    1a50:	6c6c6543 	cfstr64vs	mvdx6, [ip], #-268	; 0xfffffef4
    1a54:	612f7261 			; <UNDEFINED> instruction: 0x612f7261
    1a58:	6e2d6d72 	mcrvs	13, 1, r6, cr13, cr2, {3}
    1a5c:	2d656e6f 	stclcs	14, cr6, [r5, #-444]!	; 0xfffffe44
    1a60:	69626165 	stmdbvs	r2!, {r0, r2, r5, r6, r8, sp, lr}^
    1a64:	392f392d 	stmdbcc	pc!, {r0, r2, r3, r5, r8, fp, ip, sp}	; <UNPREDICTABLE>
    1a68:	3130322d 	teqcc	r0, sp, lsr #4
    1a6c:	2d347139 	ldfcss	f7, [r4, #-228]!	; 0xffffff1c
    1a70:	30317363 	eorscc	r7, r1, r3, ror #6
    1a74:	6c2f6537 	cfstr32vs	mvfx6, [pc], #-220	; 19a0 <__code_start__-0x6660>
    1a78:	672f6269 	strvs	r6, [pc, -r9, ror #4]!
    1a7c:	612f6363 			; <UNDEFINED> instruction: 0x612f6363
    1a80:	6e2d6d72 	mcrvs	13, 1, r6, cr13, cr2, {3}
    1a84:	2d656e6f 	stclcs	14, cr6, [r5, #-444]!	; 0xfffffe44
    1a88:	69626165 	stmdbvs	r2!, {r0, r2, r5, r6, r8, sp, lr}^
    1a8c:	322e392f 	eorcc	r3, lr, #770048	; 0xbc000
    1a90:	692f312e 	stmdbvs	pc!, {r1, r2, r3, r5, r8, ip, sp}	; <UNPREDICTABLE>
    1a94:	756c636e 	strbvc	r6, [ip, #-878]!	; 0xfffffc92
    1a98:	2f006564 	svccs	0x00006564
    1a9c:	72657355 	rsbvc	r7, r5, #1409286145	; 0x54000001
    1aa0:	6e612f73 	mcrvs	15, 3, r2, cr1, cr3, {3}
    1aa4:	442f616e 	strtmi	r6, [pc], #-366	; 1aac <__code_start__-0x6554>
    1aa8:	6d75636f 	ldclvs	3, cr6, [r5, #-444]!	; 0xfffffe44
    1aac:	73746e65 	cmnvc	r4, #1616	; 0x650
    1ab0:	6863532f 	stmdavs	r3!, {r0, r1, r2, r3, r5, r8, r9, ip, lr}^
    1ab4:	2f6c6f6f 	svccs	0x006c6f6f
    1ab8:	6c6c6f43 	stclvs	15, cr6, [ip], #-268	; 0xfffffef4
    1abc:	2f656765 	svccs	0x00656765
    1ac0:	696e754a 	stmdbvs	lr!, {r1, r3, r6, r8, sl, ip, sp, lr}^
    1ac4:	532f726f 			; <UNDEFINED> instruction: 0x532f726f
    1ac8:	432f3232 			; <UNDEFINED> instruction: 0x432f3232
    1acc:	30343253 	eorscc	r3, r4, r3, asr r2
    1ad0:	6d2f584c 	stcvs	8, cr5, [pc, #-304]!	; 19a8 <__code_start__-0x6658>
    1ad4:	646f6379 	strbtvs	r6, [pc], #-889	; 1adc <__code_start__-0x6524>
    1ad8:	696c2f65 	stmdbvs	ip!, {r0, r2, r5, r6, r8, r9, sl, fp, sp}^
    1adc:	2f697062 	svccs	0x00697062
    1ae0:	6c636e69 	stclvs	14, cr6, [r3], #-420	; 0xfffffe5c
    1ae4:	00656475 	rsbeq	r6, r5, r5, ror r4
    1ae8:	69727000 	ldmdbvs	r2!, {ip, sp, lr}^
    1aec:	2e6b746e 	cdpcs	4, 6, cr7, cr11, cr14, {3}
    1af0:	00010063 	andeq	r0, r1, r3, rrx
    1af4:	64747300 	ldrbtvs	r7, [r4], #-768	; 0xfffffd00
    1af8:	2e677261 	cdpcs	2, 6, cr7, cr7, cr1, {3}
    1afc:	00020068 	andeq	r0, r2, r8, rrx
    1b00:	69707200 	ldmdbvs	r0!, {r9, ip, sp, lr}^
    1b04:	0300682e 	movweq	r6, #2094	; 0x82e
    1b08:	623c0000 	eorsvs	r0, ip, #0, 0
    1b0c:	746c6975 	strbtvc	r6, [ip], #-2421	; 0xfffff68b
    1b10:	3e6e692d 	vmulcc.f16	s13, s28, s27	; <UNPREDICTABLE>
    1b14:	00000000 	andeq	r0, r0, r0
    1b18:	702d6176 	eorvc	r6, sp, r6, ror r1
    1b1c:	746e6972 	strbtvc	r6, [lr], #-2418	; 0xfffff68e
    1b20:	00682e6b 	rsbeq	r2, r8, fp, ror #28
    1b24:	00000001 	andeq	r0, r0, r1
    1b28:	05002205 	streq	r2, [r0, #-517]	; 0xfffffdfb
    1b2c:	008c0802 	addeq	r0, ip, r2, lsl #16
    1b30:	01061700 	tsteq	r6, r0, lsl #14
    1b34:	68060505 	stmdavs	r6, {r0, r2, r8, sl}
    1b38:	09051413 	stmdbeq	r5, {r0, r1, r4, sl, ip}
    1b3c:	0612054b 	ldreq	r0, [r2], -fp, asr #10
    1b40:	06050501 	streq	r0, [r5], -r1, lsl #10
    1b44:	660616bb 			; <UNDEFINED> instruction: 0x660616bb
    1b48:	01053406 	tsteq	r5, r6, lsl #8
    1b4c:	02661306 	rsbeq	r1, r6, #402653184	; 0x18000000
    1b50:	01010008 	tsteq	r1, r8
    1b54:	000000bb 	strheq	r0, [r0], -fp
    1b58:	007d0003 	rsbseq	r0, sp, r3
    1b5c:	01020000 	mrseq	r0, (UNDEF: 2)
    1b60:	000d0efb 	strdeq	r0, [sp], -fp
    1b64:	01010101 	tsteq	r1, r1, lsl #2
    1b68:	01000000 	mrseq	r0, (UNDEF: 0)
    1b6c:	2e010000 	cdpcs	0, 0, cr0, cr1, cr0, {0}
    1b70:	62696c2f 	rsbvs	r6, r9, #12032	; 0x2f00
    1b74:	552f0063 	strpl	r0, [pc, #-99]!	; 1b19 <__code_start__-0x64e7>
    1b78:	73726573 	cmnvc	r2, #482344960	; 0x1cc00000
    1b7c:	6e6e612f 	powvsep	f6, f6, #10.0
    1b80:	6f442f61 	svcvs	0x00442f61
    1b84:	656d7563 	strbvs	r7, [sp, #-1379]!	; 0xfffffa9d
    1b88:	2f73746e 	svccs	0x0073746e
    1b8c:	6f686353 	svcvs	0x00686353
    1b90:	432f6c6f 			; <UNDEFINED> instruction: 0x432f6c6f
    1b94:	656c6c6f 	strbvs	r6, [ip, #-3183]!	; 0xfffff391
    1b98:	4a2f6567 	bmi	bdb13c <__bss_end__+0xbd114c>
    1b9c:	6f696e75 	svcvs	0x00696e75
    1ba0:	32532f72 	subscc	r2, r3, #456	; 0x1c8
    1ba4:	53432f32 	movtpl	r2, #16178	; 0x3f32
    1ba8:	4c303432 	cfldrsmi	mvf3, [r0], #-200	; 0xffffff38
    1bac:	796d2f58 	stmdbvc	sp!, {r3, r4, r6, r8, r9, sl, fp, sp}^
    1bb0:	65646f63 	strbvs	r6, [r4, #-3939]!	; 0xfffff09d
    1bb4:	62696c2f 	rsbvs	r6, r9, #12032	; 0x2f00
    1bb8:	692f6970 	stmdbvs	pc!, {r4, r5, r6, r8, fp, sp, lr}	; <UNPREDICTABLE>
    1bbc:	756c636e 	strbvc	r6, [ip, #-878]!	; 0xfffffc92
    1bc0:	00006564 	andeq	r6, r0, r4, ror #10
    1bc4:	63747570 	cmnvs	r4, #112, 10	; 0x1c000000
    1bc8:	2e726168 	rpwcssz	f6, f2, #0.0
    1bcc:	00010063 	andeq	r0, r1, r3, rrx
    1bd0:	69707200 	ldmdbvs	r0!, {r9, ip, sp, lr}^
    1bd4:	0200682e 	andeq	r6, r0, #3014656	; 0x2e0000
    1bd8:	05000000 	streq	r0, [r0, #-0]
    1bdc:	02050024 	andeq	r0, r5, #36, 0	; 0x24
    1be0:	00008c60 	andeq	r8, r0, r0, ror #24
    1be4:	05010614 	streq	r0, [r1, #-1556]	; 0xfffff9ec
    1be8:	054a0626 	strbeq	r0, [sl, #-1574]	; 0xfffff9da
    1bec:	01052e34 	tsteq	r5, r4, lsr lr
    1bf0:	1b050106 	blne	142010 <__bss_end__+0x138020>
    1bf4:	05054f06 	streq	r4, [r5, #-3846]	; 0xfffff0fa
    1bf8:	06110513 			; <UNDEFINED> instruction: 0x06110513
    1bfc:	67010501 	strvs	r0, [r1, -r1, lsl #10]
    1c00:	67062305 	strvs	r2, [r6, -r5, lsl #6]
    1c04:	05130505 	ldreq	r0, [r3, #-1285]	; 0xfffffafb
    1c08:	05010611 	streq	r0, [r1, #-1553]	; 0xfffff9ef
    1c0c:	04024b01 	streq	r4, [r2], #-2817	; 0xfffff4ff
    1c10:	c8010100 	stmdagt	r1, {r8}
    1c14:	03000000 	movweq	r0, #0
    1c18:	00007a00 	andeq	r7, r0, r0, lsl #20
    1c1c:	fb010200 	blx	42426 <__bss_end__+0x38436>
    1c20:	01000d0e 	tsteq	r0, lr, lsl #26
    1c24:	00010101 	andeq	r0, r1, r1, lsl #2
    1c28:	00010000 	andeq	r0, r1, r0
    1c2c:	2f2e0100 	svccs	0x002e0100
    1c30:	6362696c 	cmnvs	r2, #108, 18	; 0x1b0000
    1c34:	73552f00 	cmpvc	r5, #0, 30
    1c38:	2f737265 	svccs	0x00737265
    1c3c:	616e6e61 	cmnvs	lr, r1, ror #28
    1c40:	636f442f 	cmnvs	pc, #788529152	; 0x2f000000
    1c44:	6e656d75 	mcrvs	13, 3, r6, cr5, cr5, {3}
    1c48:	532f7374 			; <UNDEFINED> instruction: 0x532f7374
    1c4c:	6f6f6863 	svcvs	0x006f6863
    1c50:	6f432f6c 	svcvs	0x00432f6c
    1c54:	67656c6c 	strbvs	r6, [r5, -ip, ror #24]!
    1c58:	754a2f65 	strbvc	r2, [sl, #-3941]	; 0xfffff09b
    1c5c:	726f696e 	rsbvc	r6, pc, #1802240	; 0x1b8000
    1c60:	3232532f 	eorscc	r5, r2, #-1140850688	; 0xbc000000
    1c64:	3253432f 	subscc	r4, r3, #-1140850688	; 0xbc000000
    1c68:	584c3034 	stmdapl	ip, {r2, r4, r5, ip, sp}^
    1c6c:	63796d2f 	cmnvs	r9, #3008	; 0xbc0
    1c70:	2f65646f 	svccs	0x0065646f
    1c74:	7062696c 	rsbvc	r6, r2, ip, ror #18
    1c78:	6e692f69 	cdpvs	15, 6, cr2, cr9, cr9, {3}
    1c7c:	64756c63 	ldrbtvs	r6, [r5], #-3171	; 0xfffff39d
    1c80:	70000065 	andvc	r0, r0, r5, rrx
    1c84:	2e6b7475 	mcrcs	4, 3, r7, cr11, cr5, {3}
    1c88:	00010063 	andeq	r0, r1, r3, rrx
    1c8c:	69707200 	ldmdbvs	r0!, {r9, ip, sp, lr}^
    1c90:	0200682e 	andeq	r6, r0, #3014656	; 0x2e0000
    1c94:	05000000 	streq	r0, [r0, #-0]
    1c98:	02050022 	andeq	r0, r5, #34, 0	; 0x22
    1c9c:	00008c9c 	muleq	r0, ip, ip
    1ca0:	05010615 	streq	r0, [r1, #-1557]	; 0xfffff9eb
    1ca4:	054b0605 	strbeq	r0, [fp, #-1541]	; 0xfffff9fb
    1ca8:	0402000b 	streq	r0, [r2], #-11
    1cac:	05050101 	streq	r0, [r5, #-257]	; 0xfffffeff
    1cb0:	01040200 	mrseq	r0, R12_usr
    1cb4:	09052e06 	stmdbeq	r5, {r1, r2, r9, sl, fp, sp}
    1cb8:	02040200 	andeq	r0, r4, #0, 4
    1cbc:	0f054b06 	svceq	0x00054b06
    1cc0:	02040200 	andeq	r0, r4, #0, 4
    1cc4:	00100565 	andseq	r0, r0, r5, ror #10
    1cc8:	06020402 	streq	r0, [r2], -r2, lsl #8
    1ccc:	04020001 	streq	r0, [r2], #-1
    1cd0:	05052e02 	streq	r2, [r5, #-3586]	; 0xfffff1fe
    1cd4:	01053206 	tsteq	r5, r6, lsl #4
    1cd8:	06021306 	streq	r1, [r2], -r6, lsl #6
    1cdc:	17010100 	strne	r0, [r1, -r0, lsl #2]
    1ce0:	03000006 	movweq	r0, #6
    1ce4:	00011100 	andeq	r1, r1, r0, lsl #2
    1ce8:	fb010200 	blx	424f2 <__bss_end__+0x38502>
    1cec:	01000d0e 	tsteq	r0, lr, lsl #26
    1cf0:	00010101 	andeq	r0, r1, r1, lsl #2
    1cf4:	00010000 	andeq	r0, r1, r0
    1cf8:	2f2e0100 	svccs	0x002e0100
    1cfc:	6362696c 	cmnvs	r2, #108, 18	; 0x1b0000
    1d00:	73752f00 	cmnvc	r5, #0, 30
    1d04:	6f6c2f72 	svcvs	0x006c2f72
    1d08:	2f6c6163 	svccs	0x006c6163
    1d0c:	6c6c6543 	cfstr64vs	mvdx6, [ip], #-268	; 0xfffffef4
    1d10:	612f7261 			; <UNDEFINED> instruction: 0x612f7261
    1d14:	6e2d6d72 	mcrvs	13, 1, r6, cr13, cr2, {3}
    1d18:	2d656e6f 	stclcs	14, cr6, [r5, #-444]!	; 0xfffffe44
    1d1c:	69626165 	stmdbvs	r2!, {r0, r2, r5, r6, r8, sp, lr}^
    1d20:	392f392d 	stmdbcc	pc!, {r0, r2, r3, r5, r8, fp, ip, sp}	; <UNPREDICTABLE>
    1d24:	3130322d 	teqcc	r0, sp, lsr #4
    1d28:	2d347139 	ldfcss	f7, [r4, #-228]!	; 0xffffff1c
    1d2c:	30317363 	eorscc	r7, r1, r3, ror #6
    1d30:	6c2f6537 	cfstr32vs	mvfx6, [pc], #-220	; 1c5c <__code_start__-0x63a4>
    1d34:	672f6269 	strvs	r6, [pc, -r9, ror #4]!
    1d38:	612f6363 			; <UNDEFINED> instruction: 0x612f6363
    1d3c:	6e2d6d72 	mcrvs	13, 1, r6, cr13, cr2, {3}
    1d40:	2d656e6f 	stclcs	14, cr6, [r5, #-444]!	; 0xfffffe44
    1d44:	69626165 	stmdbvs	r2!, {r0, r2, r5, r6, r8, sp, lr}^
    1d48:	322e392f 	eorcc	r3, lr, #770048	; 0xbc000
    1d4c:	692f312e 	stmdbvs	pc!, {r1, r2, r3, r5, r8, ip, sp}	; <UNPREDICTABLE>
    1d50:	756c636e 	strbvc	r6, [ip, #-878]!	; 0xfffffc92
    1d54:	2f006564 	svccs	0x00006564
    1d58:	72657355 	rsbvc	r7, r5, #1409286145	; 0x54000001
    1d5c:	6e612f73 	mcrvs	15, 3, r2, cr1, cr3, {3}
    1d60:	442f616e 	strtmi	r6, [pc], #-366	; 1d68 <__code_start__-0x6298>
    1d64:	6d75636f 	ldclvs	3, cr6, [r5, #-444]!	; 0xfffffe44
    1d68:	73746e65 	cmnvc	r4, #1616	; 0x650
    1d6c:	6863532f 	stmdavs	r3!, {r0, r1, r2, r3, r5, r8, r9, ip, lr}^
    1d70:	2f6c6f6f 	svccs	0x006c6f6f
    1d74:	6c6c6f43 	stclvs	15, cr6, [ip], #-268	; 0xfffffef4
    1d78:	2f656765 	svccs	0x00656765
    1d7c:	696e754a 	stmdbvs	lr!, {r1, r3, r6, r8, sl, ip, sp, lr}^
    1d80:	532f726f 			; <UNDEFINED> instruction: 0x532f726f
    1d84:	432f3232 			; <UNDEFINED> instruction: 0x432f3232
    1d88:	30343253 	eorscc	r3, r4, r3, asr r2
    1d8c:	6d2f584c 	stcvs	8, cr5, [pc, #-304]!	; 1c64 <__code_start__-0x639c>
    1d90:	646f6379 	strbtvs	r6, [pc], #-889	; 1d98 <__code_start__-0x6268>
    1d94:	696c2f65 	stmdbvs	ip!, {r0, r2, r5, r6, r8, r9, sl, fp, sp}^
    1d98:	2f697062 	svccs	0x00697062
    1d9c:	6c636e69 	stclvs	14, cr6, [r3], #-420	; 0xfffffe5c
    1da0:	00656475 	rsbeq	r6, r5, r5, ror r4
    1da4:	2d617600 	stclcs	6, cr7, [r1, #-0]
    1da8:	6e697270 	mcrvs	2, 3, r7, cr9, cr0, {3}
    1dac:	632e6b74 			; <UNDEFINED> instruction: 0x632e6b74
    1db0:	00000100 	andeq	r0, r0, r0, lsl #2
    1db4:	69647473 	stmdbvs	r4!, {r0, r1, r4, r5, r6, sl, ip, sp, lr}^
    1db8:	672d746e 	strvs	r7, [sp, -lr, ror #8]!
    1dbc:	682e6363 	stmdavs	lr!, {r0, r1, r5, r6, r8, r9, sp, lr}
    1dc0:	00000200 	andeq	r0, r0, r0, lsl #4
    1dc4:	2e697072 	mcrcs	0, 3, r7, cr9, cr2, {3}
    1dc8:	00030068 	andeq	r0, r3, r8, rrx
    1dcc:	69707200 	ldmdbvs	r0!, {r9, ip, sp, lr}^
    1dd0:	746e692d 	strbtvc	r6, [lr], #-2349	; 0xfffff6d3
    1dd4:	616e7265 	cmnvs	lr, r5, ror #4
    1dd8:	00682e6c 	rsbeq	r2, r8, ip, ror #28
    1ddc:	73000003 	movwvc	r0, #3
    1de0:	72616474 	rsbvc	r6, r1, #116, 8	; 0x74000000
    1de4:	00682e67 	rsbeq	r2, r8, r7, ror #28
    1de8:	3c000002 	stccc	0, cr0, [r0], {2}
    1dec:	6c697562 	cfstr64vs	mvdx7, [r9], #-392	; 0xfffffe78
    1df0:	6e692d74 	mcrvs	13, 3, r2, cr9, cr4, {3}
    1df4:	0000003e 	andeq	r0, r0, lr, lsr r0
    1df8:	1b050000 	blne	141e00 <__bss_end__+0x137e10>
    1dfc:	d0020500 	andle	r0, r2, r0, lsl #10
    1e00:	0300008c 	movweq	r0, #140	; 0x8c
    1e04:	1d050126 	stfnes	f0, [r5, #-152]	; 0xffffff68
    1e08:	062d0501 	strteq	r0, [sp], -r1, lsl #10
    1e0c:	2e010501 	cfsh32cs	mvfx0, mvfx1, #1
    1e10:	0633054a 	ldrteq	r0, [r3], -sl, asr #10
    1e14:	13020551 	movwne	r0, #9553	; 0x2551
    1e18:	01060605 	tsteq	r6, r5, lsl #12
    1e1c:	30060205 	andcc	r0, r6, r5, lsl #4
    1e20:	02000805 	andeq	r0, r0, #327680	; 0x50000
    1e24:	05010104 	streq	r0, [r1, #-260]	; 0xfffffefc
    1e28:	04020002 	streq	r0, [r2], #-2
    1e2c:	05010601 	streq	r0, [r1, #-1537]	; 0xfffff9ff
    1e30:	04020003 	streq	r0, [r2], #-3
    1e34:	052f0602 	streq	r0, [pc, #-1538]!	; 183a <__code_start__-0x67c6>
    1e38:	04020008 	streq	r0, [r2], #-8
    1e3c:	05010602 	streq	r0, [r1, #-1538]	; 0xfffff9fe
    1e40:	04020015 	streq	r0, [r2], #-21	; 0xffffffeb
    1e44:	05490602 	strbeq	r0, [r9, #-1538]	; 0xfffff9fe
    1e48:	04020018 	streq	r0, [r2], #-24	; 0xffffffe8
    1e4c:	00010602 	andeq	r0, r1, r2, lsl #12
    1e50:	2e020402 	cdpcs	4, 0, cr0, cr2, cr2, {0}
    1e54:	30060205 	andcc	r0, r6, r5, lsl #4
    1e58:	01060505 	tsteq	r6, r5, lsl #10
    1e5c:	4b060205 	blmi	182678 <__bss_end__+0x178688>
    1e60:	13060105 	movwne	r0, #24837	; 0x6105
    1e64:	31063e05 	tstcc	r6, r5, lsl #28
    1e68:	05140205 	ldreq	r0, [r4, #-517]	; 0xfffffdfb
    1e6c:	0501060e 	streq	r0, [r1, #-1550]	; 0xfffff9f2
    1e70:	02052e06 	andeq	r2, r5, #96	; 0x60
    1e74:	04052f06 	streq	r2, [r5], #-3846	; 0xfffff0fa
    1e78:	03050106 	movweq	r0, #20742	; 0x5106
    1e7c:	11052f06 	tstne	r5, r6, lsl #30
    1e80:	09050106 	stmdbeq	r5, {r1, r2, r8}
    1e84:	0602052e 	streq	r0, [r2], -lr, lsr #10
    1e88:	07051530 	smladxeq	r5, r0, r5, r1
    1e8c:	02050106 	andeq	r0, r5, #-2147483647	; 0x80000001
    1e90:	000b052e 	andeq	r0, fp, lr, lsr #10
    1e94:	06010402 	streq	r0, [r1], -r2, lsl #8
    1e98:	0002052e 	andeq	r0, r2, lr, lsr #10
    1e9c:	06010402 	streq	r0, [r1], -r2, lsl #8
    1ea0:	00030501 	andeq	r0, r3, r1, lsl #10
    1ea4:	06030402 	streq	r0, [r3], -r2, lsl #8
    1ea8:	000c052f 	andeq	r0, ip, pc, lsr #10
    1eac:	06030402 	streq	r0, [r3], -r2, lsl #8
    1eb0:	000a0501 	andeq	r0, sl, r1, lsl #10
    1eb4:	2e030402 	cdpcs	4, 0, cr0, cr3, cr2, {0}
    1eb8:	02001705 	andeq	r1, r0, #1310720	; 0x140000
    1ebc:	2d060304 	stccs	3, cr0, [r6, #-16]
    1ec0:	03040200 	movweq	r0, #16896	; 0x4200
    1ec4:	02050106 	andeq	r0, r5, #-2147483647	; 0x80000001
    1ec8:	09053006 	stmdbeq	r5, {r1, r2, ip, sp}
    1ecc:	052e0106 	streq	r0, [lr, #-262]!	; 0xfffffefa
    1ed0:	05300602 	ldreq	r0, [r0, #-1538]!	; 0xfffff9fe
    1ed4:	05130601 	ldreq	r0, [r3, #-1537]	; 0xfffff9ff
    1ed8:	06310649 	ldrteq	r0, [r1], -r9, asr #12
    1edc:	06020501 	streq	r0, [r2], -r1, lsl #10
    1ee0:	060405a0 	streq	r0, [r4], -r0, lsr #11
    1ee4:	06030501 	streq	r0, [r3], -r1, lsl #10
    1ee8:	0609052f 	streq	r0, [r9], -pc, lsr #10
    1eec:	06020501 	streq	r0, [r2], -r1, lsl #10
    1ef0:	0b051330 	bleq	146bb8 <__bss_end__+0x13cbc8>
    1ef4:	02050106 	andeq	r0, r5, #-2147483647	; 0x80000001
    1ef8:	2e063006 	cdpcs	0, 0, cr3, cr6, cr6, {0}
    1efc:	02060405 	andeq	r0, r6, #83886080	; 0x5000000
    1f00:	05131524 	ldreq	r1, [r3, #-1316]	; 0xfffffadc
    1f04:	2e01060f 	cfmadd32cs	mvax0, mvfx0, mvfx1, mvfx15
    1f08:	054a0605 	strbeq	r0, [sl, #-1541]	; 0xfffff9fb
    1f0c:	134b0605 	movtne	r0, #46597	; 0xb605
    1f10:	01060905 	tsteq	r6, r5, lsl #18
    1f14:	2f060505 	svccs	0x00060505
    1f18:	10060b05 	andne	r0, r6, r5, lsl #22
    1f1c:	02000d05 	andeq	r0, r0, #320	; 0x140
    1f20:	052c0104 	streq	r0, [ip, #-260]!	; 0xfffffefc
    1f24:	04020004 	streq	r0, [r2], #-4
    1f28:	05340601 	ldreq	r0, [r4, #-1537]!	; 0xfffff9ff
    1f2c:	04020005 	streq	r0, [r2], #-5
    1f30:	1b051301 	blne	146b3c <__bss_end__+0x13cb4c>
    1f34:	01040200 	mrseq	r0, R12_usr
    1f38:	07050106 	streq	r0, [r5, -r6, lsl #2]
    1f3c:	01040200 	mrseq	r0, R12_usr
    1f40:	001805d6 			; <UNDEFINED> instruction: 0x001805d6
    1f44:	2e010402 	cdpcs	4, 0, cr0, cr1, cr2, {0}
    1f48:	02000a05 	andeq	r0, r0, #20480	; 0x5000
    1f4c:	054a0104 	strbeq	r0, [sl, #-260]	; 0xfffffefc
    1f50:	0402000b 	streq	r0, [r2], #-11
    1f54:	052f0601 	streq	r0, [pc, #-1537]!	; 195b <__code_start__-0x66a5>
    1f58:	0402000e 	streq	r0, [r2], #-14
    1f5c:	052e0601 	streq	r0, [lr, #-1537]!	; 0xfffff9ff
    1f60:	04020004 	streq	r0, [r2], #-4
    1f64:	4b062e01 	blmi	18d770 <__bss_end__+0x183780>
    1f68:	01060605 	tsteq	r6, r5, lsl #12
    1f6c:	2f060505 	svccs	0x00060505
    1f70:	01060a05 	tsteq	r6, r5, lsl #20
    1f74:	2e4a0705 	cdpcs	7, 4, cr0, cr10, cr5, {0}
    1f78:	76030d05 	strvc	r0, [r3], -r5, lsl #26
    1f7c:	0b054a2e 	bleq	15483c <__bss_end__+0x14a84c>
    1f80:	000d050d 	andeq	r0, sp, sp, lsl #10
    1f84:	06010402 	streq	r0, [r1], -r2, lsl #8
    1f88:	052e1403 	streq	r1, [lr, #-1027]!	; 0xfffffbfd
    1f8c:	04020011 	streq	r0, [r2], #-17	; 0xffffffef
    1f90:	2d051301 	stccs	3, cr1, [r5, #-4]
    1f94:	01040200 	mrseq	r0, R12_usr
    1f98:	2a050106 	bcs	1423b8 <__bss_end__+0x1383c8>
    1f9c:	01040200 	mrseq	r0, R12_usr
    1fa0:	0016052e 	andseq	r0, r6, lr, lsr #10
    1fa4:	4a010402 	bmi	42fb4 <__bss_end__+0x38fc4>
    1fa8:	02001405 	andeq	r1, r0, #83886080	; 0x5000000
    1fac:	4b060104 	blmi	1823c4 <__bss_end__+0x1783d4>
    1fb0:	02000d05 	andeq	r0, r0, #320	; 0x140
    1fb4:	01060104 	tsteq	r6, r4, lsl #2
    1fb8:	01040200 	mrseq	r0, R12_usr
    1fbc:	052f064a 	streq	r0, [pc, #-1610]!	; 197a <__code_start__-0x6686>
    1fc0:	4a010612 	bmi	43810 <__bss_end__+0x39820>
    1fc4:	2f060d05 	svccs	0x00060d05
    1fc8:	01061205 	tsteq	r6, r5, lsl #4
    1fcc:	4b061905 	blmi	1883e8 <__bss_end__+0x17e3f8>
    1fd0:	02000405 	andeq	r0, r0, #83886080	; 0x5000000
    1fd4:	11030204 	tstne	r3, r4, lsl #4
    1fd8:	04020001 	streq	r0, [r2], #-1
    1fdc:	02050102 	andeq	r0, r5, #-2147483648	; 0x80000000
    1fe0:	02040200 	andeq	r0, r4, #0, 4
    1fe4:	00090515 	andeq	r0, r9, r5, lsl r5
    1fe8:	06020402 	streq	r0, [r2], -r2, lsl #8
    1fec:	04020001 	streq	r0, [r2], #-1
    1ff0:	01054a02 	tsteq	r5, r2, lsl #20
    1ff4:	02040200 	andeq	r0, r4, #0, 4
    1ff8:	0604059f 			; <UNDEFINED> instruction: 0x0604059f
    1ffc:	054a6e03 	strbeq	r6, [sl, #-3587]	; 0xfffff1fd
    2000:	05010609 	streq	r0, [r1, #-1545]	; 0xfffff9f7
    2004:	052f0604 	streq	r0, [pc, #-1540]!	; 1a08 <__code_start__-0x65f8>
    2008:	05110606 	ldreq	r0, [r1, #-1542]	; 0xfffff9fa
    200c:	0b052f04 	bleq	14dc24 <__bss_end__+0x143c34>
    2010:	052e6303 	streq	r6, [lr, #-771]!	; 0xfffffcfd
    2014:	04020019 	streq	r0, [r2], #-25	; 0xffffffe7
    2018:	24030601 	strcs	r0, [r3], #-1537	; 0xfffff9ff
    201c:	001a052e 	andseq	r0, sl, lr, lsr #10
    2020:	13010402 	movwne	r0, #5122	; 0x1402
    2024:	02002805 	andeq	r2, r0, #327680	; 0x50000
    2028:	01060104 	tsteq	r6, r4, lsl #2
    202c:	02002505 	andeq	r2, r0, #20971520	; 0x1400000
    2030:	052e0104 	streq	r0, [lr, #-260]!	; 0xfffffefc
    2034:	0402001f 	streq	r0, [r2], #-31	; 0xffffffe1
    2038:	0b054a01 	bleq	154844 <__bss_end__+0x14a854>
    203c:	01040200 	mrseq	r0, R12_usr
    2040:	04054b06 	streq	r4, [r5], #-2822	; 0xfffff4fa
    2044:	01040200 	mrseq	r0, R12_usr
    2048:	02000106 	andeq	r0, r0, #-2147483647	; 0x80000001
    204c:	004a0104 	subeq	r0, sl, r4, lsl #2
    2050:	06010402 	streq	r0, [r1], -r2, lsl #8
    2054:	0402004e 	streq	r0, [r2], #-78	; 0xffffffb2
    2058:	02000101 	andeq	r0, r0, #1073741824	; 0x40000000
    205c:	00010104 	andeq	r0, r1, r4, lsl #2
    2060:	01010402 	tsteq	r1, r2, lsl #8
    2064:	01040200 	mrseq	r0, R12_usr
    2068:	02002e06 	andeq	r2, r0, #96	; 0x60
    206c:	00660104 	rsbeq	r0, r6, r4, lsl #2
    2070:	2e010402 	cdpcs	4, 0, cr0, cr1, cr2, {0}
    2074:	01040200 	mrseq	r0, R12_usr
    2078:	48054a06 	stmdami	r5, {r1, r2, r9, fp, lr}
    207c:	087fa603 	ldmdaeq	pc!, {r0, r1, r9, sl, sp, pc}^	; <UNPREDICTABLE>
    2080:	13050520 	movwne	r0, #21792	; 0x5520
    2084:	002e0601 	eoreq	r0, lr, r1, lsl #12
    2088:	06020402 	streq	r0, [r2], -r2, lsl #8
    208c:	0402002e 	streq	r0, [r2], #-46	; 0xffffffd2
    2090:	02000102 	andeq	r0, r0, #-2147483648	; 0x80000000
    2094:	05130204 	ldreq	r0, [r3, #-516]	; 0xfffffdfc
    2098:	04020011 	streq	r0, [r2], #-17	; 0xffffffef
    209c:	05010602 	streq	r0, [r1, #-1538]	; 0xfffff9fe
    20a0:	04020005 	streq	r0, [r2], #-5
    20a4:	054b0602 	strbeq	r0, [fp, #-1538]	; 0xfffff9fe
    20a8:	04020007 	streq	r0, [r2], #-7
    20ac:	05010602 	streq	r0, [r1, #-1538]	; 0xfffff9fe
    20b0:	054b0609 	strbeq	r0, [fp, #-1545]	; 0xfffff9f7
    20b4:	0501060e 	streq	r0, [r1, #-1550]	; 0xfffff9f2
    20b8:	04020048 	streq	r0, [r2], #-72	; 0xffffffb8
    20bc:	05056201 	streq	r6, [r5, #-513]	; 0xfffffdff
    20c0:	01040200 	mrseq	r0, R12_usr
    20c4:	02004b06 	andeq	r4, r0, #6144	; 0x1800
    20c8:	00010104 	andeq	r0, r1, r4, lsl #2
    20cc:	06010402 	streq	r0, [r1], -r2, lsl #8
    20d0:	0402009e 	streq	r0, [r2], #-158	; 0xffffff62
    20d4:	02002e01 	andeq	r2, r0, #1, 28
    20d8:	2e060104 	adfcss	f0, f6, f4
    20dc:	e1034005 	tst	r3, r5
    20e0:	0106d600 	tsteq	r6, r0, lsl #12
    20e4:	9f060205 	svcls	0x00060205
    20e8:	01061e05 	tsteq	r6, r5, lsl #28
    20ec:	052e1205 	streq	r1, [lr, #-517]!	; 0xfffffdfb
    20f0:	052f0605 	streq	r0, [pc, #-1541]!	; 1af3 <__code_start__-0x650d>
    20f4:	09051402 	stmdbeq	r5, {r1, sl, ip}
    20f8:	05050106 	streq	r0, [r5, #-262]	; 0xfffffefa
    20fc:	02054b06 	andeq	r4, r5, #6144	; 0x1800
    2100:	06080513 			; <UNDEFINED> instruction: 0x06080513
    2104:	3302050d 	movwcc	r0, #9485	; 0x250d
    2108:	4c060405 	cfstrsmi	mvf0, [r6], {5}
    210c:	01060f05 	tsteq	r6, r5, lsl #30
    2110:	052e0905 	streq	r0, [lr, #-2309]!	; 0xfffff6fb
    2114:	052c0608 	streq	r0, [ip, #-1544]!	; 0xfffff9f8
    2118:	052e0602 	streq	r0, [lr, #-1538]!	; 0xfffff9fe
    211c:	0402000d 	streq	r0, [r2], #-13
    2120:	03054a01 	movweq	r4, #23041	; 0x5a01
    2124:	05054b06 	streq	r4, [r5, #-2822]	; 0xfffff4fa
    2128:	08050106 	stmdaeq	r5, {r1, r2, r8}
    212c:	0e054d06 	cdpeq	13, 0, cr4, cr5, cr6, {0}
    2130:	0a050106 	beq	142550 <__bss_end__+0x138560>
    2134:	0604052e 	streq	r0, [r4], -lr, lsr #10
    2138:	0609052f 	streq	r0, [r9], -pc, lsr #10
    213c:	06040501 	streq	r0, [r4], -r1, lsl #10
    2140:	0607052f 	streq	r0, [r7], -pc, lsr #10
    2144:	04052e01 	streq	r2, [r5], #-3585	; 0xfffff1ff
    2148:	07053006 	streq	r3, [r5, -r6]
    214c:	04050106 	streq	r0, [r5], #-262	; 0xfffffefa
    2150:	14133006 	ldrne	r3, [r3], #-6
    2154:	10060d05 	andne	r0, r6, r5, lsl #26
    2158:	30060905 	andcc	r0, r6, r5, lsl #18
    215c:	01061205 	tsteq	r6, r5, lsl #4
    2160:	052e0a05 	streq	r0, [lr, #-2565]!	; 0xfffff5fb
    2164:	05056609 	streq	r6, [r5, #-1545]	; 0xfffff9f7
    2168:	12054b06 	andne	r4, r5, #6144	; 0x1800
    216c:	16050106 	strne	r0, [r5], -r6, lsl #2
    2170:	2e0b052e 	cfsh32cs	mvfx0, mvfx11, #30
    2174:	2f060505 	svccs	0x00060505
    2178:	01060805 	tsteq	r6, r5, lsl #16
    217c:	0604052e 	streq	r0, [r4], -lr, lsr #10
    2180:	014a0130 	cmpeq	sl, r0, lsr r1
    2184:	04020015 	streq	r0, [r2], #-21	; 0xffffffeb
    2188:	0f360201 	svceq	0x00360201
    218c:	01040200 	mrseq	r0, R12_usr
    2190:	04020001 	streq	r0, [r2], #-1
    2194:	1105d601 	tstne	r5, r1, lsl #12
    2198:	00011334 	andeq	r1, r1, r4, lsr r3
    219c:	06020402 	streq	r0, [r2], -r2, lsl #8
    21a0:	040200ba 	streq	r0, [r2], #-186	; 0xffffff46
    21a4:	00ba0603 	adcseq	r0, sl, r3, lsl #12
    21a8:	01030402 	tsteq	r3, r2, lsl #8
    21ac:	03040200 	movweq	r0, #16896	; 0x4200
    21b0:	00150514 	andseq	r0, r5, r4, lsl r5
    21b4:	06030402 	streq	r0, [r3], -r2, lsl #8
    21b8:	00110501 	andseq	r0, r1, r1, lsl #10
    21bc:	06030402 	streq	r0, [r3], -r2, lsl #8
    21c0:	001a052f 	andseq	r0, sl, pc, lsr #10
    21c4:	06030402 	streq	r0, [r3], -r2, lsl #8
    21c8:	00110501 	andseq	r0, r1, r1, lsl #10
    21cc:	06030402 	streq	r0, [r3], -r2, lsl #8
    21d0:	040200d7 	streq	r0, [r2], #-215	; 0xffffff29
    21d4:	02001303 	andeq	r1, r0, #201326592	; 0xc000000
    21d8:	00140304 	andseq	r0, r4, r4, lsl #6
    21dc:	67030402 	strvs	r0, [r3, -r2, lsl #8]
    21e0:	03040200 	movweq	r0, #16896	; 0x4200
    21e4:	00140568 	andseq	r0, r4, r8, ror #10
    21e8:	06030402 	streq	r0, [r3], -r2, lsl #8
    21ec:	00130501 	andseq	r0, r3, r1, lsl #10
    21f0:	82030402 	andhi	r0, r3, #33554432	; 0x2000000
    21f4:	4e061805 	cdpmi	8, 0, cr1, cr6, cr5, {0}
    21f8:	01061b05 	tsteq	r6, r5, lsl #22
    21fc:	05821a05 	streq	r1, [r2, #2565]	; 0xa05
    2200:	054b0609 	strbeq	r0, [fp, #-1545]	; 0xfffff9f7
    2204:	2e01060d 	cfmadd32cs	mvax0, mvfx0, mvfx1, mvfx13
    2208:	f3060905 	vmls.i8	d0, d6, d5
    220c:	1505ba06 	strne	fp, [r5, #-2566]	; 0xfffff5fa
    2210:	18053006 	stmdane	r5, {r1, r2, ip, sp}
    2214:	17050106 	strne	r0, [r5, -r6, lsl #2]
    2218:	06190566 	ldreq	r0, [r9], -r6, ror #10
    221c:	0615054b 	ldreq	r0, [r5], -fp, asr #10
    2220:	05666f03 	strbeq	r6, [r6, #-3843]!	; 0xfffff0fd
    2224:	01480611 	cmpeq	r8, r1, lsl r6
    2228:	030905d6 	movweq	r0, #38358	; 0x95d6
    222c:	0d052e0b 	stceq	14, cr2, [r5, #-44]	; 0xffffffd4
    2230:	052e0106 	streq	r0, [lr, #-262]!	; 0xfffffefa
    2234:	06f30609 	ldrbteq	r0, [r3], r9, lsl #12
    2238:	061505ba 			; <UNDEFINED> instruction: 0x061505ba
    223c:	7503062f 	strvc	r0, [r3, #-1583]	; 0xfffff9d1
    2240:	06190566 	ldreq	r0, [r9], -r6, ror #10
    2244:	054a1303 	strbeq	r1, [sl, #-771]	; 0xfffffcfd
    2248:	6d030615 	stcvs	6, cr0, [r3, #-84]	; 0xffffffac
    224c:	15030666 	strne	r0, [r3, #-1638]	; 0xfffff99a
    2250:	06ba014a 	ldrteq	r0, [sl], sl, asr #2
    2254:	0605052e 	streq	r0, [r5], -lr, lsr #10
    2258:	2e9e011a 	mrccs	1, 4, r0, cr14, cr10, {0}
    225c:	05010e03 	streq	r0, [r1, #-3587]	; 0xfffff1fd
    2260:	05010609 	streq	r0, [r1, #-1545]	; 0xfffff9f7
    2264:	75080605 	strvc	r0, [r8, #-1541]	; 0xfffff9fb
    2268:	18030405 	stmdane	r3, {r0, r2, sl}
    226c:	06070501 	streq	r0, [r7], -r1, lsl #10
    2270:	06040501 	streq	r0, [r4], -r1, lsl #10
    2274:	03050531 	movweq	r0, #21809	; 0x5531
    2278:	1c052e67 	stcne	14, cr2, [r5], {103}	; 0x67
    227c:	09050106 	stmdbeq	r5, {r1, r2, r8}
    2280:	06050582 	streq	r0, [r5], -r2, lsl #11
    2284:	1c0531f3 	stfnes	f3, [r5], {243}	; 0xf3
    2288:	09050106 	stmdbeq	r5, {r1, r2, r8}
    228c:	06050582 	streq	r0, [r5], -r2, lsl #11
    2290:	1b0530f3 	blne	14e664 <__bss_end__+0x144674>
    2294:	09050106 	stmdbeq	r5, {r1, r2, r8}
    2298:	06050582 	streq	r0, [r5], -r2, lsl #11
    229c:	070530f3 			; <UNDEFINED> instruction: 0x070530f3
    22a0:	05050106 	streq	r0, [r5, #-262]	; 0xfffffefa
    22a4:	05308306 	ldreq	r8, [r0, #-774]!	; 0xfffffcfa
    22a8:	05010609 	streq	r0, [r1, #-1545]	; 0xfffff9f7
    22ac:	75080605 	strvc	r0, [r8, #-1541]	; 0xfffff9fb
    22b0:	05301105 	ldreq	r1, [r0, #-261]!	; 0xfffffefb
    22b4:	05010622 	streq	r0, [r1, #-1570]	; 0xfffff9de
    22b8:	054b0605 	strbeq	r0, [fp, #-1541]	; 0xfffff9fb
    22bc:	05058311 	streq	r8, [r5, #-785]	; 0xfffffcef
    22c0:	359e0183 	ldrcc	r0, [lr, #387]	; 0x183
    22c4:	01060e05 	tsteq	r6, r5, lsl #28
    22c8:	062e0a05 	strteq	r0, [lr], -r5, lsl #20
    22cc:	0604052d 	streq	r0, [r4], -sp, lsr #10
    22d0:	00130501 	andseq	r0, r3, r1, lsl #10
    22d4:	4a010402 	bmi	432e4 <__bss_end__+0x392f4>
    22d8:	02001005 	andeq	r1, r0, #5, 0
    22dc:	002e0104 	eoreq	r0, lr, r4, lsl #2
    22e0:	66010402 	strvs	r0, [r1], -r2, lsl #8
    22e4:	16060205 	strne	r0, [r6], -r5, lsl #4
    22e8:	01060705 	tsteq	r6, r5, lsl #14
    22ec:	4b060205 	blmi	182b08 <__bss_end__+0x178b18>
    22f0:	13060105 	movwne	r0, #24837	; 0x6105
    22f4:	001e0266 	andseq	r0, lr, r6, ror #4
    22f8:	00c10101 	sbceq	r0, r1, r1, lsl #2
    22fc:	00030000 	andeq	r0, r3, r0
    2300:	00000080 	andeq	r0, r0, r0, lsl #1
    2304:	0efb0102 	cdpeq	1, 15, cr0, cr11, cr2, {0}
    2308:	0101000d 	tsteq	r1, sp
    230c:	00000101 	andeq	r0, r0, r1, lsl #2
    2310:	00000100 	andeq	r0, r0, r0, lsl #2
    2314:	732f2e01 			; <UNDEFINED> instruction: 0x732f2e01
    2318:	66666174 			; <UNDEFINED> instruction: 0x66666174
    231c:	6372732d 	cmnvs	r2, #-1275068416	; 0xb4000000
    2320:	73552f00 	cmpvc	r5, #0, 30
    2324:	2f737265 	svccs	0x00737265
    2328:	616e6e61 	cmnvs	lr, r1, ror #28
    232c:	636f442f 	cmnvs	pc, #788529152	; 0x2f000000
    2330:	6e656d75 	mcrvs	13, 3, r6, cr5, cr5, {3}
    2334:	532f7374 			; <UNDEFINED> instruction: 0x532f7374
    2338:	6f6f6863 	svcvs	0x006f6863
    233c:	6f432f6c 	svcvs	0x00432f6c
    2340:	67656c6c 	strbvs	r6, [r5, -ip, ror #24]!
    2344:	754a2f65 	strbvc	r2, [sl, #-3941]	; 0xfffff09b
    2348:	726f696e 	rsbvc	r6, pc, #1802240	; 0x1b8000
    234c:	3232532f 	eorscc	r5, r2, #-1140850688	; 0xbc000000
    2350:	3253432f 	subscc	r4, r3, #-1140850688	; 0xbc000000
    2354:	584c3034 	stmdapl	ip, {r2, r4, r5, ip, sp}^
    2358:	63796d2f 	cmnvs	r9, #3008	; 0xbc0
    235c:	2f65646f 	svccs	0x0065646f
    2360:	7062696c 	rsbvc	r6, r2, ip, ror #18
    2364:	6e692f69 	cdpvs	15, 6, cr2, cr9, cr9, {3}
    2368:	64756c63 	ldrbtvs	r6, [r5], #-3171	; 0xfffff39d
    236c:	63000065 	movwvs	r0, #101	; 0x65
    2370:	65686361 	strbvs	r6, [r8, #-865]!	; 0xfffffc9f
    2374:	0100632e 	tsteq	r0, lr, lsr #6
    2378:	70720000 	rsbsvc	r0, r2, r0
    237c:	00682e69 	rsbeq	r2, r8, r9, ror #28
    2380:	00000002 	andeq	r0, r0, r2
    2384:	05001905 	streq	r1, [r0, #-2309]	; 0xfffff6fb
    2388:	00941002 	addseq	r1, r4, r2
    238c:	05051400 	streq	r1, [r5, #-1024]	; 0xfffffc00
    2390:	02051313 	andeq	r1, r5, #1275068416	; 0x4c000000
    2394:	0405132f 	streq	r1, [r5], #-815	; 0xfffffcd1
    2398:	05050106 	streq	r0, [r5, #-262]	; 0xfffffefa
    239c:	01052f06 	tsteq	r5, r6, lsl #30
    23a0:	1a052f06 	bne	14dfc0 <__bss_end__+0x143fd0>
    23a4:	05053106 	streq	r3, [r5, #-262]	; 0xfffffefa
    23a8:	02051313 	andeq	r1, r5, #1275068416	; 0x4c000000
    23ac:	04051330 	streq	r1, [r5], #-816	; 0xfffffcd0
    23b0:	05050106 	streq	r0, [r5, #-262]	; 0xfffffefa
    23b4:	01052f06 	tsteq	r5, r6, lsl #30
    23b8:	02022f06 	andeq	r2, r2, #6, 30
    23bc:	a2010100 	andge	r0, r1, #0
    23c0:	03000000 	movweq	r0, #0
    23c4:	00008700 	andeq	r8, r0, r0, lsl #14
    23c8:	fb010200 	blx	42bd2 <__bss_end__+0x38be2>
    23cc:	01000d0e 	tsteq	r0, lr, lsl #26
    23d0:	00010101 	andeq	r0, r1, r1, lsl #2
    23d4:	00010000 	andeq	r0, r1, r0
    23d8:	2f2e0100 	svccs	0x002e0100
    23dc:	66617473 			; <UNDEFINED> instruction: 0x66617473
    23e0:	72732d66 	rsbsvc	r2, r3, #6528	; 0x1980
    23e4:	552f0063 	strpl	r0, [pc, #-99]!	; 2389 <__code_start__-0x5c77>
    23e8:	73726573 	cmnvc	r2, #482344960	; 0x1cc00000
    23ec:	6e6e612f 	powvsep	f6, f6, #10.0
    23f0:	6f442f61 	svcvs	0x00442f61
    23f4:	656d7563 	strbvs	r7, [sp, #-1379]!	; 0xfffffa9d
    23f8:	2f73746e 	svccs	0x0073746e
    23fc:	6f686353 	svcvs	0x00686353
    2400:	432f6c6f 			; <UNDEFINED> instruction: 0x432f6c6f
    2404:	656c6c6f 	strbvs	r6, [ip, #-3183]!	; 0xfffff391
    2408:	4a2f6567 	bmi	bdb9ac <__bss_end__+0xbd19bc>
    240c:	6f696e75 	svcvs	0x00696e75
    2410:	32532f72 	subscc	r2, r3, #456	; 0x1c8
    2414:	53432f32 	movtpl	r2, #16178	; 0x3f32
    2418:	4c303432 	cfldrsmi	mvf3, [r0], #-200	; 0xffffff38
    241c:	796d2f58 	stmdbvc	sp!, {r3, r4, r6, r8, r9, sl, fp, sp}^
    2420:	65646f63 	strbvs	r6, [r4, #-3939]!	; 0xfffff09d
    2424:	62696c2f 	rsbvs	r6, r9, #12032	; 0x2f00
    2428:	692f6970 	stmdbvs	pc!, {r4, r5, r6, r8, fp, sp, lr}	; <UNPREDICTABLE>
    242c:	756c636e 	strbvc	r6, [ip, #-878]!	; 0xfffffc92
    2430:	00006564 	andeq	r6, r0, r4, ror #10
    2434:	61656c63 	cmnvs	r5, r3, ror #24
    2438:	65722d6e 	ldrbvs	r2, [r2, #-3438]!	; 0xfffff292
    243c:	746f6f62 	strbtvc	r6, [pc], #-3938	; 2444 <__code_start__-0x5bbc>
    2440:	0100632e 	tsteq	r0, lr, lsr #6
    2444:	70720000 	rsbsvc	r0, r2, r0
    2448:	00682e69 	rsbeq	r2, r8, r9, ror #28
    244c:	00000002 	andeq	r0, r0, r2
    2450:	05001905 	streq	r1, [r0, #-2309]	; 0xfffff6fb
    2454:	00943002 	addseq	r3, r4, r2
    2458:	05051500 	streq	r1, [r5, #-1280]	; 0xfffffb00
    245c:	4b2f832f 	blmi	be3120 <__bss_end__+0xbd9130>
    2460:	01000602 	tsteq	r0, r2, lsl #12
    2464:	0000bc01 	andeq	fp, r0, r1, lsl #24
    2468:	81000300 	mrshi	r0, LR_irq
    246c:	02000000 	andeq	r0, r0, #0, 0
    2470:	0d0efb01 	vstreq	d15, [lr, #-4]
    2474:	01010100 	mrseq	r0, (UNDEF: 17)
    2478:	00000001 	andeq	r0, r0, r1
    247c:	01000001 	tsteq	r0, r1
    2480:	74732f2e 	ldrbtvc	r2, [r3], #-3886	; 0xfffff0d2
    2484:	2d666661 	stclcs	6, cr6, [r6, #-388]!	; 0xfffffe7c
    2488:	00637273 	rsbeq	r7, r3, r3, ror r2
    248c:	6573552f 	ldrbvs	r5, [r3, #-1327]!	; 0xfffffad1
    2490:	612f7372 			; <UNDEFINED> instruction: 0x612f7372
    2494:	2f616e6e 	svccs	0x00616e6e
    2498:	75636f44 	strbvc	r6, [r3, #-3908]!	; 0xfffff0bc
    249c:	746e656d 	strbtvc	r6, [lr], #-1389	; 0xfffffa93
    24a0:	63532f73 	cmpvs	r3, #460	; 0x1cc
    24a4:	6c6f6f68 	stclvs	15, cr6, [pc], #-416	; 230c <__code_start__-0x5cf4>
    24a8:	6c6f432f 	stclvs	3, cr4, [pc], #-188	; 23f4 <__code_start__-0x5c0c>
    24ac:	6567656c 	strbvs	r6, [r7, #-1388]!	; 0xfffffa94
    24b0:	6e754a2f 	vaddvs.f32	s9, s10, s31
    24b4:	2f726f69 	svccs	0x00726f69
    24b8:	2f323253 	svccs	0x00323253
    24bc:	34325343 	ldrtcc	r5, [r2], #-835	; 0xfffffcbd
    24c0:	2f584c30 	svccs	0x00584c30
    24c4:	6f63796d 	svcvs	0x0063796d
    24c8:	6c2f6564 	cfstr32vs	mvfx6, [pc], #-400	; 2340 <__code_start__-0x5cc0>
    24cc:	69706269 	ldmdbvs	r0!, {r0, r3, r5, r6, r9, sp, lr}^
    24d0:	636e692f 	cmnvs	lr, #770048	; 0xbc000
    24d4:	6564756c 	strbvs	r7, [r4, #-1388]!	; 0xfffffa94
    24d8:	73630000 	cmnvc	r3, #0, 0
    24dc:	74726174 	ldrbtvc	r6, [r2], #-372	; 0xfffffe8c
    24e0:	0100632e 	tsteq	r0, lr, lsr #6
    24e4:	70720000 	rsbsvc	r0, r2, r0
    24e8:	00682e69 	rsbeq	r2, r8, r9, ror #28
    24ec:	00000002 	andeq	r0, r0, r2
    24f0:	05001005 	streq	r1, [r0, #-5]
    24f4:	00945c02 	addseq	r5, r4, r2, lsl #24
    24f8:	05051500 	streq	r1, [r5, #-1280]	; 0xfffffb00
    24fc:	1302052f 	movwne	r0, #9519	; 0x252f
    2500:	30140505 	andscc	r0, r4, r5, lsl #10
    2504:	0a051413 	beq	147558 <__bss_end__+0x13d568>
    2508:	31060f06 	tstcc	r6, r6, lsl #30
    250c:	054b0905 	strbeq	r0, [fp, #-2309]	; 0xfffff6fb
    2510:	4a010610 	bmi	43d58 <__bss_end__+0x39d68>
    2514:	30060505 	andcc	r0, r6, r5, lsl #10
    2518:	4a010132 	bmi	429e8 <__bss_end__+0x389f8>
    251c:	2f020514 	svccs	0x00020514
    2520:	01000602 	tsteq	r0, r2, lsl #12
    2524:	0000a001 	andeq	sl, r0, r1
    2528:	88000300 	stmdahi	r0, {r8, r9}
    252c:	02000000 	andeq	r0, r0, #0, 0
    2530:	0d0efb01 	vstreq	d15, [lr, #-4]
    2534:	01010100 	mrseq	r0, (UNDEF: 17)
    2538:	00000001 	andeq	r0, r0, r1
    253c:	01000001 	tsteq	r0, r1
    2540:	74732f2e 	ldrbtvc	r2, [r3], #-3886	; 0xfffff0d2
    2544:	2d666661 	stclcs	6, cr6, [r6, #-388]!	; 0xfffffe7c
    2548:	00637273 	rsbeq	r7, r3, r3, ror r2
    254c:	6573552f 	ldrbvs	r5, [r3, #-1327]!	; 0xfffffad1
    2550:	612f7372 			; <UNDEFINED> instruction: 0x612f7372
    2554:	2f616e6e 	svccs	0x00616e6e
    2558:	75636f44 	strbvc	r6, [r3, #-3908]!	; 0xfffff0bc
    255c:	746e656d 	strbtvc	r6, [lr], #-1389	; 0xfffffa93
    2560:	63532f73 	cmpvs	r3, #460	; 0x1cc
    2564:	6c6f6f68 	stclvs	15, cr6, [pc], #-416	; 23cc <__code_start__-0x5c34>
    2568:	6c6f432f 	stclvs	3, cr4, [pc], #-188	; 24b4 <__code_start__-0x5b4c>
    256c:	6567656c 	strbvs	r6, [r7, #-1388]!	; 0xfffffa94
    2570:	6e754a2f 	vaddvs.f32	s9, s10, s31
    2574:	2f726f69 	svccs	0x00726f69
    2578:	2f323253 	svccs	0x00323253
    257c:	34325343 	ldrtcc	r5, [r2], #-835	; 0xfffffcbd
    2580:	2f584c30 	svccs	0x00584c30
    2584:	6f63796d 	svcvs	0x0063796d
    2588:	6c2f6564 	cfstr32vs	mvfx6, [pc], #-400	; 2400 <__code_start__-0x5c00>
    258c:	69706269 	ldmdbvs	r0!, {r0, r3, r5, r6, r9, sp, lr}^
    2590:	636e692f 	cmnvs	lr, #770048	; 0xbc000
    2594:	6564756c 	strbvs	r7, [r4, #-1388]!	; 0xfffffa94
    2598:	75630000 	strbvc	r0, [r3, #-0]!
    259c:	6d6f7473 	cfstrdvs	mvd7, [pc, #-460]!	; 23d8 <__code_start__-0x5c28>
    25a0:	616f6c2d 	cmnvs	pc, sp, lsr #24
    25a4:	2e726564 	cdpcs	5, 7, cr6, cr2, cr4, {3}
    25a8:	00010063 	andeq	r0, r1, r3, rrx
    25ac:	69707200 	ldmdbvs	r0!, {r9, ip, sp, lr}^
    25b0:	0200682e 	andeq	r6, r0, #3014656	; 0x2e0000
    25b4:	05000000 	streq	r0, [r0, #-0]
    25b8:	0205001a 	andeq	r0, r5, #26, 0
    25bc:	00009498 	muleq	r0, r8, r4
    25c0:	14010515 	strne	r0, [r1], #-1301	; 0xfffffaeb
    25c4:	01000202 	tsteq	r0, r2, lsl #4
    25c8:	0000f001 	andeq	pc, r0, r1
    25cc:	81000300 	mrshi	r0, LR_irq
    25d0:	02000000 	andeq	r0, r0, #0, 0
    25d4:	0d0efb01 	vstreq	d15, [lr, #-4]
    25d8:	01010100 	mrseq	r0, (UNDEF: 17)
    25dc:	00000001 	andeq	r0, r0, r1
    25e0:	01000001 	tsteq	r0, r1
    25e4:	74732f2e 	ldrbtvc	r2, [r3], #-3886	; 0xfffff0d2
    25e8:	2d666661 	stclcs	6, cr6, [r6, #-388]!	; 0xfffffe7c
    25ec:	00637273 	rsbeq	r7, r3, r3, ror r2
    25f0:	6573552f 	ldrbvs	r5, [r3, #-1327]!	; 0xfffffad1
    25f4:	612f7372 			; <UNDEFINED> instruction: 0x612f7372
    25f8:	2f616e6e 	svccs	0x00616e6e
    25fc:	75636f44 	strbvc	r6, [r3, #-3908]!	; 0xfffff0bc
    2600:	746e656d 	strbtvc	r6, [lr], #-1389	; 0xfffffa93
    2604:	63532f73 	cmpvs	r3, #460	; 0x1cc
    2608:	6c6f6f68 	stclvs	15, cr6, [pc], #-416	; 2470 <__code_start__-0x5b90>
    260c:	6c6f432f 	stclvs	3, cr4, [pc], #-188	; 2558 <__code_start__-0x5aa8>
    2610:	6567656c 	strbvs	r6, [r7, #-1388]!	; 0xfffffa94
    2614:	6e754a2f 	vaddvs.f32	s9, s10, s31
    2618:	2f726f69 	svccs	0x00726f69
    261c:	2f323253 	svccs	0x00323253
    2620:	34325343 	ldrtcc	r5, [r2], #-835	; 0xfffffcbd
    2624:	2f584c30 	svccs	0x00584c30
    2628:	6f63796d 	svcvs	0x0063796d
    262c:	6c2f6564 	cfstr32vs	mvfx6, [pc], #-400	; 24a4 <__code_start__-0x5b5c>
    2630:	69706269 	ldmdbvs	r0!, {r0, r3, r5, r6, r9, sp, lr}^
    2634:	636e692f 	cmnvs	lr, #770048	; 0xbc000
    2638:	6564756c 	strbvs	r7, [r4, #-1388]!	; 0xfffffa94
    263c:	65720000 	ldrbvs	r0, [r2, #-0]!
    2640:	746f6f62 	strbtvc	r6, [pc], #-3938	; 2648 <__code_start__-0x59b8>
    2644:	0100632e 	tsteq	r0, lr, lsr #6
    2648:	70720000 	rsbsvc	r0, r2, r0
    264c:	00682e69 	rsbeq	r2, r8, r9, ror #28
    2650:	00000002 	andeq	r0, r0, r2
    2654:	05001905 	streq	r1, [r0, #-2309]	; 0xfffff6fb
    2658:	00949c02 	addseq	r9, r4, r2, lsl #24
    265c:	010d0300 	mrseq	r0, SP_mon
    2660:	13130505 	tstne	r3, #20971520	; 0x1400000
    2664:	06130531 			; <UNDEFINED> instruction: 0x06130531
    2668:	2f010501 	svccs	0x00010501
    266c:	85061b05 	strhi	r1, [r6, #-2821]	; 0xfffff4fb
    2670:	14130505 	ldrne	r0, [r3], #-1285	; 0xfffffafb
    2674:	052f0905 	streq	r0, [pc, #-2309]!	; 1d77 <__code_start__-0x6289>
    2678:	05010616 	streq	r0, [r1, #-1558]	; 0xfffff9ea
    267c:	05052e0e 	streq	r2, [r5, #-3598]	; 0xfffff1f2
    2680:	01052f06 	tsteq	r5, r6, lsl #30
    2684:	17052f06 	strne	r2, [r5, -r6, lsl #30]
    2688:	05053006 	streq	r3, [r5, #-6]
    268c:	0608052f 	streq	r0, [r8], -pc, lsr #10
    2690:	2e070501 	cfsh32cs	mvfx0, mvfx7, #1
    2694:	50060505 	andpl	r0, r6, r5, lsl #10
    2698:	134d2f30 	movtne	r2, #57136	; 0xdf30
    269c:	67151313 			; <UNDEFINED> instruction: 0x67151313
    26a0:	01040200 	mrseq	r0, R12_usr
    26a4:	000d0567 	andeq	r0, sp, r7, ror #10
    26a8:	01010402 	tsteq	r1, r2, lsl #8
    26ac:	02000a05 	andeq	r0, r0, #20480	; 0x5000
    26b0:	05010104 	streq	r0, [r1, #-260]	; 0xfffffefc
    26b4:	2e6d0309 	cdpcs	3, 6, cr0, cr13, cr9, {0}
    26b8:	01000c02 	tsteq	r0, r2, lsl #24
    26bc:	0000f701 	andeq	pc, r0, r1, lsl #14
    26c0:	80000300 	andhi	r0, r0, r0, lsl #6
    26c4:	02000000 	andeq	r0, r0, #0, 0
    26c8:	0d0efb01 	vstreq	d15, [lr, #-4]
    26cc:	01010100 	mrseq	r0, (UNDEF: 17)
    26d0:	00000001 	andeq	r0, r0, r1
    26d4:	01000001 	tsteq	r0, r1
    26d8:	74732f2e 	ldrbtvc	r2, [r3], #-3886	; 0xfffff0d2
    26dc:	2d666661 	stclcs	6, cr6, [r6, #-388]!	; 0xfffffe7c
    26e0:	00637273 	rsbeq	r7, r3, r3, ror r2
    26e4:	6573552f 	ldrbvs	r5, [r3, #-1327]!	; 0xfffffad1
    26e8:	612f7372 			; <UNDEFINED> instruction: 0x612f7372
    26ec:	2f616e6e 	svccs	0x00616e6e
    26f0:	75636f44 	strbvc	r6, [r3, #-3908]!	; 0xfffff0bc
    26f4:	746e656d 	strbtvc	r6, [lr], #-1389	; 0xfffffa93
    26f8:	63532f73 	cmpvs	r3, #460	; 0x1cc
    26fc:	6c6f6f68 	stclvs	15, cr6, [pc], #-416	; 2564 <__code_start__-0x5a9c>
    2700:	6c6f432f 	stclvs	3, cr4, [pc], #-188	; 264c <__code_start__-0x59b4>
    2704:	6567656c 	strbvs	r6, [r7, #-1388]!	; 0xfffffa94
    2708:	6e754a2f 	vaddvs.f32	s9, s10, s31
    270c:	2f726f69 	svccs	0x00726f69
    2710:	2f323253 	svccs	0x00323253
    2714:	34325343 	ldrtcc	r5, [r2], #-835	; 0xfffffcbd
    2718:	2f584c30 	svccs	0x00584c30
    271c:	6f63796d 	svcvs	0x0063796d
    2720:	6c2f6564 	cfstr32vs	mvfx6, [pc], #-400	; 2598 <__code_start__-0x5a68>
    2724:	69706269 	ldmdbvs	r0!, {r0, r3, r5, r6, r9, sp, lr}^
    2728:	636e692f 	cmnvs	lr, #770048	; 0xbc000
    272c:	6564756c 	strbvs	r7, [r4, #-1388]!	; 0xfffffa94
    2730:	69740000 	ldmdbvs	r4!, {}^	; <UNPREDICTABLE>
    2734:	2e72656d 	cdpcs	5, 7, cr6, cr2, cr13, {3}
    2738:	00010063 	andeq	r0, r1, r3, rrx
    273c:	69707200 	ldmdbvs	r0!, {r9, ip, sp, lr}^
    2740:	0200682e 	andeq	r6, r0, #3014656	; 0x2e0000
    2744:	05000000 	streq	r0, [r0, #-0]
    2748:	02050023 	andeq	r0, r5, #35, 0	; 0x23
    274c:	0000951c 	andeq	r9, r0, ip, lsl r5
    2750:	2f050515 	svccs	0x00050515
    2754:	01060c05 	tsteq	r6, r5, lsl #24
    2758:	054b0105 	strbeq	r0, [fp, #-261]	; 0xfffffefb
    275c:	054d061f 	strbeq	r0, [sp, #-1567]	; 0xfffff9e1
    2760:	052f3105 	streq	r3, [pc, #-261]!	; 2663 <__code_start__-0x599d>
    2764:	05010612 	streq	r0, [r1, #-1554]	; 0xfffff9ee
    2768:	2f4b0605 	svccs	0x004b0605
    276c:	13060105 	movwne	r0, #24837	; 0x6105
    2770:	4c061c05 	stcmi	12, cr1, [r6], {5}
    2774:	05050106 	streq	r0, [r5, #-262]	; 0xfffffefa
    2778:	13054b06 	movwne	r4, #23302	; 0x5b06
    277c:	052e0106 	streq	r0, [lr, #-262]!	; 0xfffffefa
    2780:	052f0605 	streq	r0, [pc, #-1541]!	; 2183 <__code_start__-0x5e7d>
    2784:	17051309 	strne	r1, [r5, -r9, lsl #6]
    2788:	09050106 	stmdbeq	r5, {r1, r2, r8}
    278c:	11052f06 	tstne	r5, r6, lsl #30
    2790:	0c050106 	stfeqs	f0, [r5], {6}
    2794:	061c052e 	ldreq	r0, [ip], -lr, lsr #10
    2798:	0501066b 	streq	r0, [r1, #-1643]	; 0xfffff995
    279c:	062f0605 	strteq	r0, [pc], -r5, lsl #12
    27a0:	4b01054a 	blmi	43cd0 <__bss_end__+0x39ce0>
    27a4:	2f061e05 	svccs	0x00061e05
    27a8:	05050106 	streq	r0, [r5, #-262]	; 0xfffffefa
    27ac:	4a062f06 	bmi	18e3cc <__bss_end__+0x1843dc>
    27b0:	024b0105 	subeq	r0, fp, #1073741825	; 0x40000001
    27b4:	01010002 	tsteq	r1, r2
    27b8:	00000205 	andeq	r0, r0, r5, lsl #4
    27bc:	00c90003 	sbceq	r0, r9, r3
    27c0:	01020000 	mrseq	r0, (UNDEF: 2)
    27c4:	000d0efb 	strdeq	r0, [sp], -fp
    27c8:	01010101 	tsteq	r1, r1, lsl #2
    27cc:	01000000 	mrseq	r0, (UNDEF: 0)
    27d0:	2f010000 	svccs	0x00010000
    27d4:	656d6f68 	strbvs	r6, [sp, #-3944]!	; 0xfffff098
    27d8:	676e652f 	strbvs	r6, [lr, -pc, lsr #10]!
    27dc:	2f72656c 	svccs	0x0072656c
    27e0:	73616c63 	cmnvc	r1, #25344	; 0x6300
    27e4:	73632f73 	cmnvc	r3, #460	; 0x1cc
    27e8:	6c303432 	cfldrsvs	mvf3, [r0], #-200	; 0xffffff38
    27ec:	32322d78 	eorscc	r2, r2, #120, 26	; 0x1e00
    27f0:	2f727073 	svccs	0x00727073
    27f4:	62696c2f 	rsbvs	r6, r9, #12032	; 0x2f00
    27f8:	692f6970 	stmdbvs	pc!, {r4, r5, r6, r8, fp, sp, lr}	; <UNPREDICTABLE>
    27fc:	756c636e 	strbvc	r6, [ip, #-878]!	; 0xfffffc92
    2800:	2f006564 	svccs	0x00006564
    2804:	2f727375 	svccs	0x00727375
    2808:	72616873 	rsbvc	r6, r1, #7536640	; 0x730000
    280c:	63672f65 	cmnvs	r7, #404	; 0x194
    2810:	72612d63 	rsbvc	r2, r1, #6336	; 0x18c0
    2814:	6f6e2d6d 	svcvs	0x006e2d6d
    2818:	652d656e 	strvs	r6, [sp, #-1390]!	; 0xfffffa92
    281c:	2d696261 	sfmcs	f6, 2, [r9, #-388]!	; 0xfffffe7c
    2820:	332e3031 			; <UNDEFINED> instruction: 0x332e3031
    2824:	3230322d 	eorscc	r3, r0, #-805306366	; 0xd0000002
    2828:	30312e31 	eorscc	r2, r1, r1, lsr lr
    282c:	62696c2f 	rsbvs	r6, r9, #12032	; 0x2f00
    2830:	6363672f 	cmnvs	r3, #12320768	; 0xbc0000
    2834:	6d72612f 	ldfvse	f6, [r2, #-188]!	; 0xffffff44
    2838:	6e6f6e2d 	cdpvs	14, 6, cr6, cr15, cr13, {1}
    283c:	61652d65 	cmnvs	r5, r5, ror #26
    2840:	312f6962 			; <UNDEFINED> instruction: 0x312f6962
    2844:	2e332e30 	mrccs	14, 1, r2, cr3, cr0, {1}
    2848:	6e692f31 	mcrvs	15, 3, r2, cr9, cr1, {1}
    284c:	64756c63 	ldrbtvs	r6, [r5], #-3171	; 0xfffff39d
    2850:	75000065 	strvc	r0, [r0, #-101]	; 0xffffff9b
    2854:	2e747261 	cdpcs	2, 7, cr7, cr4, cr1, {3}
    2858:	00000063 	andeq	r0, r0, r3, rrx
    285c:	72617500 	rsbvc	r7, r1, #0, 10
    2860:	00682e74 	rsbeq	r2, r8, r4, ror lr
    2864:	72000001 	andvc	r0, r0, #1, 0
    2868:	682e6970 	stmdavs	lr!, {r4, r5, r6, r8, fp, sp, lr}
    286c:	00000100 	andeq	r0, r0, r0, lsl #2
    2870:	6f697067 	svcvs	0x00697067
    2874:	0100682e 	tsteq	r0, lr, lsr #16
    2878:	74730000 	ldrbtvc	r0, [r3], #-0
    287c:	746e6964 	strbtvc	r6, [lr], #-2404	; 0xfffff69c
    2880:	6363672d 	cmnvs	r3, #11796480	; 0xb40000
    2884:	0200682e 	andeq	r6, r0, #3014656	; 0x2e0000
    2888:	05000000 	streq	r0, [r0, #-0]
    288c:	02050039 	andeq	r0, r5, #57, 0	; 0x39
    2890:	000095a0 	andeq	r9, r0, r0, lsr #11
    2894:	06013003 	streq	r3, [r1], -r3
    2898:	06050501 	streq	r0, [r5], -r1, lsl #10
    289c:	06110567 	ldreq	r0, [r1], -r7, ror #10
    28a0:	2e050501 	cfsh32cs	mvfx0, mvfx5, #1
    28a4:	05670105 	strbeq	r0, [r7, #-261]!	; 0xfffffefb
    28a8:	06290638 			; <UNDEFINED> instruction: 0x06290638
    28ac:	06050501 	streq	r0, [r5], -r1, lsl #10
    28b0:	06110567 	ldreq	r0, [r1], -r7, ror #10
    28b4:	2e050501 	cfsh32cs	mvfx0, mvfx5, #1
    28b8:	05670105 	strbeq	r0, [r7, #-261]!	; 0xfffffefb
    28bc:	15030616 	strne	r0, [r3, #-1558]	; 0xfffff9ea
    28c0:	3505052e 	strcc	r0, [r5, #-1326]	; 0xfffffad2
    28c4:	68356867 	ldmdavs	r5!, {r0, r1, r2, r5, r6, fp, sp, lr}
    28c8:	852e0c03 	strhi	r0, [lr, #-3075]!	; 0xfffff3fd
    28cc:	0369696b 	cmneq	r9, #1753088	; 0x1ac000
    28d0:	6b13660c 	blvs	4dc108 <__bss_end__+0x4d2118>
    28d4:	06010567 	streq	r0, [r1], -r7, ror #10
    28d8:	0619052f 	ldreq	r0, [r9], -pc, lsr #10
    28dc:	05052508 	streq	r2, [r5, #-1288]	; 0xfffffaf8
    28e0:	060d0534 			; <UNDEFINED> instruction: 0x060d0534
    28e4:	4c010501 	cfstr32mi	mvfx0, [r1], {1}
    28e8:	67061905 	strvs	r1, [r6, -r5, lsl #18]
    28ec:	05360505 	ldreq	r0, [r6, #-1285]!	; 0xfffffafb
    28f0:	0501060d 	streq	r0, [r1, #-1549]	; 0xfffff9f3
    28f4:	01054a28 	tsteq	r5, r8, lsr #20
    28f8:	06150530 			; <UNDEFINED> instruction: 0x06150530
    28fc:	2f050587 	svccs	0x00050587
    2900:	0009052f 	andeq	r0, r9, pc, lsr #10
    2904:	13010402 	movwne	r0, #5122	; 0x1402
    2908:	02000a05 	andeq	r0, r0, #20480	; 0x5000
    290c:	05110104 	ldreq	r0, [r1, #-260]	; 0xfffffefc
    2910:	0402000c 	streq	r0, [r2], #-12
    2914:	05010601 	streq	r0, [r1, #-1537]	; 0xfffff9ff
    2918:	0402000a 	streq	r0, [r2], #-10
    291c:	05052e01 	streq	r2, [r5, #-3585]	; 0xfffff1ff
    2920:	0e054c06 	cdpeq	12, 0, cr4, cr5, cr6, {0}
    2924:	09050106 	stmdbeq	r5, {r1, r2, r8}
    2928:	0605054a 	streq	r0, [r5], -sl, asr #10
    292c:	01052f2f 	tsteq	r5, pc, lsr #30
    2930:	1c051306 	stcne	3, cr1, [r5], {6}
    2934:	01066706 	tsteq	r6, r6, lsl #14
    2938:	4b060505 	blmi	183d54 <__bss_end__+0x179d64>
    293c:	0009052f 	andeq	r0, r9, pc, lsr #10
    2940:	13010402 	movwne	r0, #5122	; 0x1402
    2944:	02000a05 	andeq	r0, r0, #20480	; 0x5000
    2948:	05110104 	ldreq	r0, [r1, #-260]	; 0xfffffefc
    294c:	0402000c 	streq	r0, [r2], #-12
    2950:	05010601 	streq	r0, [r1, #-1537]	; 0xfffff9ff
    2954:	0402000a 	streq	r0, [r2], #-10
    2958:	05052e01 	streq	r2, [r5, #-3585]	; 0xfffff1ff
    295c:	05674c06 	strbeq	r4, [r7, #-3078]!	; 0xfffff3fa
    2960:	052f0601 	streq	r0, [pc, #-1537]!	; 2367 <__code_start__-0x5c99>
    2964:	054c0619 	strbeq	r0, [ip, #-1561]	; 0xfffff9e7
    2968:	2a052e1b 	bcs	14e1dc <__bss_end__+0x1441ec>
    296c:	0631052e 	ldrteq	r0, [r1], -lr, lsr #10
    2970:	2e420501 	cdpcs	5, 4, cr0, cr2, cr1, {0}
    2974:	31061c05 	tstcc	r6, r5, lsl #24
    2978:	032f0505 			; <UNDEFINED> instruction: 0x032f0505
    297c:	0e052e09 	cdpeq	14, 0, cr2, cr5, cr9, {0}
    2980:	21050106 	tstcs	r5, r6, lsl #2
    2984:	0301054a 	movweq	r0, #5450	; 0x154a
    2988:	1a052e0a 	bne	14e1b8 <__bss_end__+0x1441c8>
    298c:	09056806 	stmdbeq	r5, {r1, r2, fp, sp, lr}
    2990:	01040200 	mrseq	r0, R12_usr
    2994:	000a0530 	andeq	r0, sl, r0, lsr r5
    2998:	11010402 	tstne	r1, r2, lsl #8
    299c:	02000c05 	andeq	r0, r0, #1280	; 0x500
    29a0:	01060104 	tsteq	r6, r4, lsl #2
    29a4:	02000a05 	andeq	r0, r0, #20480	; 0x5000
    29a8:	052e0104 	streq	r0, [lr, #-260]!	; 0xfffffefc
    29ac:	e8030619 	stmda	r3, {r0, r3, r4, r9, sl}
    29b0:	0505667e 	streq	r6, [r5, #-1662]	; 0xfffff982
    29b4:	672f2f2f 	strvs	r2, [pc, -pc, lsr #30]!
    29b8:	2f060105 	svccs	0x00060105
    29bc:	01000402 	tsteq	r0, r2, lsl #8
    29c0:	00010701 	andeq	r0, r1, r1, lsl #14
    29c4:	7c000300 	stcvc	3, cr0, [r0], {-0}
    29c8:	02000000 	andeq	r0, r0, #0, 0
    29cc:	0d0efb01 	vstreq	d15, [lr, #-4]
    29d0:	01010100 	mrseq	r0, (UNDEF: 17)
    29d4:	00000001 	andeq	r0, r0, r1
    29d8:	01000001 	tsteq	r0, r1
    29dc:	696c2f2e 	stmdbvs	ip!, {r1, r2, r3, r5, r8, r9, sl, fp, sp}^
    29e0:	2f006362 	svccs	0x00006362
    29e4:	72657355 	rsbvc	r7, r5, #1409286145	; 0x54000001
    29e8:	6e612f73 	mcrvs	15, 3, r2, cr1, cr3, {3}
    29ec:	442f616e 	strtmi	r6, [pc], #-366	; 29f4 <__code_start__-0x560c>
    29f0:	6d75636f 	ldclvs	3, cr6, [r5, #-444]!	; 0xfffffe44
    29f4:	73746e65 	cmnvc	r4, #1616	; 0x650
    29f8:	6863532f 	stmdavs	r3!, {r0, r1, r2, r3, r5, r8, r9, ip, lr}^
    29fc:	2f6c6f6f 	svccs	0x006c6f6f
    2a00:	6c6c6f43 	stclvs	15, cr6, [ip], #-268	; 0xfffffef4
    2a04:	2f656765 	svccs	0x00656765
    2a08:	696e754a 	stmdbvs	lr!, {r1, r3, r6, r8, sl, ip, sp, lr}^
    2a0c:	532f726f 			; <UNDEFINED> instruction: 0x532f726f
    2a10:	432f3232 			; <UNDEFINED> instruction: 0x432f3232
    2a14:	30343253 	eorscc	r3, r4, r3, asr r2
    2a18:	6d2f584c 	stcvs	8, cr5, [pc, #-304]!	; 28f0 <__code_start__-0x5710>
    2a1c:	646f6379 	strbtvs	r6, [pc], #-889	; 2a24 <__code_start__-0x55dc>
    2a20:	696c2f65 	stmdbvs	ip!, {r0, r2, r5, r6, r8, r9, sl, fp, sp}^
    2a24:	2f697062 	svccs	0x00697062
    2a28:	6c636e69 	stclvs	14, cr6, [r3], #-420	; 0xfffffe5c
    2a2c:	00656475 	rsbeq	r6, r5, r5, ror r4
    2a30:	72747300 	rsbsvc	r7, r4, #0, 6
    2a34:	2e746163 	rpwcssz	f6, f4, f3
    2a38:	00010063 	andeq	r0, r1, r3, rrx
    2a3c:	69707200 	ldmdbvs	r0!, {r9, ip, sp, lr}^
    2a40:	0200682e 	andeq	r6, r0, #3014656	; 0x2e0000
    2a44:	05000000 	streq	r0, [r0, #-0]
    2a48:	0205002c 	andeq	r0, r5, #44, 0	; 0x2c
    2a4c:	00009790 	muleq	r0, r0, r7
    2a50:	13050515 	movwne	r0, #21781	; 0x5515
    2a54:	060b0513 			; <UNDEFINED> instruction: 0x060b0513
    2a58:	00050511 	andeq	r0, r5, r1, lsl r5
    2a5c:	06010402 	streq	r0, [r1], -r2, lsl #8
    2a60:	04020030 	streq	r0, [r2], #-48	; 0xffffffd0
    2a64:	09051501 	stmdbeq	r5, {r0, r8, sl, ip}
    2a68:	01040200 	mrseq	r0, R12_usr
    2a6c:	00100513 	andseq	r0, r0, r3, lsl r5
    2a70:	06010402 	streq	r0, [r1], -r2, lsl #8
    2a74:	000b052e 	andeq	r0, fp, lr, lsr #10
    2a78:	2e010402 	cdpcs	4, 0, cr0, cr1, cr2, {0}
    2a7c:	01040200 	mrseq	r0, R12_usr
    2a80:	05052f06 	streq	r2, [r5, #-3846]	; 0xfffff0fa
    2a84:	01040200 	mrseq	r0, R12_usr
    2a88:	4e060106 	adfmis	f0, f6, f6
    2a8c:	01060805 	tsteq	r6, r5, lsl #16
    2a90:	02000505 	andeq	r0, r0, #20971520	; 0x1400000
    2a94:	2f060104 	svccs	0x00060104
    2a98:	02000905 	andeq	r0, r0, #81920	; 0x14000
    2a9c:	05130104 	ldreq	r0, [r3, #-260]	; 0xfffffefc
    2aa0:	0402000b 	streq	r0, [r2], #-11
    2aa4:	05010601 	streq	r0, [r1, #-1537]	; 0xfffff9ff
    2aa8:	04020009 	streq	r0, [r2], #-9
    2aac:	054b0601 	strbeq	r0, [fp, #-1537]	; 0xfffff9ff
    2ab0:	0402000f 	streq	r0, [r2], #-15
    2ab4:	05010601 	streq	r0, [r1, #-1537]	; 0xfffff9ff
    2ab8:	0402000d 	streq	r0, [r2], #-13
    2abc:	052f0601 	streq	r0, [pc, #-1537]!	; 24c3 <__code_start__-0x5b3d>
    2ac0:	04020005 	streq	r0, [r2], #-5
    2ac4:	02010601 	andeq	r0, r1, #1048576	; 0x100000
    2ac8:	01010006 	tsteq	r1, r6
    2acc:	000000c0 	andeq	r0, r0, r0, asr #1
    2ad0:	007c0003 	rsbseq	r0, ip, r3
    2ad4:	01020000 	mrseq	r0, (UNDEF: 2)
    2ad8:	000d0efb 	strdeq	r0, [sp], -fp
    2adc:	01010101 	tsteq	r1, r1, lsl #2
    2ae0:	01000000 	mrseq	r0, (UNDEF: 0)
    2ae4:	2e010000 	cdpcs	0, 0, cr0, cr1, cr0, {0}
    2ae8:	62696c2f 	rsbvs	r6, r9, #12032	; 0x2f00
    2aec:	552f0063 	strpl	r0, [pc, #-99]!	; 2a91 <__code_start__-0x556f>
    2af0:	73726573 	cmnvc	r2, #482344960	; 0x1cc00000
    2af4:	6e6e612f 	powvsep	f6, f6, #10.0
    2af8:	6f442f61 	svcvs	0x00442f61
    2afc:	656d7563 	strbvs	r7, [sp, #-1379]!	; 0xfffffa9d
    2b00:	2f73746e 	svccs	0x0073746e
    2b04:	6f686353 	svcvs	0x00686353
    2b08:	432f6c6f 			; <UNDEFINED> instruction: 0x432f6c6f
    2b0c:	656c6c6f 	strbvs	r6, [ip, #-3183]!	; 0xfffff391
    2b10:	4a2f6567 	bmi	bdc0b4 <__bss_end__+0xbd20c4>
    2b14:	6f696e75 	svcvs	0x00696e75
    2b18:	32532f72 	subscc	r2, r3, #456	; 0x1c8
    2b1c:	53432f32 	movtpl	r2, #16178	; 0x3f32
    2b20:	4c303432 	cfldrsmi	mvf3, [r0], #-200	; 0xffffff38
    2b24:	796d2f58 	stmdbvc	sp!, {r3, r4, r6, r8, r9, sl, fp, sp}^
    2b28:	65646f63 	strbvs	r6, [r4, #-3939]!	; 0xfffff09d
    2b2c:	62696c2f 	rsbvs	r6, r9, #12032	; 0x2f00
    2b30:	692f6970 	stmdbvs	pc!, {r4, r5, r6, r8, fp, sp, lr}	; <UNPREDICTABLE>
    2b34:	756c636e 	strbvc	r6, [ip, #-878]!	; 0xfffffc92
    2b38:	00006564 	andeq	r6, r0, r4, ror #10
    2b3c:	63727473 	cmnvs	r2, #1929379840	; 0x73000000
    2b40:	632e706d 			; <UNDEFINED> instruction: 0x632e706d
    2b44:	00000100 	andeq	r0, r0, r0, lsl #2
    2b48:	2e697072 	mcrcs	0, 3, r7, cr9, cr2, {3}
    2b4c:	00020068 	andeq	r0, r2, r8, rrx
    2b50:	2a050000 	bcs	142b58 <__bss_end__+0x138b68>
    2b54:	c4020500 	strgt	r0, [r2], #-1280	; 0xfffffb00
    2b58:	14000097 	strne	r0, [r0], #-151	; 0xffffff69
    2b5c:	05130905 	ldreq	r0, [r3, #-2309]	; 0xfffff6fb
    2b60:	1005010f 	andne	r0, r5, pc, lsl #2
    2b64:	0f050106 	svceq	0x00050106
    2b68:	001c052e 	andseq	r0, ip, lr, lsr #10
    2b6c:	4a010402 	bmi	43b7c <__bss_end__+0x39b8c>
    2b70:	02001305 	andeq	r1, r0, #335544320	; 0x14000000
    2b74:	052e0104 	streq	r0, [lr, #-260]!	; 0xfffffefc
    2b78:	052f0611 	streq	r0, [pc, #-1553]!	; 256f <__code_start__-0x5a91>
    2b7c:	2e2e0616 	mcrcs	6, 1, r0, cr14, cr6, {0}
    2b80:	2f060905 	svccs	0x00060905
    2b84:	01061505 	tsteq	r6, r5, lsl #10
    2b88:	022f0105 	eoreq	r0, pc, #1073741825	; 0x40000001
    2b8c:	01010004 	tsteq	r1, r4
    2b90:	000000be 	strheq	r0, [r0], -lr
    2b94:	007c0003 	rsbseq	r0, ip, r3
    2b98:	01020000 	mrseq	r0, (UNDEF: 2)
    2b9c:	000d0efb 	strdeq	r0, [sp], -fp
    2ba0:	01010101 	tsteq	r1, r1, lsl #2
    2ba4:	01000000 	mrseq	r0, (UNDEF: 0)
    2ba8:	2e010000 	cdpcs	0, 0, cr0, cr1, cr0, {0}
    2bac:	62696c2f 	rsbvs	r6, r9, #12032	; 0x2f00
    2bb0:	552f0063 	strpl	r0, [pc, #-99]!	; 2b55 <__code_start__-0x54ab>
    2bb4:	73726573 	cmnvc	r2, #482344960	; 0x1cc00000
    2bb8:	6e6e612f 	powvsep	f6, f6, #10.0
    2bbc:	6f442f61 	svcvs	0x00442f61
    2bc0:	656d7563 	strbvs	r7, [sp, #-1379]!	; 0xfffffa9d
    2bc4:	2f73746e 	svccs	0x0073746e
    2bc8:	6f686353 	svcvs	0x00686353
    2bcc:	432f6c6f 			; <UNDEFINED> instruction: 0x432f6c6f
    2bd0:	656c6c6f 	strbvs	r6, [ip, #-3183]!	; 0xfffff391
    2bd4:	4a2f6567 	bmi	bdc178 <__bss_end__+0xbd2188>
    2bd8:	6f696e75 	svcvs	0x00696e75
    2bdc:	32532f72 	subscc	r2, r3, #456	; 0x1c8
    2be0:	53432f32 	movtpl	r2, #16178	; 0x3f32
    2be4:	4c303432 	cfldrsmi	mvf3, [r0], #-200	; 0xffffff38
    2be8:	796d2f58 	stmdbvc	sp!, {r3, r4, r6, r8, r9, sl, fp, sp}^
    2bec:	65646f63 	strbvs	r6, [r4, #-3939]!	; 0xfffff09d
    2bf0:	62696c2f 	rsbvs	r6, r9, #12032	; 0x2f00
    2bf4:	692f6970 	stmdbvs	pc!, {r4, r5, r6, r8, fp, sp, lr}	; <UNPREDICTABLE>
    2bf8:	756c636e 	strbvc	r6, [ip, #-878]!	; 0xfffffc92
    2bfc:	00006564 	andeq	r6, r0, r4, ror #10
    2c00:	63727473 	cmnvs	r2, #1929379840	; 0x73000000
    2c04:	632e7970 			; <UNDEFINED> instruction: 0x632e7970
    2c08:	00000100 	andeq	r0, r0, r0, lsl #2
    2c0c:	2e697072 	mcrcs	0, 3, r7, cr9, cr2, {3}
    2c10:	00020068 	andeq	r0, r2, r8, rrx
    2c14:	2a050000 	bcs	142c1c <__bss_end__+0x138c2c>
    2c18:	f0020500 			; <UNDEFINED> instruction: 0xf0020500
    2c1c:	14000097 	strne	r0, [r0], #-151	; 0xffffff69
    2c20:	13130505 	tstne	r3, #20971520	; 0x1400000
    2c24:	11061405 	tstne	r6, r5, lsl #8
    2c28:	02002205 	andeq	r2, r0, #1342177280	; 0x50000000
    2c2c:	2f060104 	svccs	0x00060104
    2c30:	02000b05 	andeq	r0, r0, #5120	; 0x1400
    2c34:	05010104 	streq	r0, [r1, #-260]	; 0xfffffefc
    2c38:	04020015 	streq	r0, [r2], #-21	; 0xffffffeb
    2c3c:	05010601 	streq	r0, [r1, #-1537]	; 0xfffff9ff
    2c40:	04020013 	streq	r0, [r2], #-19	; 0xffffffed
    2c44:	0b054a01 	bleq	155450 <__bss_end__+0x14b460>
    2c48:	01040200 	mrseq	r0, R12_usr
    2c4c:	0006024a 	andeq	r0, r6, sl, asr #4
    2c50:	011b0101 	tsteq	fp, r1, lsl #2
    2c54:	00030000 	andeq	r0, r3, r0
    2c58:	000000df 	ldrdeq	r0, [r0], -pc	; <UNPREDICTABLE>
    2c5c:	0efb0102 	cdpeq	1, 15, cr0, cr11, cr2, {0}
    2c60:	0101000d 	tsteq	r1, sp
    2c64:	00000101 	andeq	r0, r0, r1, lsl #2
    2c68:	00000100 	andeq	r0, r0, r0, lsl #2
    2c6c:	6c2f2e01 	stcvs	14, cr2, [pc], #-4	; 2c70 <__code_start__-0x5390>
    2c70:	00636269 	rsbeq	r6, r3, r9, ror #4
    2c74:	6573552f 	ldrbvs	r5, [r3, #-1327]!	; 0xfffffad1
    2c78:	612f7372 			; <UNDEFINED> instruction: 0x612f7372
    2c7c:	2f616e6e 	svccs	0x00616e6e
    2c80:	75636f44 	strbvc	r6, [r3, #-3908]!	; 0xfffff0bc
    2c84:	746e656d 	strbtvc	r6, [lr], #-1389	; 0xfffffa93
    2c88:	63532f73 	cmpvs	r3, #460	; 0x1cc
    2c8c:	6c6f6f68 	stclvs	15, cr6, [pc], #-416	; 2af4 <__code_start__-0x550c>
    2c90:	6c6f432f 	stclvs	3, cr4, [pc], #-188	; 2bdc <__code_start__-0x5424>
    2c94:	6567656c 	strbvs	r6, [r7, #-1388]!	; 0xfffffa94
    2c98:	6e754a2f 	vaddvs.f32	s9, s10, s31
    2c9c:	2f726f69 	svccs	0x00726f69
    2ca0:	2f323253 	svccs	0x00323253
    2ca4:	34325343 	ldrtcc	r5, [r2], #-835	; 0xfffffcbd
    2ca8:	2f584c30 	svccs	0x00584c30
    2cac:	6f63796d 	svcvs	0x0063796d
    2cb0:	6c2f6564 	cfstr32vs	mvfx6, [pc], #-400	; 2b28 <__code_start__-0x54d8>
    2cb4:	69706269 	ldmdbvs	r0!, {r0, r3, r5, r6, r9, sp, lr}^
    2cb8:	636e692f 	cmnvs	lr, #770048	; 0xbc000
    2cbc:	6564756c 	strbvs	r7, [r4, #-1388]!	; 0xfffffa94
    2cc0:	73752f00 	cmnvc	r5, #0, 30
    2cc4:	6f6c2f72 	svcvs	0x006c2f72
    2cc8:	2f6c6163 	svccs	0x006c6163
    2ccc:	6c6c6543 	cfstr64vs	mvdx6, [ip], #-268	; 0xfffffef4
    2cd0:	612f7261 			; <UNDEFINED> instruction: 0x612f7261
    2cd4:	6e2d6d72 	mcrvs	13, 1, r6, cr13, cr2, {3}
    2cd8:	2d656e6f 	stclcs	14, cr6, [r5, #-444]!	; 0xfffffe44
    2cdc:	69626165 	stmdbvs	r2!, {r0, r2, r5, r6, r8, sp, lr}^
    2ce0:	392f392d 	stmdbcc	pc!, {r0, r2, r3, r5, r8, fp, ip, sp}	; <UNPREDICTABLE>
    2ce4:	3130322d 	teqcc	r0, sp, lsr #4
    2ce8:	2d347139 	ldfcss	f7, [r4, #-228]!	; 0xffffff1c
    2cec:	30317363 	eorscc	r7, r1, r3, ror #6
    2cf0:	6c2f6537 	cfstr32vs	mvfx6, [pc], #-220	; 2c1c <__code_start__-0x53e4>
    2cf4:	672f6269 	strvs	r6, [pc, -r9, ror #4]!
    2cf8:	612f6363 			; <UNDEFINED> instruction: 0x612f6363
    2cfc:	6e2d6d72 	mcrvs	13, 1, r6, cr13, cr2, {3}
    2d00:	2d656e6f 	stclcs	14, cr6, [r5, #-444]!	; 0xfffffe44
    2d04:	69626165 	stmdbvs	r2!, {r0, r2, r5, r6, r8, sp, lr}^
    2d08:	322e392f 	eorcc	r3, lr, #770048	; 0xbc000
    2d0c:	692f312e 	stmdbvs	pc!, {r1, r2, r3, r5, r8, ip, sp}	; <UNPREDICTABLE>
    2d10:	756c636e 	strbvc	r6, [ip, #-878]!	; 0xfffffc92
    2d14:	00006564 	andeq	r6, r0, r4, ror #10
    2d18:	6e727473 	mrcvs	4, 3, r7, cr2, cr3, {3}
    2d1c:	2e706d63 	cdpcs	13, 7, cr6, cr0, cr3, {3}
    2d20:	00010063 	andeq	r0, r1, r3, rrx
    2d24:	69707200 	ldmdbvs	r0!, {r9, ip, sp, lr}^
    2d28:	0200682e 	andeq	r6, r0, #3014656	; 0x2e0000
    2d2c:	74730000 	ldrbtvc	r0, [r3], #-0
    2d30:	66656464 	strbtvs	r6, [r5], -r4, ror #8
    2d34:	0300682e 	movweq	r6, #2094	; 0x82e
    2d38:	05000000 	streq	r0, [r0, #-0]
    2d3c:	02050039 	andeq	r0, r5, #57, 0	; 0x39
    2d40:	00009810 	andeq	r9, r0, r0, lsl r8
    2d44:	13050515 	movwne	r0, #21781	; 0x5515
    2d48:	010a0513 	tsteq	sl, r3, lsl r5
    2d4c:	054a0106 	strbeq	r0, [sl, #-262]	; 0xfffffefa
    2d50:	052f0609 	streq	r0, [pc, #-1545]!	; 274f <__code_start__-0x58b1>
    2d54:	0501060c 	streq	r0, [r1, #-1548]	; 0xfffff9f4
    2d58:	0b052e13 	bleq	14e5ac <__bss_end__+0x1445bc>
    2d5c:	060d052e 	streq	r0, [sp], -lr, lsr #10
    2d60:	061b054b 	ldreq	r0, [fp], -fp, asr #10
    2d64:	0c052e01 	stceq	14, cr2, [r5], {1}
    2d68:	2f010530 	svccs	0x00010530
    2d6c:	01000202 	tsteq	r0, r2, lsl #4
    2d70:	0000ad01 	andeq	sl, r0, r1, lsl #26
    2d74:	91000300 	mrsls	r0, LR_irq
    2d78:	02000000 	andeq	r0, r0, #0, 0
    2d7c:	0d0efb01 	vstreq	d15, [lr, #-4]
    2d80:	01010100 	mrseq	r0, (UNDEF: 17)
    2d84:	00000001 	andeq	r0, r0, r1
    2d88:	01000001 	tsteq	r0, r1
    2d8c:	74732f2e 	ldrbtvc	r2, [r3], #-3886	; 0xfffff0d2
    2d90:	2d666661 	stclcs	6, cr6, [r6, #-388]!	; 0xfffffe7c
    2d94:	00637273 	rsbeq	r7, r3, r3, ror r2
    2d98:	6573552f 	ldrbvs	r5, [r3, #-1327]!	; 0xfffffad1
    2d9c:	612f7372 			; <UNDEFINED> instruction: 0x612f7372
    2da0:	2f616e6e 	svccs	0x00616e6e
    2da4:	75636f44 	strbvc	r6, [r3, #-3908]!	; 0xfffff0bc
    2da8:	746e656d 	strbtvc	r6, [lr], #-1389	; 0xfffffa93
    2dac:	63532f73 	cmpvs	r3, #460	; 0x1cc
    2db0:	6c6f6f68 	stclvs	15, cr6, [pc], #-416	; 2c18 <__code_start__-0x53e8>
    2db4:	6c6f432f 	stclvs	3, cr4, [pc], #-188	; 2d00 <__code_start__-0x5300>
    2db8:	6567656c 	strbvs	r6, [r7, #-1388]!	; 0xfffffa94
    2dbc:	6e754a2f 	vaddvs.f32	s9, s10, s31
    2dc0:	2f726f69 	svccs	0x00726f69
    2dc4:	2f323253 	svccs	0x00323253
    2dc8:	34325343 	ldrtcc	r5, [r2], #-835	; 0xfffffcbd
    2dcc:	2f584c30 	svccs	0x00584c30
    2dd0:	6f63796d 	svcvs	0x0063796d
    2dd4:	6c2f6564 	cfstr32vs	mvfx6, [pc], #-400	; 2c4c <__code_start__-0x53b4>
    2dd8:	69706269 	ldmdbvs	r0!, {r0, r3, r5, r6, r9, sp, lr}^
    2ddc:	636e692f 	cmnvs	lr, #770048	; 0xbc000
    2de0:	6564756c 	strbvs	r7, [r4, #-1388]!	; 0xfffffa94
    2de4:	65640000 	strbvs	r0, [r4, #-0]!
    2de8:	6c756166 	ldfvse	f6, [r5], #-408	; 0xfffffe68
    2dec:	65722d74 	ldrbvs	r2, [r2, #-3444]!	; 0xfffff28c
    2df0:	746f6f62 	strbtvc	r6, [pc], #-3938	; 2df8 <__code_start__-0x5208>
    2df4:	6c61632d 	stclvs	3, cr6, [r1], #-180	; 0xffffff4c
    2df8:	74756f6c 	ldrbtvc	r6, [r5], #-3948	; 0xfffff094
    2dfc:	0100632e 	tsteq	r0, lr, lsr #6
    2e00:	70720000 	rsbsvc	r0, r2, r0
    2e04:	00682e69 	rsbeq	r2, r8, r9, ror #28
    2e08:	00000002 	andeq	r0, r0, r2
    2e0c:	05001b05 	streq	r1, [r0, #-2821]	; 0xfffff4fb
    2e10:	00983c02 	addseq	r3, r8, r2, lsl #24
    2e14:	1c051400 	cfstrsne	mvf1, [r5], {-0}
    2e18:	06010501 	streq	r0, [r1], -r1, lsl #10
    2e1c:	00020201 	andeq	r0, r2, r1, lsl #4
    2e20:	Address 0x0000000000002e20 is out of bounds.


Disassembly of section .debug_str:

00000000 <.debug_str>:
   0:	5f6f656e 	svcpl	0x006f656e
   4:	646e6168 	strbtvs	r6, [lr], #-360	; 0xfffffe98
   8:	7000656c 	andvc	r6, r0, ip, ror #10
   c:	6563616c 	strbvs	r6, [r3, #-364]!	; 0xfffffe94
  10:	7275635f 	rsbsvc	r6, r5, #2080374785	; 0x7c000001
  14:	00726f73 	rsbseq	r6, r2, r3, ror pc
  18:	5f786970 	svcpl	0x00786970
  1c:	006e6970 	rsbeq	r6, lr, r0, ror r9
  20:	706d6f63 	rsbvc	r6, sp, r3, ror #30
  24:	61736e65 	cmnvs	r3, r5, ror #28
  28:	6e6f6974 			; <UNDEFINED> instruction: 0x6e6f6974
  2c:	6f656e00 	svcvs	0x00656e00
  30:	5f786970 	svcpl	0x00786970
  34:	74697277 	strbtvc	r7, [r9], #-631	; 0xfffffd89
  38:	6f6e0065 	svcvs	0x006e0065
  3c:	69616d74 	stmdbvs	r1!, {r2, r4, r5, r6, r8, sl, fp, sp, lr}^
  40:	706e006e 	rsbvc	r0, lr, lr, rrx
  44:	6c657869 	stclvs	8, cr7, [r5], #-420	; 0xfffffe5c
  48:	656e0073 	strbvs	r0, [lr, #-115]!	; 0xffffff8d
  4c:	7869706f 	stmdavc	r9!, {r0, r1, r2, r3, r5, r6, ip, sp, lr}^
  50:	696e695f 	stmdbvs	lr!, {r0, r1, r2, r3, r4, r6, r8, fp, sp, lr}^
  54:	6e750074 	mrcvs	0, 3, r0, cr5, cr4, {3}
  58:	6e676973 			; <UNDEFINED> instruction: 0x6e676973
  5c:	63206465 			; <UNDEFINED> instruction: 0x63206465
  60:	00726168 	rsbseq	r6, r2, r8, ror #2
  64:	616c6564 	cmnvs	ip, r4, ror #10
  68:	736d5f79 	cmnvc	sp, #484	; 0x1e4
  6c:	6f687300 	svcvs	0x00687300
  70:	75207472 	strvc	r7, [r0, #-1138]!	; 0xfffffb8e
  74:	6769736e 	strbvs	r7, [r9, -lr, ror #6]!
  78:	2064656e 	rsbcs	r6, r4, lr, ror #10
  7c:	00746e69 	rsbseq	r6, r4, r9, ror #28
  80:	706f656e 	rsbvc	r6, pc, lr, ror #10
  84:	665f7869 	ldrbvs	r7, [pc], -r9, ror #16
  88:	6873756c 	ldmdavs	r3!, {r2, r3, r5, r6, r8, sl, ip, sp, lr}^
  8c:	69706700 	ldmdbvs	r0!, {r8, r9, sl, sp, lr}^
  90:	65735f6f 	ldrbvs	r5, [r3, #-3951]!	; 0xfffff091
  94:	756f5f74 	strbvc	r5, [pc, #-3956]!	; fffff128 <__bss_end__+0xffff5138>
  98:	74757074 	ldrbtvc	r7, [r5], #-116	; 0xffffff8c
  9c:	554e4700 	strbpl	r4, [lr, #-1792]	; 0xfffff900
  a0:	39394320 	ldmdbcc	r9!, {r5, r8, r9, lr}
  a4:	322e3920 	eorcc	r3, lr, #32, 18	; 0x80000
  a8:	3220312e 	eorcc	r3, r0, #-2147483637	; 0x8000000b
  ac:	31393130 	teqcc	r9, r0, lsr r1
  b0:	20353230 	eorscs	r3, r5, r0, lsr r2
  b4:	6c657228 	sfmvs	f7, 2, [r5], #-160	; 0xffffff60
  b8:	65736165 	ldrbvs	r6, [r3, #-357]!	; 0xfffffe9b
  bc:	415b2029 	cmpmi	fp, r9, lsr #32
  c0:	612f4d52 			; <UNDEFINED> instruction: 0x612f4d52
  c4:	392d6d72 	pushcc	{r1, r4, r5, r6, r8, sl, fp, sp, lr}
  c8:	6172622d 	cmnvs	r2, sp, lsr #4
  cc:	2068636e 	rsbcs	r6, r8, lr, ror #6
  d0:	69766572 	ldmdbvs	r6!, {r1, r4, r5, r6, r8, sl, sp, lr}^
  d4:	6e6f6973 			; <UNDEFINED> instruction: 0x6e6f6973
  d8:	37373220 	ldrcc	r3, [r7, -r0, lsr #4]!
  dc:	5d393935 			; <UNDEFINED> instruction: 0x5d393935
  e0:	636d2d20 	cmnvs	sp, #32, 26	; 0x800
  e4:	613d7570 	teqvs	sp, r0, ror r5
  e8:	31316d72 	teqcc	r1, r2, ror sp
  ec:	7a6a3637 	bvc	1a8d9d0 <__bss_end__+0x1a839e0>
  f0:	20732d66 	rsbscs	r2, r3, r6, ror #26
  f4:	75746d2d 	ldrbvc	r6, [r4, #-3373]!	; 0xfffff2d3
  f8:	613d656e 	teqvs	sp, lr, ror #10
  fc:	31316d72 	teqcc	r1, r2, ror sp
 100:	7a6a3637 	bvc	1a8d9e4 <__bss_end__+0x1a839f4>
 104:	20732d66 	rsbscs	r2, r3, r6, ror #26
 108:	6c666d2d 	stclvs	13, cr6, [r6], #-180	; 0xffffff4c
 10c:	2d74616f 	ldfcse	f6, [r4, #-444]!	; 0xfffffe44
 110:	3d696261 	sfmcc	f6, 2, [r9, #-388]!	; 0xfffffe7c
 114:	74666f73 	strbtvc	r6, [r6], #-3955	; 0xfffff08d
 118:	616d2d20 	cmnvs	sp, r0, lsr #26
 11c:	2d206d72 	stccs	13, cr6, [r0, #-456]!	; 0xfffffe38
 120:	6372616d 	cmnvs	r2, #1073741851	; 0x4000001b
 124:	72613d68 	rsbvc	r3, r1, #104, 26	; 0x1a00
 128:	6b36766d 	blvs	d9dae4 <__bss_end__+0xd93af4>
 12c:	672d207a 			; <UNDEFINED> instruction: 0x672d207a
 130:	20626467 	rsbcs	r6, r2, r7, ror #8
 134:	20334f2d 	eorscs	r4, r3, sp, lsr #30
 138:	6474732d 	ldrbtvs	r7, [r4], #-813	; 0xfffffcd3
 13c:	756e673d 	strbvc	r6, [lr, #-1853]!	; 0xfffff8c3
 140:	2d203939 			; <UNDEFINED> instruction: 0x2d203939
 144:	65726666 	ldrbvs	r6, [r2, #-1638]!	; 0xfffff99a
 148:	61747365 	cmnvs	r4, r5, ror #6
 14c:	6e69646e 	cdpvs	4, 6, cr6, cr9, cr14, {3}
 150:	2d320067 	ldccs	0, cr0, [r2, #-412]!	; 0xfffffe64
 154:	706f656e 	rsbvc	r6, pc, lr, ror #10
 158:	632e7869 			; <UNDEFINED> instruction: 0x632e7869
 15c:	6e6f6c00 	cdpvs	12, 6, cr6, cr15, cr0, {0}
 160:	6f6c2067 	svcvs	0x006c2067
 164:	7520676e 	strvc	r6, [r0, #-1902]!	; 0xfffff892
 168:	6769736e 	strbvs	r7, [r9, -lr, ror #6]!
 16c:	2064656e 	rsbcs	r6, r4, lr, ror #10
 170:	00746e69 	rsbseq	r6, r4, r9, ror #28
 174:	5f6f656e 	svcpl	0x006f656e
 178:	6f6c0074 	svcvs	0x006c0074
 17c:	6c20676e 	stcvs	7, cr6, [r0], #-440	; 0xfffffe48
 180:	20676e6f 	rsbcs	r6, r7, pc, ror #28
 184:	00746e69 	rsbseq	r6, r4, r9, ror #28
 188:	5f697072 	svcpl	0x00697072
 18c:	63747570 	cmnvs	r4, #112, 10	; 0x1c000000
 190:	00726168 	rsbseq	r6, r2, r8, ror #2
 194:	726f6873 	rsbvc	r6, pc, #7536640	; 0x730000
 198:	6e692074 	mcrvs	0, 3, r2, cr9, cr4, {3}
 19c:	6e650074 	mcrvs	0, 3, r0, cr5, cr4, {3}
 1a0:	656c6261 	strbvs	r6, [ip, #-609]!	; 0xfffffd9f
 1a4:	6361635f 	cmnvs	r1, #2080374785	; 0x7c000001
 1a8:	2f006568 	svccs	0x00006568
 1ac:	72657355 	rsbvc	r7, r5, #1409286145	; 0x54000001
 1b0:	6e612f73 	mcrvs	15, 3, r2, cr1, cr3, {3}
 1b4:	442f616e 	strtmi	r6, [pc], #-366	; 1bc <__code_start__-0x7e44>
 1b8:	6d75636f 	ldclvs	3, cr6, [r5, #-444]!	; 0xfffffe44
 1bc:	73746e65 	cmnvc	r4, #1616	; 0x650
 1c0:	6863532f 	stmdavs	r3!, {r0, r1, r2, r3, r5, r8, r9, ip, lr}^
 1c4:	2f6c6f6f 	svccs	0x006c6f6f
 1c8:	6c6c6f43 	stclvs	15, cr6, [ip], #-268	; 0xfffffef4
 1cc:	2f656765 	svccs	0x00656765
 1d0:	696e754a 	stmdbvs	lr!, {r1, r3, r6, r8, sl, ip, sp, lr}^
 1d4:	532f726f 			; <UNDEFINED> instruction: 0x532f726f
 1d8:	432f3232 			; <UNDEFINED> instruction: 0x432f3232
 1dc:	30343253 	eorscc	r3, r4, r3, asr r2
 1e0:	702f584c 	eorvc	r5, pc, ip, asr #16
 1e4:	656a6f72 	strbvs	r6, [sl, #-3954]!	; 0xfffff08e
 1e8:	632f7463 			; <UNDEFINED> instruction: 0x632f7463
 1ec:	0065646f 	rsbeq	r6, r5, pc, ror #8
 1f0:	74697277 	strbtvc	r7, [r9], #-631	; 0xfffffd89
 1f4:	00305f65 	eorseq	r5, r0, r5, ror #30
 1f8:	74697277 	strbtvc	r7, [r9], #-631	; 0xfffffd89
 1fc:	00315f65 	eorseq	r5, r1, r5, ror #30
 200:	5f6f656e 	svcpl	0x006f656e
 204:	65786970 	ldrbvs	r6, [r8, #-2416]!	; 0xfffff690
 208:	7473006c 	ldrbtvc	r0, [r3], #-108	; 0xffffff94
 20c:	5f747261 	svcpl	0x00747261
 210:	00637963 	rsbeq	r7, r3, r3, ror #18
 214:	74756f5f 	ldrbtvc	r6, [r5], #-3935	; 0xfffff0a1
 218:	6e697500 	cdpvs	5, 6, cr7, cr9, cr0, {0}
 21c:	745f3874 	ldrbvc	r3, [pc], #-2164	; 224 <__code_start__-0x7ddc>
 220:	65727400 	ldrbvs	r7, [r2, #-1024]!	; 0xfffffc00
 224:	00746573 	rsbseq	r6, r4, r3, ror r5
 228:	706f656e 	rsbvc	r6, pc, lr, ror #10
 22c:	635f7869 	cmpvs	pc, #6881280	; 0x690000
 230:	7261656c 	rsbvc	r6, r1, #108, 10	; 0x1b000000
 234:	78697000 	stmdavc	r9!, {ip, sp, lr}^
 238:	6e65735f 	mcrvs	3, 3, r7, cr5, cr15, {2}
 23c:	74696264 	strbtvc	r6, [r9], #-612	; 0xfffffd9c
 240:	6c656400 	cfstrdvs	mvd6, [r5], #-0
 244:	6e5f7961 	vnmlavs.f16	s15, s30, s3	; <UNPREDICTABLE>
 248:	6c637963 			; <UNDEFINED> instruction: 0x6c637963
 24c:	6d007365 	stcvs	3, cr7, [r0, #-404]	; 0xfffffe6c
 250:	65736d65 	ldrbvs	r6, [r3, #-3429]!	; 0xfffff29b
 254:	5f6e0074 	svcpl	0x006e0074
 258:	00637963 	rsbeq	r7, r3, r3, ror #18
 25c:	5f786970 	svcpl	0x00786970
 260:	646e6573 	strbtvs	r6, [lr], #-1395	; 0xfffffa8d
 264:	65747962 	ldrbvs	r7, [r4, #-2402]!	; 0xfffff69e
 268:	6e697500 	cdpvs	5, 6, cr7, cr9, cr0, {0}
 26c:	5f323374 	svcpl	0x00323374
 270:	706e0074 	rsbvc	r0, lr, r4, ror r0
 274:	6c657869 	stclvs	8, cr7, [r5], #-420	; 0xfffffe5c
 278:	6f656e00 	svcvs	0x00656e00
 27c:	5f786970 	svcpl	0x00786970
 280:	74736166 	ldrbtvc	r6, [r3], #-358	; 0xfffffe9a
 284:	656c635f 	strbvs	r6, [ip, #-863]!	; 0xfffffca1
 288:	6e007261 	cdpvs	2, 0, cr7, cr0, cr1, {3}
 28c:	69706f65 	ldmdbvs	r0!, {r0, r2, r5, r6, r8, r9, sl, fp, sp, lr}^
 290:	2e6c6578 	mcrcs	5, 3, r6, cr12, cr8, {3}
 294:	70670063 	rsbvc	r0, r7, r3, rrx
 298:	735f6f69 	cmpvc	pc, #420	; 0x1a4
 29c:	6f5f7465 	svcvs	0x005f7465
 2a0:	61725f6e 	cmnvs	r2, lr, ror #30
 2a4:	6d6b0077 	stclvs	0, cr0, [fp, #-476]!	; 0xfffffe24
 2a8:	6f6c6c61 	svcvs	0x006c6c61
 2ac:	6e695f63 	cdpvs	15, 6, cr5, cr9, cr3, {3}
 2b0:	6b007469 	blvs	1d45c <__bss_end__+0x1346c>
 2b4:	6c6c616d 	stfvse	f6, [ip], #-436	; 0xfffffe4c
 2b8:	6700636f 	strvs	r6, [r0, -pc, ror #6]
 2bc:	5f6f6970 	svcpl	0x006f6970
 2c0:	5f746573 	svcpl	0x00746573
 2c4:	5f66666f 	svcpl	0x0066666f
 2c8:	00776172 	rsbseq	r6, r7, r2, ror r1
 2cc:	53554c46 	cmppl	r5, #17920	; 0x4600
 2d0:	656e0048 	strbvs	r0, [lr, #-72]!	; 0xffffffb8
 2d4:	7869706f 	stmdavc	r9!, {r0, r1, r2, r3, r5, r6, ip, sp, lr}^
 2d8:	6e65735f 	mcrvs	3, 3, r7, cr5, cr15, {2}
 2dc:	78697064 	stmdavc	r9!, {r2, r5, r6, ip, sp, lr}^
 2e0:	67006c65 	strvs	r6, [r0, -r5, ror #24]
 2e4:	5f6f6970 	svcpl	0x006f6970
 2e8:	30726c63 	rsbscc	r6, r2, r3, ror #24
 2ec:	69706700 	ldmdbvs	r0!, {r8, r9, sl, sp, lr}^
 2f0:	65735f6f 	ldrbvs	r5, [r3, #-3951]!	; 0xfffff091
 2f4:	67003074 	smlsdxvs	r0, r4, r0, r3
 2f8:	5f6f6970 	svcpl	0x006f6970
 2fc:	74697277 	strbtvc	r7, [r9], #-631	; 0xfffffd89
 300:	50470065 	subpl	r0, r7, r5, rrx
 304:	465f4f49 	ldrbmi	r4, [pc], -r9, asr #30
 308:	5f434e55 	svcpl	0x00434e55
 30c:	5054554f 	subspl	r5, r4, pc, asr #10
 310:	44005455 	strmi	r5, [r0], #-1109	; 0xfffffbab
 314:	565f5645 	ldrbpl	r5, [pc], -r5, asr #12
 318:	32334c41 	eorscc	r4, r3, #16640	; 0x4100
 31c:	49504700 	ldmdbmi	r0, {r8, r9, sl, lr}^
 320:	55465f4f 	strbpl	r5, [r6, #-3919]	; 0xfffff0b1
 324:	415f434e 	cmpmi	pc, lr, asr #6
 328:	0034544c 	eorseq	r5, r4, ip, asr #8
 32c:	33545550 	cmpcc	r4, #80, 10	; 0x14000000
 330:	70670032 	rsbvc	r0, r7, r2, lsr r0
 334:	725f6f69 	subsvc	r6, pc, #420	; 0x1a4
 338:	00646165 	rsbeq	r6, r4, r5, ror #2
 33c:	33544547 	cmpcc	r4, #297795584	; 0x11c00000
 340:	50470032 	subpl	r0, r7, r2, lsr r0
 344:	465f4f49 	ldrbmi	r4, [pc], -r9, asr #30
 348:	5f434e55 	svcpl	0x00434e55
 34c:	30544c41 	subscc	r4, r4, r1, asr #24
 350:	49504700 	ldmdbmi	r0, {r8, r9, sl, lr}^
 354:	55465f4f 	strbpl	r5, [r6, #-3919]	; 0xfffff0b1
 358:	415f434e 	cmpmi	pc, lr, asr #6
 35c:	0031544c 	eorseq	r5, r1, ip, asr #8
 360:	4f495047 	svcmi	0x00495047
 364:	4e55465f 	mrcmi	6, 2, r4, cr5, cr15, {2}
 368:	4c415f43 	mcrrmi	15, 4, r5, r1, cr3
 36c:	47003254 	smlsdmi	r0, r4, r2, r3
 370:	5f4f4950 	svcpl	0x004f4950
 374:	434e5546 	movtmi	r5, #58694	; 0xe546
 378:	544c415f 	strbpl	r4, [ip], #-351	; 0xfffffea1
 37c:	50470033 	subpl	r0, r7, r3, lsr r0
 380:	465f4f49 	ldrbmi	r4, [pc], -r9, asr #30
 384:	5f434e55 	svcpl	0x00434e55
 388:	35544c41 	ldrbcc	r4, [r4, #-3137]	; 0xfffff3bf
 38c:	732f2e00 			; <UNDEFINED> instruction: 0x732f2e00
 390:	672f6372 			; <UNDEFINED> instruction: 0x672f6372
 394:	2e6f6970 			; <UNDEFINED> instruction: 0x2e6f6970
 398:	70670063 	rsbvc	r0, r7, r3, rrx
 39c:	735f6f69 	cmpvc	pc, #420	; 0x1a4
 3a0:	695f7465 	ldmdbvs	pc, {r0, r2, r5, r6, sl, ip, sp, lr}^	; <UNPREDICTABLE>
 3a4:	7475706e 	ldrbtvc	r7, [r5], #-110	; 0xffffff92
 3a8:	69706700 	ldmdbvs	r0!, {r8, r9, sl, sp, lr}^
 3ac:	65735f6f 	ldrbvs	r5, [r3, #-3951]!	; 0xfffff091
 3b0:	666f5f74 	uqsub16vs	r5, pc, r4	; <UNPREDICTABLE>
 3b4:	75660066 	strbvc	r0, [r6, #-102]!	; 0xffffff9a
 3b8:	6700636e 	strvs	r6, [r0, -lr, ror #6]
 3bc:	5f6f6970 	svcpl	0x006f6970
 3c0:	636e7566 	cmnvs	lr, #427819008	; 0x19800000
 3c4:	6700745f 	smlsdvs	r0, pc, r4, r7	; <UNPREDICTABLE>
 3c8:	5f6f6970 	svcpl	0x006f6970
 3cc:	3076656c 	rsbscc	r6, r6, ip, ror #10
 3d0:	73552f00 	cmpvc	r5, #0, 30
 3d4:	2f737265 	svccs	0x00737265
 3d8:	616e6e61 	cmnvs	lr, r1, ror #28
 3dc:	636f442f 	cmnvs	pc, #788529152	; 0x2f000000
 3e0:	6e656d75 	mcrvs	13, 3, r6, cr5, cr5, {3}
 3e4:	532f7374 			; <UNDEFINED> instruction: 0x532f7374
 3e8:	6f6f6863 	svcvs	0x006f6863
 3ec:	6f432f6c 	svcvs	0x00432f6c
 3f0:	67656c6c 	strbvs	r6, [r5, -ip, ror #24]!
 3f4:	754a2f65 	strbvc	r2, [sl, #-3941]	; 0xfffff09b
 3f8:	726f696e 	rsbvc	r6, pc, #1802240	; 0x1b8000
 3fc:	3232532f 	eorscc	r5, r2, #-1140850688	; 0xbc000000
 400:	3253432f 	subscc	r4, r3, #-1140850688	; 0xbc000000
 404:	584c3034 	stmdapl	ip, {r2, r4, r5, ip, sp}^
 408:	63796d2f 	cmnvs	r9, #3008	; 0xbc0
 40c:	2f65646f 	svccs	0x0065646f
 410:	7062696c 	rsbvc	r6, r2, ip, ror #18
 414:	61620069 	cmnvs	r2, r9, rrx
 418:	47006b6e 	strmi	r6, [r0, -lr, ror #22]
 41c:	4320554e 			; <UNDEFINED> instruction: 0x4320554e
 420:	39203939 	stmdbcc	r0!, {r0, r3, r4, r5, r8, fp, ip, sp}
 424:	312e322e 			; <UNDEFINED> instruction: 0x312e322e
 428:	31303220 	teqcc	r0, r0, lsr #4
 42c:	32303139 	eorscc	r3, r0, #1073741838	; 0x4000000e
 430:	72282035 	eorvc	r2, r8, #53, 0	; 0x35
 434:	61656c65 	cmnvs	r5, r5, ror #24
 438:	20296573 	eorcs	r6, r9, r3, ror r5
 43c:	4d52415b 	ldfmie	f4, [r2, #-364]	; 0xfffffe94
 440:	6d72612f 	ldfvse	f6, [r2, #-188]!	; 0xffffff44
 444:	622d392d 	eorvs	r3, sp, #737280	; 0xb4000
 448:	636e6172 	cmnvs	lr, #-2147483620	; 0x8000001c
 44c:	65722068 	ldrbvs	r2, [r2, #-104]!	; 0xffffff98
 450:	69736976 	ldmdbvs	r3!, {r1, r2, r4, r5, r6, r8, fp, sp, lr}^
 454:	32206e6f 	eorcc	r6, r0, #1776	; 0x6f0
 458:	39353737 	ldmdbcc	r5!, {r0, r1, r2, r4, r5, r8, r9, sl, ip, sp}
 45c:	2d205d39 	stccs	13, cr5, [r0, #-228]!	; 0xffffff1c
 460:	7570636d 	ldrbvc	r6, [r0, #-877]!	; 0xfffffc93
 464:	6d72613d 	ldfvse	f6, [r2, #-244]!	; 0xffffff0c
 468:	36373131 			; <UNDEFINED> instruction: 0x36373131
 46c:	2d667a6a 	vstmdbcs	r6!, {s15-s120}
 470:	6d2d2073 	stcvs	0, cr2, [sp, #-460]!	; 0xfffffe34
 474:	656e7574 	strbvs	r7, [lr, #-1396]!	; 0xfffffa8c
 478:	6d72613d 	ldfvse	f6, [r2, #-244]!	; 0xffffff0c
 47c:	36373131 			; <UNDEFINED> instruction: 0x36373131
 480:	2d667a6a 	vstmdbcs	r6!, {s15-s120}
 484:	6d2d2073 	stcvs	0, cr2, [sp, #-460]!	; 0xfffffe34
 488:	616f6c66 	cmnvs	pc, r6, ror #24
 48c:	62612d74 	rsbvs	r2, r1, #116, 26	; 0x1d00
 490:	6f733d69 	svcvs	0x00733d69
 494:	2d207466 	cfstrscs	mvf7, [r0, #-408]!	; 0xfffffe68
 498:	6d72616d 	ldfvse	f6, [r2, #-436]!	; 0xfffffe4c
 49c:	616d2d20 	cmnvs	sp, r0, lsr #26
 4a0:	3d686372 	stclcc	3, cr6, [r8, #-456]!	; 0xfffffe38
 4a4:	766d7261 	strbtvc	r7, [sp], -r1, ror #4
 4a8:	207a6b36 	rsbscs	r6, sl, r6, lsr fp
 4ac:	6467672d 	strbtvs	r6, [r7], #-1837	; 0xfffff8d3
 4b0:	4f2d2062 	svcmi	0x002d2062
 4b4:	732d2067 			; <UNDEFINED> instruction: 0x732d2067
 4b8:	673d6474 			; <UNDEFINED> instruction: 0x673d6474
 4bc:	3939756e 	ldmdbcc	r9!, {r1, r2, r3, r5, r6, r8, sl, ip, sp, lr}
 4c0:	66662d20 	strbtvs	r2, [r6], -r0, lsr #26
 4c4:	73656572 	cmnvc	r5, #478150656	; 0x1c800000
 4c8:	646e6174 	strbtvs	r6, [lr], #-372	; 0xfffffe8c
 4cc:	00676e69 	rsbeq	r6, r7, r9, ror #28
 4d0:	4f495047 	svcmi	0x00495047
 4d4:	4e55465f 	mrcmi	6, 2, r4, cr5, cr15, {2}
 4d8:	4e495f43 	cdpmi	15, 4, cr5, cr9, cr3, {2}
 4dc:	00545550 	subseq	r5, r4, r0, asr r5
 4e0:	6f697067 	svcvs	0x00697067
 4e4:	7465735f 	strbtvc	r7, [r5], #-863	; 0xfffffca1
 4e8:	6e75665f 	mrcvs	6, 3, r6, cr5, cr15, {2}
 4ec:	6f697463 	svcvs	0x00697463
 4f0:	7067006e 	rsbvc	r0, r7, lr, rrx
 4f4:	735f6f69 	cmpvc	pc, #420	; 0x1a4
 4f8:	6f5f7465 	svcvs	0x005f7465
 4fc:	7369006e 	cmnvc	r9, #110, 0	; 0x6e
 500:	696c615f 	stmdbvs	ip!, {r0, r1, r2, r3, r4, r6, r8, sp, lr}^
 504:	64656e67 	strbtvs	r6, [r5], #-3687	; 0xfffff199
 508:	616d6b00 	cmnvs	sp, r0, lsl #22
 50c:	636f6c6c 	cmnvs	pc, #108, 24	; 0x6c00
 510:	696e695f 	stmdbvs	lr!, {r0, r1, r2, r3, r4, r6, r8, fp, sp, lr}^
 514:	65735f74 	ldrbvs	r5, [r3, #-3956]!	; 0xfffff08c
 518:	74735f74 	ldrbtvc	r5, [r3], #-3956	; 0xfffff08c
 51c:	00747261 	rsbseq	r7, r4, r1, ror #4
 520:	72732f2e 	rsbsvc	r2, r3, #184	; 0xb8
 524:	6d6b2f63 	stclvs	15, cr2, [fp, #-396]!	; 0xfffffe74
 528:	6f6c6c61 	svcvs	0x006c6c61
 52c:	00632e63 	rsbeq	r2, r3, r3, ror #28
 530:	6572666b 	ldrbvs	r6, [r2, #-1643]!	; 0xfffff995
 534:	6c615f65 	stclvs	15, cr5, [r1], #-404	; 0xfffffe6c
 538:	6d6b006c 	stclvs	0, cr0, [fp, #-432]!	; 0xfffffe50
 53c:	6f6c6c61 	svcvs	0x006c6c61
 540:	65685f63 	strbvs	r5, [r8, #-3939]!	; 0xfffff09d
 544:	655f7061 	ldrbvs	r7, [pc, #-97]	; 4eb <__code_start__-0x7b15>
 548:	6900646e 	stmdbvs	r0, {r1, r2, r3, r5, r6, sl, sp, lr}
 54c:	6f705f73 	svcvs	0x00705f73
 550:	6d003277 	sfmvs	f3, 4, [r0, #-476]	; 0xfffffe24
 554:	6e5f7861 	cdpvs	8, 5, cr7, cr15, cr1, {3}
 558:	65747962 	ldrbvs	r7, [r4, #-2402]!	; 0xfffff69e
 55c:	6c610073 	stclvs	0, cr0, [r1], #-460	; 0xfffffe34
 560:	6d6e6769 	stclvs	7, cr6, [lr, #-420]!	; 0xfffffe5c
 564:	00746e65 	rsbseq	r6, r4, r5, ror #28
 568:	5f697072 	svcpl	0x00697072
 56c:	65736572 	ldrbvs	r6, [r3, #-1394]!	; 0xfffffa8e
 570:	75705f74 	ldrbvc	r5, [r0, #-3956]!	; 0xfffff08c
 574:	72006374 	andvc	r6, r0, #116, 6	; 0xd0000001
 578:	646e756f 	strbtvs	r7, [lr], #-1391	; 0xfffffa91
 57c:	64007075 	strvs	r7, [r0], #-117	; 0xffffff8b
 580:	6c62756f 	cfstr64vs	mvdx7, [r2], #-444	; 0xfffffe44
 584:	5f5f0065 	svcpl	0x005f0065
 588:	434e5546 	movtmi	r5, #58694	; 0xe546
 58c:	4e4f4954 			; <UNDEFINED> instruction: 0x4e4f4954
 590:	69005f5f 	stmdbvs	r0, {r0, r1, r2, r3, r4, r6, r8, r9, sl, fp, ip, lr}
 594:	5f74696e 	svcpl	0x0074696e
 598:	6c630070 	stclvs	0, cr0, [r3], #-448	; 0xfffffe40
 59c:	5f6e6165 	svcpl	0x006e6165
 5a0:	6f626572 	svcvs	0x00626572
 5a4:	6b00746f 	blvs	1d768 <__bss_end__+0x13778>
 5a8:	6c6c616d 	stfvse	f6, [ip], #-436	; 0xfffffe4c
 5ac:	615f636f 	cmpvs	pc, pc, ror #6
 5b0:	6e67696c 	vnmulvs.f16	s13, s14, s25	; <UNPREDICTABLE>
 5b4:	6b006465 	blvs	19750 <__bss_end__+0xf760>
 5b8:	6c6c616d 	stfvse	f6, [ip], #-436	; 0xfffffe4c
 5bc:	685f636f 	ldmdavs	pc, {r0, r1, r2, r3, r5, r6, r8, r9, sp, lr}^	; <UNPREDICTABLE>
 5c0:	5f706165 	svcpl	0x00706165
 5c4:	72617473 	rsbvc	r7, r1, #1929379840	; 0x73000000
 5c8:	6f720074 	svcvs	0x00720074
 5cc:	65646e75 	strbvs	r6, [r4, #-3701]!	; 0xfffff18b
 5d0:	626e5f64 	rsbvs	r5, lr, #100, 30	; 0x190
 5d4:	73657479 	cmnvc	r5, #2030043136	; 0x79000000
 5d8:	616d6b00 	cmnvs	sp, r0, lsl #22
 5dc:	636f6c6c 	cmnvs	pc, #108, 24	; 0x6c00
 5e0:	6165685f 	cmnvs	r5, pc, asr r8
 5e4:	74705f70 	ldrbtvc	r5, [r0], #-3952	; 0xfffff090
 5e8:	5f5f0072 	svcpl	0x005f0072
 5ec:	70616568 	rsbvc	r6, r1, r8, ror #10
 5f0:	6174735f 	cmnvs	r4, pc, asr r3
 5f4:	5f5f7472 	svcpl	0x005f7472
 5f8:	6d656d00 	stclvs	13, cr6, [r5, #-0]
 5fc:	5f79726f 	svcpl	0x0079726f
 600:	636f6c62 	cmnvs	pc, #25088	; 0x6200
 604:	615f006b 	cmpvs	pc, fp, rrx
 608:	00726464 	rsbseq	r6, r2, r4, ror #8
 60c:	657a6973 	ldrbvs	r6, [sl, #-2419]!	; 0xfffff68d
 610:	2e00745f 	cfmvsrcs	mvf0, r7
 614:	62696c2f 	rsbvs	r6, r9, #12032	; 0x2f00
 618:	656d2f63 	strbvs	r2, [sp, #-3939]!	; 0xfffff09d
 61c:	7465736d 	strbtvc	r7, [r5], #-877	; 0xfffffc93
 620:	6100632e 	tstvs	r0, lr, lsr #6
 624:	00736772 	rsbseq	r6, r3, r2, ror r7
 628:	705f6176 	subsvc	r6, pc, r6, ror r1	; <UNPREDICTABLE>
 62c:	746e6972 	strbtvc	r6, [lr], #-2418	; 0xfffff68e
 630:	5f5f006b 	svcpl	0x005f006b
 634:	63756e67 	cmnvs	r5, #1648	; 0x670
 638:	5f61765f 	svcpl	0x0061765f
 63c:	7473696c 	ldrbtvc	r6, [r3], #-2412	; 0xfffff694
 640:	615f5f00 	cmpvs	pc, r0, lsl #30
 644:	2f2e0070 	svccs	0x002e0070
 648:	6362696c 	cmnvs	r2, #108, 18	; 0x1b0000
 64c:	6972702f 	ldmdbvs	r2!, {r0, r1, r2, r3, r5, ip, sp, lr}^
 650:	2e6b746e 	cdpcs	4, 6, cr7, cr11, cr14, {3}
 654:	5f5f0063 	svcpl	0x005f0063
 658:	6c5f6176 	ldfvse	f6, [pc], {118}	; 0x76
 65c:	00747369 	rsbseq	r7, r4, r9, ror #6
 660:	65746e69 	ldrbvs	r6, [r4, #-3689]!	; 0xfffff197
 664:	6c616e72 	stclvs	14, cr6, [r1], #-456	; 0xfffffe38
 668:	7475705f 	ldrbtvc	r7, [r5], #-95	; 0xffffffa1
 66c:	72616863 	rsbvc	r6, r1, #6488064	; 0x630000
 670:	69707200 	ldmdbvs	r0!, {r9, ip, sp, lr}^
 674:	7465735f 	strbtvc	r7, [r5], #-863	; 0xfffffca1
 678:	7475705f 	ldrbtvc	r7, [r5], #-95	; 0xffffffa1
 67c:	2f2e0063 	svccs	0x002e0063
 680:	6362696c 	cmnvs	r2, #108, 18	; 0x1b0000
 684:	7475702f 	ldrbtvc	r7, [r5], #-47	; 0xffffffd1
 688:	72616863 	rsbvc	r6, r1, #6488064	; 0x630000
 68c:	7500632e 	strvc	r6, [r0, #-814]	; 0xfffffcd2
 690:	5f747261 	svcpl	0x00747261
 694:	63747570 	cmnvs	r4, #112, 10	; 0x1c000000
 698:	746e6900 	strbtvc	r6, [lr], #-2304	; 0xfffff700
 69c:	616e7265 	cmnvs	lr, r5, ror #4
 6a0:	75705f6c 	ldrbvc	r5, [r0, #-3948]!	; 0xfffff094
 6a4:	2e006b74 	vmovcs.16	d0[1], r6
 6a8:	62696c2f 	rsbvs	r6, r9, #12032	; 0x2f00
 6ac:	75702f63 	ldrbvc	r2, [r0, #-3939]!	; 0xfffff09d
 6b0:	632e6b74 			; <UNDEFINED> instruction: 0x632e6b74
 6b4:	64736900 	ldrbtvs	r6, [r3], #-2304	; 0xfffff700
 6b8:	74696769 	strbtvc	r6, [r9], #-1897	; 0xfffff897
 6bc:	6e697500 	cdpvs	5, 6, cr7, cr9, cr0, {0}
 6c0:	5f343674 	svcpl	0x00343674
 6c4:	2f2e0074 	svccs	0x002e0074
 6c8:	6362696c 	cmnvs	r2, #108, 18	; 0x1b0000
 6cc:	2d61762f 	stclcs	6, cr7, [r1, #-188]!	; 0xffffff44
 6d0:	6e697270 	mcrvs	2, 3, r7, cr9, cr0, {3}
 6d4:	632e6b74 			; <UNDEFINED> instruction: 0x632e6b74
 6d8:	635f5f00 	cmpvs	pc, #0, 30
 6dc:	5f65646f 	svcpl	0x0065646f
 6e0:	72617473 	rsbvc	r7, r1, #1929379840	; 0x73000000
 6e4:	005f5f74 	subseq	r5, pc, r4, ror pc	; <UNPREDICTABLE>
 6e8:	73625f5f 	cmnvc	r2, #380	; 0x17c
 6ec:	74735f73 	ldrbtvc	r5, [r3], #-3955	; 0xfffff08d
 6f0:	5f747261 	svcpl	0x00747261
 6f4:	6977005f 	ldmdbvs	r7!, {r0, r1, r2, r3, r4, r6}^
 6f8:	00687464 	rsbeq	r7, r8, r4, ror #8
 6fc:	61645f5f 	cmnvs	r4, pc, asr pc
 700:	655f6174 	ldrbvs	r6, [pc, #-372]	; 594 <__code_start__-0x7a6c>
 704:	5f5f646e 	svcpl	0x005f646e
 708:	74757000 	ldrbtvc	r7, [r5], #-0
 70c:	70665f63 	rsbvc	r5, r6, r3, ror #30
 710:	625f5f00 	subsvs	r5, pc, #0, 30
 714:	655f7373 	ldrbvs	r7, [pc, #-883]	; 3a9 <__code_start__-0x7c57>
 718:	5f5f646e 	svcpl	0x005f646e
 71c:	69707200 	ldmdbvs	r0!, {r9, ip, sp, lr}^
 720:	7465735f 	strbtvc	r7, [r5], #-863	; 0xfffffca1
 724:	74756f5f 	ldrbtvc	r6, [r5], #-3935	; 0xfffff0a1
 728:	00747570 	rsbseq	r7, r4, r0, ror r5
 72c:	5f746d66 	svcpl	0x00746d66
 730:	72617473 	rsbvc	r7, r1, #1929379840	; 0x73000000
 734:	74730074 	ldrbtvc	r0, [r3], #-116	; 0xffffff8c
 738:	74616372 	strbtvc	r6, [r1], #-882	; 0xfffffc8e
 73c:	72747300 	rsbsvc	r7, r4, #0, 6
 740:	00797063 	rsbseq	r7, r9, r3, rrx
 744:	5f67656e 	svcpl	0x0067656e
 748:	5f5f0070 	svcpl	0x005f0070
 74c:	65646f63 	strbvs	r6, [r4, #-3939]!	; 0xfffff09d
 750:	646e655f 	strbtvs	r6, [lr], #-1375	; 0xfffffaa1
 754:	65005f5f 	strvs	r5, [r0, #-3935]	; 0xfffff0a1
 758:	0074696d 	rsbseq	r6, r4, sp, ror #18
 75c:	73747570 	cmnvc	r4, #112, 10	; 0x1c000000
 760:	0070665f 	rsbseq	r6, r0, pc, asr r6
 764:	65766572 	ldrbvs	r6, [r6, #-1394]!	; 0xfffffa8e
 768:	00657372 	rsbeq	r7, r5, r2, ror r3
 76c:	63727473 	cmnvs	r2, #1929379840	; 0x73000000
 770:	5f00706d 	svcpl	0x0000706d
 774:	7461645f 	strbtvc	r6, [r1], #-1119	; 0xfffffba1
 778:	74735f61 	ldrbtvc	r5, [r3], #-3937	; 0xfffff09f
 77c:	5f747261 	svcpl	0x00747261
 780:	5f5f005f 	svcpl	0x005f005f
 784:	676f7270 			; <UNDEFINED> instruction: 0x676f7270
 788:	646e655f 	strbtvs	r6, [lr], #-1375	; 0xfffffaa1
 78c:	6e005f5f 	mcrvs	15, 0, r5, cr0, cr15, {2}
 790:	00316d75 	eorseq	r6, r1, r5, ror sp
 794:	6e727473 	mrcvs	4, 3, r7, cr2, cr3, {3}
 798:	00706d63 	rsbseq	r6, r0, r3, ror #26
 79c:	65736162 	ldrbvs	r6, [r3, #-354]!	; 0xfffffe9e
 7a0:	67697300 	strbvs	r7, [r9, -r0, lsl #6]!
 7a4:	5f64656e 	svcpl	0x0064656e
 7a8:	69640070 	stmdbvs	r4!, {r4, r5, r6}^
 7ac:	6c626173 	stfvse	f6, [r2], #-460	; 0xfffffe34
 7b0:	61635f65 	cmnvs	r3, r5, ror #30
 7b4:	00656863 	rsbeq	r6, r5, r3, ror #16
 7b8:	74732f2e 	ldrbtvc	r2, [r3], #-3886	; 0xfffff0d2
 7bc:	2d666661 	stclcs	6, cr6, [r6, #-388]!	; 0xfffffe7c
 7c0:	2f637273 	svccs	0x00637273
 7c4:	68636163 	stmdavs	r3!, {r0, r1, r5, r6, r8, sp, lr}^
 7c8:	00632e65 	rsbeq	r2, r3, r5, ror #28
 7cc:	5f697072 	svcpl	0x00697072
 7d0:	6f626572 	svcvs	0x00626572
 7d4:	2e00746f 	cdpcs	4, 0, cr7, cr0, cr15, {3}
 7d8:	6174732f 	cmnvs	r4, pc, lsr #6
 7dc:	732d6666 			; <UNDEFINED> instruction: 0x732d6666
 7e0:	632f6372 			; <UNDEFINED> instruction: 0x632f6372
 7e4:	6e61656c 	cdpvs	5, 6, cr6, cr1, cr12, {3}
 7e8:	6265722d 	rsbvs	r7, r5, #-805306366	; 0xd0000002
 7ec:	2e746f6f 	cdpcs	15, 7, cr6, cr4, cr15, {3}
 7f0:	61750063 	cmnvs	r5, r3, rrx
 7f4:	665f7472 			; <UNDEFINED> instruction: 0x665f7472
 7f8:	6873756c 	ldmdavs	r3!, {r2, r3, r5, r6, r8, sl, ip, sp, lr}^
 7fc:	0078745f 	rsbseq	r7, r8, pc, asr r4
 800:	7473635f 	ldrbtvc	r6, [r3], #-863	; 0xfffffca1
 804:	00747261 	rsbseq	r7, r4, r1, ror #4
 808:	5f737362 	svcpl	0x00737362
 80c:	00646e65 	rsbeq	r6, r4, r5, ror #28
 810:	74726175 	ldrbtvc	r6, [r2], #-373	; 0xfffffe8b
 814:	696e695f 	stmdbvs	lr!, {r0, r1, r2, r3, r4, r6, r8, fp, sp, lr}^
 818:	75630074 	strbvc	r0, [r3, #-116]!	; 0xffffff8c
 81c:	6d6f7473 	cfstrdvs	mvd7, [pc, #-460]!	; 658 <__code_start__-0x79a8>
 820:	616f6c5f 	cmnvs	pc, pc, asr ip	; <UNPREDICTABLE>
 824:	00726564 	rsbseq	r6, r2, r4, ror #10
 828:	74732f2e 	ldrbtvc	r2, [r3], #-3886	; 0xfffff0d2
 82c:	2d666661 	stclcs	6, cr6, [r6, #-388]!	; 0xfffffe7c
 830:	2f637273 	svccs	0x00637273
 834:	61747363 	cmnvs	r4, r3, ror #6
 838:	632e7472 			; <UNDEFINED> instruction: 0x632e7472
 83c:	732f2e00 			; <UNDEFINED> instruction: 0x732f2e00
 840:	66666174 			; <UNDEFINED> instruction: 0x66666174
 844:	6372732d 	cmnvs	r2, #-1275068416	; 0xb4000000
 848:	7375632f 	cmnvc	r5, #-1140850688	; 0xbc000000
 84c:	2d6d6f74 	stclcs	15, cr6, [sp, #-464]!	; 0xfffffe30
 850:	64616f6c 	strbtvs	r6, [r1], #-3948	; 0xfffff094
 854:	632e7265 			; <UNDEFINED> instruction: 0x632e7265
 858:	62657200 	rsbvs	r7, r5, #0, 4
 85c:	5f746f6f 	svcpl	0x00746f6f
 860:	6c6c6163 	stfvse	f6, [ip], #-396	; 0xfffffe74
 864:	0074756f 	rsbseq	r7, r4, pc, ror #10
 868:	575f4d50 			; <UNDEFINED> instruction: 0x575f4d50
 86c:	00474f44 	subeq	r4, r7, r4, asr #30
 870:	5f746573 	svcpl	0x00746573
 874:	72657375 	rsbvc	r7, r5, #-738197503	; 0xd4000001
 878:	76656c5f 			; <UNDEFINED> instruction: 0x76656c5f
 87c:	2e006c65 	cdpcs	12, 0, cr6, cr0, cr5, {3}
 880:	6174732f 	cmnvs	r4, pc, lsr #6
 884:	732d6666 			; <UNDEFINED> instruction: 0x732d6666
 888:	722f6372 	eorvc	r6, pc, #-939524095	; 0xc8000001
 88c:	6f6f6265 	svcvs	0x006f6265
 890:	00632e74 	rsbeq	r2, r3, r4, ror lr
 894:	505f4d50 	subspl	r4, pc, r0, asr sp	; <UNPREDICTABLE>
 898:	57535341 	ldrbpl	r5, [r3, -r1, asr #6]
 89c:	0044524f 	subeq	r5, r4, pc, asr #4
 8a0:	755f7461 	ldrbvc	r7, [pc, #-1121]	; 447 <__code_start__-0x7bb9>
 8a4:	5f726573 	svcpl	0x00726573
 8a8:	6576656c 	ldrbvs	r6, [r6, #-1388]!	; 0xfffffa94
 8ac:	4d50006c 	ldclmi	0, cr0, [r0, #-432]	; 0xfffffe50
 8b0:	5453525f 	ldrbpl	r5, [r3], #-607	; 0xfffffda1
 8b4:	52575f43 	subspl	r5, r7, #268	; 0x10c
 8b8:	5f474643 	svcpl	0x00474643
 8bc:	4c4c5546 	cfstr64mi	mvdx5, [ip], {70}	; 0x46
 8c0:	5345525f 	movtpl	r5, #21087	; 0x525f
 8c4:	50005445 	andpl	r5, r0, r5, asr #8
 8c8:	53525f4d 	cmppl	r2, #308	; 0x134
 8cc:	63004354 	movwvs	r4, #852	; 0x354
 8d0:	00727370 	rsbseq	r7, r2, r0, ror r3
 8d4:	5f766564 	svcpl	0x00766564
 8d8:	72726162 	rsbsvc	r6, r2, #-2147483624	; 0x80000018
 8dc:	00726569 	rsbseq	r6, r2, r9, ror #10
 8e0:	616c6564 	cmnvs	ip, r4, ror #10
 8e4:	65735f79 	ldrbvs	r5, [r3, #-3961]!	; 0xfffff087
 8e8:	2f2e0063 	svccs	0x002e0063
 8ec:	66617473 			; <UNDEFINED> instruction: 0x66617473
 8f0:	72732d66 	rsbsvc	r2, r3, #6528	; 0x1980
 8f4:	69742f63 	ldmdbvs	r4!, {r0, r1, r5, r6, r8, r9, sl, fp, sp}^
 8f8:	2e72656d 	cdpcs	5, 7, cr6, cr2, cr13, {3}
 8fc:	69740063 	ldmdbvs	r4!, {r0, r1, r5, r6}^
 900:	5f72656d 	svcpl	0x0072656d
 904:	5f746567 	svcpl	0x00746567
 908:	63657375 	cmnvs	r5, #-738197503	; 0xd4000001
 90c:	6c656400 	cfstrdvs	mvd6, [r5], #-0
 910:	755f7961 	ldrbvc	r7, [pc, #-2401]	; ffffffb7 <__bss_end__+0xffff5fc7>
 914:	69740073 	ldmdbvs	r4!, {r0, r1, r4, r5, r6}^
 918:	5f72656d 	svcpl	0x0072656d
 91c:	5f746567 	svcpl	0x00746567
 920:	63657375 	cmnvs	r5, #-738197503	; 0xd4000001
 924:	7761725f 			; <UNDEFINED> instruction: 0x7761725f
 928:	74757000 	ldrbtvc	r7, [r5], #-0
 92c:	62003233 	andvs	r3, r0, #805306371	; 0x30000003
 930:	5f647561 	svcpl	0x00647561
 934:	006c6176 	rsbeq	r6, ip, r6, ror r1
 938:	74617473 	strbtvc	r7, [r1], #-1139	; 0xfffffb8d
 93c:	72617500 	rsbvc	r7, r1, #0, 10
 940:	61635f74 	smcvs	13812	; 0x35f4
 944:	65675f6e 	strbvs	r5, [r7, #-3950]!	; 0xfffff092
 948:	61006374 	tstvs	r0, r4, ror r3
 94c:	705f7875 	subsvc	r7, pc, r5, ror r8	; <UNPREDICTABLE>
 950:	70697265 	rsbvc	r7, r9, r5, ror #4
 954:	75007368 	strvc	r7, [r0, #-872]	; 0xfffffc98
 958:	2e747261 	cdpcs	2, 7, cr7, cr4, cr1, {3}
 95c:	61750063 	cmnvs	r5, r3, rrx
 960:	635f7472 	cmpvs	pc, #1912602624	; 0x72000000
 964:	705f6e61 	subsvc	r6, pc, r1, ror #28
 968:	00637475 	rsbeq	r7, r3, r5, ror r4
 96c:	74726175 	ldrbtvc	r6, [r2], #-373	; 0xfffffe8b
 970:	5f78745f 	svcpl	0x0078745f
 974:	655f7369 	ldrbvs	r7, [pc, #-873]	; 613 <__code_start__-0x79ed>
 978:	7974706d 	ldmdbvc	r4!, {r0, r2, r3, r5, r6, ip, sp, lr}^
 97c:	6f682f00 	svcvs	0x00682f00
 980:	652f656d 	strvs	r6, [pc, #-1389]!	; 41b <__code_start__-0x7be5>
 984:	656c676e 	strbvs	r6, [ip, #-1902]!	; 0xfffff892
 988:	6c632f72 	stclvs	15, cr2, [r3], #-456	; 0xfffffe38
 98c:	2f737361 	svccs	0x00737361
 990:	34327363 	ldrtcc	r7, [r2], #-867	; 0xfffffc9d
 994:	2d786c30 	ldclcs	12, cr6, [r8, #-192]!	; 0xffffff40
 998:	70733232 	rsbsvc	r3, r3, r2, lsr r2
 99c:	696c2f72 	stmdbvs	ip!, {r1, r4, r5, r6, r8, r9, sl, fp, sp}^
 9a0:	2f697062 	svccs	0x00697062
 9a4:	66617473 			; <UNDEFINED> instruction: 0x66617473
 9a8:	72702d66 	rsbsvc	r2, r0, #6528	; 0x1980
 9ac:	74617669 	strbtvc	r7, [r1], #-1641	; 0xfffff997
 9b0:	61620065 	cmnvs	r2, r5, rrx
 9b4:	61006475 	tstvs	r0, r5, ror r4
 9b8:	655f7875 	ldrbvs	r7, [pc, #-2165]	; 14b <__code_start__-0x7eb5>
 9bc:	6c62616e 	stfvse	f6, [r2], #-440	; 0xfffffe48
 9c0:	75007365 	strvc	r7, [r0, #-869]	; 0xfffffc9b
 9c4:	5f747261 	svcpl	0x00747261
 9c8:	63746567 	cmnvs	r4, #432013312	; 0x19c00000
 9cc:	554e4700 	strbpl	r4, [lr, #-1792]	; 0xfffff900
 9d0:	39394320 	ldmdbcc	r9!, {r5, r8, r9, lr}
 9d4:	2e303120 	rsfcssp	f3, f0, f0
 9d8:	20312e33 	eorscs	r2, r1, r3, lsr lr
 9dc:	31323032 	teqcc	r2, r2, lsr r0
 9e0:	34323830 	ldrtcc	r3, [r2], #-2096	; 0xfffff7d0
 9e4:	65722820 	ldrbvs	r2, [r2, #-2080]!	; 0xfffff7e0
 9e8:	7361656c 	cmnvc	r1, #108, 10	; 0x1b000000
 9ec:	2d202965 			; <UNDEFINED> instruction: 0x2d202965
 9f0:	7570636d 	ldrbvc	r6, [r0, #-877]!	; 0xfffffc93
 9f4:	6d72613d 	ldfvse	f6, [r2, #-244]!	; 0xffffff0c
 9f8:	36373131 			; <UNDEFINED> instruction: 0x36373131
 9fc:	2d667a6a 	vstmdbcs	r6!, {s15-s120}
 a00:	6d2d2073 	stcvs	0, cr2, [sp, #-460]!	; 0xfffffe34
 a04:	656e7574 	strbvs	r7, [lr, #-1396]!	; 0xfffffa8c
 a08:	6d72613d 	ldfvse	f6, [r2, #-244]!	; 0xffffff0c
 a0c:	36373131 			; <UNDEFINED> instruction: 0x36373131
 a10:	2d667a6a 	vstmdbcs	r6!, {s15-s120}
 a14:	6d2d2073 	stcvs	0, cr2, [sp, #-460]!	; 0xfffffe34
 a18:	616f6c66 	cmnvs	pc, r6, ror #24
 a1c:	62612d74 	rsbvs	r2, r1, #116, 26	; 0x1d00
 a20:	6f733d69 	svcvs	0x00733d69
 a24:	2d207466 	cfstrscs	mvf7, [r0, #-408]!	; 0xfffffe68
 a28:	6d72616d 	ldfvse	f6, [r2, #-436]!	; 0xfffffe4c
 a2c:	616d2d20 	cmnvs	sp, r0, lsr #26
 a30:	3d686372 	stclcc	3, cr6, [r8, #-456]!	; 0xfffffe38
 a34:	766d7261 	strbtvc	r7, [sp], -r1, ror #4
 a38:	207a6b36 	rsbscs	r6, sl, r6, lsr fp
 a3c:	6467672d 	strbtvs	r6, [r7], #-1837	; 0xfffff8d3
 a40:	4f2d2062 	svcmi	0x002d2062
 a44:	732d2067 			; <UNDEFINED> instruction: 0x732d2067
 a48:	673d6474 			; <UNDEFINED> instruction: 0x673d6474
 a4c:	3939756e 	ldmdbcc	r9!, {r1, r2, r3, r5, r6, r8, sl, ip, sp, lr}
 a50:	66662d20 	strbtvs	r2, [r6], -r0, lsr #26
 a54:	73656572 	cmnvc	r5, #478150656	; 0x1c800000
 a58:	646e6174 	strbtvs	r6, [lr], #-372	; 0xfffffe8c
 a5c:	00676e69 	rsbeq	r6, r7, r9, ror #28
 a60:	6c746e63 	ldclvs	14, cr6, [r4], #-396	; 0xfffffe74
 a64:	72617500 	rsbvc	r7, r1, #0, 10
 a68:	69645f74 	stmdbvs	r4!, {r2, r4, r5, r6, r8, r9, sl, fp, ip, lr}^
 a6c:	6c626173 	stfvse	f6, [r2], #-460	; 0xfffffe34
 a70:	61750065 	cmnvs	r5, r5, rrx
 a74:	685f7472 	ldmdavs	pc, {r1, r4, r5, r6, sl, ip, sp, lr}^	; <UNPREDICTABLE>
 a78:	645f7361 	ldrbvs	r7, [pc], #-865	; a80 <__code_start__-0x7580>
 a7c:	00617461 	rsbeq	r7, r1, r1, ror #8
 a80:	695f726f 	ldmdbvs	pc, {r0, r1, r2, r3, r5, r6, r9, ip, sp, lr}^	; <UNPREDICTABLE>
 a84:	0032336e 	eorseq	r3, r2, lr, ror #6
 a88:	61726373 	cmnvs	r2, r3, ror r3
 a8c:	00686374 	rsbeq	r6, r8, r4, ror r3
 a90:	74726175 	ldrbtvc	r6, [r2], #-373	; 0xfffffe8b
 a94:	646e6100 	strbtvs	r6, [lr], #-256	; 0xffffff00
 a98:	336e695f 	cmncc	lr, #1556480	; 0x17c000
 a9c:	65670032 	strbvs	r0, [r7, #-50]!	; 0xffffffce
 aa0:	00323374 	eorseq	r3, r2, r4, ror r3
 aa4:	74736564 	ldrbtvc	r6, [r3], #-1380	; 0xfffffa9c
 aa8:	6c2f2e00 	stcvs	14, cr2, [pc], #-0	; ab0 <__code_start__-0x7550>
 aac:	2f636269 	svccs	0x00636269
 ab0:	63727473 	cmnvs	r2, #1929379840	; 0x73000000
 ab4:	632e7461 			; <UNDEFINED> instruction: 0x632e7461
 ab8:	6c2f2e00 	stcvs	14, cr2, [pc], #-0	; ac0 <__code_start__-0x7540>
 abc:	2f636269 	svccs	0x00636269
 ac0:	63727473 	cmnvs	r2, #1929379840	; 0x73000000
 ac4:	632e706d 			; <UNDEFINED> instruction: 0x632e706d
 ac8:	6c2f2e00 	stcvs	14, cr2, [pc], #-0	; ad0 <__code_start__-0x7530>
 acc:	2f636269 	svccs	0x00636269
 ad0:	63727473 	cmnvs	r2, #1929379840	; 0x73000000
 ad4:	632e7970 			; <UNDEFINED> instruction: 0x632e7970
 ad8:	6c2f2e00 	stcvs	14, cr2, [pc], #-0	; ae0 <__code_start__-0x7520>
 adc:	2f636269 	svccs	0x00636269
 ae0:	6e727473 	mrcvs	4, 3, r7, cr2, cr3, {3}
 ae4:	2e706d63 	cdpcs	13, 7, cr6, cr0, cr3, {3}
 ae8:	2f2e0063 	svccs	0x002e0063
 aec:	66617473 			; <UNDEFINED> instruction: 0x66617473
 af0:	72732d66 	rsbsvc	r2, r3, #6528	; 0x1980
 af4:	65642f63 	strbvs	r2, [r4, #-3939]!	; 0xfffff09d
 af8:	6c756166 	ldfvse	f6, [r5], #-408	; 0xfffffe68
 afc:	65722d74 	ldrbvs	r2, [r2, #-3444]!	; 0xfffff28c
 b00:	746f6f62 	strbtvc	r6, [pc], #-3938	; b08 <__code_start__-0x74f8>
 b04:	6c61632d 	stclvs	3, cr6, [r1], #-180	; 0xffffff4c
 b08:	74756f6c 	ldrbtvc	r6, [r5], #-3948	; 0xfffff094
 b0c:	Address 0x0000000000000b0c is out of bounds.


Disassembly of section .debug_frame:

00000000 <.debug_frame>:
   0:	0000000c 	andeq	r0, r0, ip
   4:	ffffffff 			; <UNDEFINED> instruction: 0xffffffff
   8:	7c020001 	stcvc	0, cr0, [r2], {1}
   c:	000d0c0e 	andeq	r0, sp, lr, lsl #24
  10:	00000024 	andeq	r0, r0, r4, lsr #32
  14:	00000000 	andeq	r0, r0, r0
  18:	00008038 	andeq	r8, r0, r8, lsr r0
  1c:	0000006c 	andeq	r0, r0, ip, rrx
  20:	84100e42 	ldrhi	r0, [r0], #-3650	; 0xfffff1be
  24:	86038504 	strhi	r8, [r3], -r4, lsl #10
  28:	48018e02 	stmdami	r1, {r1, r9, sl, fp, pc}
  2c:	0e68180e 	cdpeq	8, 6, cr1, cr8, cr14, {0}
  30:	c6ce4210 			; <UNDEFINED> instruction: 0xc6ce4210
  34:	000ec4c5 	andeq	ip, lr, r5, asr #9
  38:	00000034 	andeq	r0, r0, r4, lsr r0
  3c:	00000000 	andeq	r0, r0, r0
  40:	000080a4 	andeq	r8, r0, r4, lsr #1
  44:	000000d0 	ldrdeq	r0, [r0], -r0	; <UNPREDICTABLE>
  48:	84200e42 	strthi	r0, [r0], #-3650	; 0xfffff1be
  4c:	86078508 	strhi	r8, [r7], -r8, lsl #10
  50:	88058706 	stmdahi	r5, {r1, r2, r8, r9, sl, pc}
  54:	8a038904 	bhi	e246c <__bss_end__+0xd847c>
  58:	42018e02 	andmi	r8, r1, #2, 28
  5c:	5c02280e 	stcpl	8, cr2, [r2], {14}
  60:	ce42200e 	cdpgt	0, 4, cr2, cr2, cr14, {0}
  64:	c7c8c9ca 	strbgt	ip, [r8, sl, asr #19]
  68:	0ec4c5c6 	cdpeq	5, 12, cr12, cr4, cr6, {6}
  6c:	00000000 	andeq	r0, r0, r0
  70:	0000000c 	andeq	r0, r0, ip
  74:	ffffffff 			; <UNDEFINED> instruction: 0xffffffff
  78:	7c020001 	stcvc	0, cr0, [r2], {1}
  7c:	000d0c0e 	andeq	r0, sp, lr, lsl #24
  80:	00000038 	andeq	r0, r0, r8, lsr r0
  84:	00000070 	andeq	r0, r0, r0, ror r0
  88:	00008174 	andeq	r8, r0, r4, ror r1
  8c:	00000234 	andeq	r0, r0, r4, lsr r2
  90:	841c0e48 	ldrhi	r0, [ip], #-3656	; 0xfffff1b8
  94:	86068507 	strhi	r8, [r6], -r7, lsl #10
  98:	88048705 	stmdahi	r4, {r0, r2, r8, r9, sl, pc}
  9c:	8e028903 	vmlahi.f16	s16, s4, s6	; <UNPREDICTABLE>
  a0:	0a980201 	beq	fe6008ac <__bss_end__+0xfe5f68bc>
  a4:	c7c8c9ce 	strbgt	ip, [r8, lr, asr #19]
  a8:	0ec4c5c6 	cdpeq	5, 12, cr12, cr4, cr6, {6}
  ac:	020b4600 	andeq	r4, fp, #0, 12
  b0:	c4000e54 	strgt	r0, [r0], #-3668	; 0xfffff1ac
  b4:	c8c7c6c5 	stmiagt	r7, {r0, r2, r6, r7, r9, sl, lr, pc}^
  b8:	0000cec9 	andeq	ip, r0, r9, asr #29
  bc:	0000001c 	andeq	r0, r0, ip, lsl r0
  c0:	00000070 	andeq	r0, r0, r0, ror r0
  c4:	000083a8 	andeq	r8, r0, r8, lsr #7
  c8:	00000048 	andeq	r0, r0, r8, asr #32
  cc:	84180e42 	ldrhi	r0, [r8], #-3650	; 0xfffff1be
  d0:	86058506 	strhi	r8, [r5], -r6, lsl #10
  d4:	88038704 	stmdahi	r3, {r2, r8, r9, sl, pc}
  d8:	00018e02 	andeq	r8, r1, r2, lsl #28
  dc:	00000018 	andeq	r0, r0, r8, lsl r0
  e0:	00000070 	andeq	r0, r0, r0, ror r0
  e4:	000083f0 	strdeq	r8, [r0], -r0
  e8:	000001b0 			; <UNDEFINED> instruction: 0x000001b0
  ec:	840c0e42 	strhi	r0, [ip], #-3650	; 0xfffff1be
  f0:	8e028503 	cfsh32hi	mvfx8, mvfx2, #3
  f4:	00000001 	andeq	r0, r0, r1
  f8:	0000001c 	andeq	r0, r0, ip, lsl r0
  fc:	00000070 	andeq	r0, r0, r0, ror r0
 100:	000085a0 	andeq	r8, r0, r0, lsr #11
 104:	000000f0 	strdeq	r0, [r0], -r0	; <UNPREDICTABLE>
 108:	840c0e48 	strhi	r0, [ip], #-3656	; 0xfffff1b8
 10c:	8e028503 	cfsh32hi	mvfx8, mvfx2, #3
 110:	ce6a0201 	cdpgt	2, 6, cr0, cr10, cr1, {0}
 114:	000ec4c5 	andeq	ip, lr, r5, asr #9
 118:	0000001c 	andeq	r0, r0, ip, lsl r0
 11c:	00000070 	andeq	r0, r0, r0, ror r0
 120:	00008690 	muleq	r0, r0, r6
 124:	000000f0 	strdeq	r0, [r0], -r0	; <UNPREDICTABLE>
 128:	840c0e42 	strhi	r0, [ip], #-3650	; 0xfffff1be
 12c:	8e028503 	cfsh32hi	mvfx8, mvfx2, #3
 130:	ce720201 	cdpgt	2, 7, cr0, cr2, cr1, {0}
 134:	000ec4c5 	andeq	ip, lr, r5, asr #9
 138:	0000000c 	andeq	r0, r0, ip
 13c:	00000070 	andeq	r0, r0, r0, ror r0
 140:	00008780 	andeq	r8, r0, r0, lsl #15
 144:	00000024 	andeq	r0, r0, r4, lsr #32
 148:	0000000c 	andeq	r0, r0, ip
 14c:	ffffffff 			; <UNDEFINED> instruction: 0xffffffff
 150:	7c020001 	stcvc	0, cr0, [r2], {1}
 154:	000d0c0e 	andeq	r0, sp, lr, lsl #24
 158:	00000018 	andeq	r0, r0, r8, lsl r0
 15c:	00000148 	andeq	r0, r0, r8, asr #2
 160:	000087a4 	andeq	r8, r0, r4, lsr #15
 164:	00000064 	andeq	r0, r0, r4, rrx
 168:	84100e46 	ldrhi	r0, [r0], #-3654	; 0xfffff1ba
 16c:	86038504 	strhi	r8, [r3], -r4, lsl #10
 170:	00018e02 	andeq	r8, r1, r2, lsl #28
 174:	00000014 	andeq	r0, r0, r4, lsl r0
 178:	00000148 	andeq	r0, r0, r8, asr #2
 17c:	00008808 	andeq	r8, r0, r8, lsl #16
 180:	00000010 	andeq	r0, r0, r0, lsl r0
 184:	84080e42 	strhi	r0, [r8], #-3650	; 0xfffff1be
 188:	00018e02 	andeq	r8, r1, r2, lsl #28
 18c:	00000014 	andeq	r0, r0, r4, lsl r0
 190:	00000148 	andeq	r0, r0, r8, asr #2
 194:	00008818 	andeq	r8, r0, r8, lsl r8
 198:	00000024 	andeq	r0, r0, r4, lsr #32
 19c:	84080e46 	strhi	r0, [r8], #-3654	; 0xfffff1ba
 1a0:	00018e02 	andeq	r8, r1, r2, lsl #28
 1a4:	00000014 	andeq	r0, r0, r4, lsl r0
 1a8:	00000148 	andeq	r0, r0, r8, asr #2
 1ac:	0000883c 	andeq	r8, r0, ip, lsr r8
 1b0:	00000024 	andeq	r0, r0, r4, lsr #32
 1b4:	84080e46 	strhi	r0, [r8], #-3654	; 0xfffff1ba
 1b8:	00018e02 	andeq	r8, r1, r2, lsl #28
 1bc:	00000014 	andeq	r0, r0, r4, lsl r0
 1c0:	00000148 	andeq	r0, r0, r8, asr #2
 1c4:	00008860 	andeq	r8, r0, r0, ror #16
 1c8:	00000010 	andeq	r0, r0, r0, lsl r0
 1cc:	84080e42 	strhi	r0, [r8], #-3650	; 0xfffff1be
 1d0:	00018e02 	andeq	r8, r1, r2, lsl #28
 1d4:	00000014 	andeq	r0, r0, r4, lsl r0
 1d8:	00000148 	andeq	r0, r0, r8, asr #2
 1dc:	00008870 	andeq	r8, r0, r0, ror r8
 1e0:	0000001c 	andeq	r0, r0, ip, lsl r0
 1e4:	84080e42 	strhi	r0, [r8], #-3650	; 0xfffff1be
 1e8:	00018e02 	andeq	r8, r1, r2, lsl #28
 1ec:	00000018 	andeq	r0, r0, r8, lsl r0
 1f0:	00000148 	andeq	r0, r0, r8, asr #2
 1f4:	0000888c 	andeq	r8, r0, ip, lsl #17
 1f8:	00000034 	andeq	r0, r0, r4, lsr r0
 1fc:	84080e46 	strhi	r0, [r8], #-3654	; 0xfffff1ba
 200:	4e018e02 	cdpmi	14, 0, cr8, cr1, cr2, {0}
 204:	cec4000e 	cdpgt	0, 12, cr0, cr4, cr14, {0}
 208:	0000000c 	andeq	r0, r0, ip
 20c:	ffffffff 			; <UNDEFINED> instruction: 0xffffffff
 210:	7c020001 	stcvc	0, cr0, [r2], {1}
 214:	000d0c0e 	andeq	r0, sp, lr, lsl #24
 218:	0000001c 	andeq	r0, r0, ip, lsl r0
 21c:	00000208 	andeq	r0, r0, r8, lsl #4
 220:	000088c0 	andeq	r8, r0, r0, asr #17
 224:	00000110 	andeq	r0, r0, r0, lsl r1
 228:	8e040e42 	cdphi	14, 0, cr0, cr4, cr2, {2}
 22c:	100e4201 	andne	r4, lr, r1, lsl #4
 230:	040e0a66 	streq	r0, [lr], #-2662	; 0xfffff59a
 234:	00000b42 	andeq	r0, r0, r2, asr #22
 238:	0000001c 	andeq	r0, r0, ip, lsl r0
 23c:	00000208 	andeq	r0, r0, r8, lsl #4
 240:	000089d0 	ldrdeq	r8, [r0], -r0
 244:	00000138 	andeq	r0, r0, r8, lsr r1
 248:	8e040e42 	cdphi	14, 0, cr0, cr4, cr2, {2}
 24c:	100e4201 	andne	r4, lr, r1, lsl #4
 250:	040e0a74 	streq	r0, [lr], #-2676	; 0xfffff58c
 254:	00000b42 	andeq	r0, r0, r2, asr #22
 258:	00000014 	andeq	r0, r0, r4, lsl r0
 25c:	00000208 	andeq	r0, r0, r8, lsl #4
 260:	00008b08 	andeq	r8, r0, r8, lsl #22
 264:	00000078 	andeq	r0, r0, r8, ror r0
 268:	8e040e5e 	mcrhi	14, 0, r0, cr4, cr14, {2}
 26c:	100e4201 	andne	r4, lr, r1, lsl #4
 270:	00000014 	andeq	r0, r0, r4, lsl r0
 274:	00000208 	andeq	r0, r0, r8, lsl #4
 278:	00008b80 	andeq	r8, r0, r0, lsl #23
 27c:	0000002c 	andeq	r0, r0, ip, lsr #32
 280:	84080e4a 	strhi	r0, [r8], #-3658	; 0xfffff1b6
 284:	00018e02 	andeq	r8, r1, r2, lsl #28
 288:	0000000c 	andeq	r0, r0, ip
 28c:	00000208 	andeq	r0, r0, r8, lsl #4
 290:	00008bac 	andeq	r8, r0, ip, lsr #23
 294:	00000014 	andeq	r0, r0, r4, lsl r0
 298:	0000000c 	andeq	r0, r0, ip
 29c:	00000208 	andeq	r0, r0, r8, lsl #4
 2a0:	00008bc0 	andeq	r8, r0, r0, asr #23
 2a4:	00000010 	andeq	r0, r0, r0, lsl r0
 2a8:	0000000c 	andeq	r0, r0, ip
 2ac:	00000208 	andeq	r0, r0, r8, lsl #4
 2b0:	00008bd0 	ldrdeq	r8, [r0], -r0
 2b4:	00000010 	andeq	r0, r0, r0, lsl r0
 2b8:	0000000c 	andeq	r0, r0, ip
 2bc:	00000208 	andeq	r0, r0, r8, lsl #4
 2c0:	00008be0 	andeq	r8, r0, r0, ror #23
 2c4:	00000010 	andeq	r0, r0, r0, lsl r0
 2c8:	0000000c 	andeq	r0, r0, ip
 2cc:	ffffffff 			; <UNDEFINED> instruction: 0xffffffff
 2d0:	7c020001 	stcvc	0, cr0, [r2], {1}
 2d4:	000d0c0e 	andeq	r0, sp, lr, lsl #24
 2d8:	0000000c 	andeq	r0, r0, ip
 2dc:	000002c8 	andeq	r0, r0, r8, asr #5
 2e0:	00008bf0 	strdeq	r8, [r0], -r0
 2e4:	00000018 	andeq	r0, r0, r8, lsl r0
 2e8:	0000000c 	andeq	r0, r0, ip
 2ec:	ffffffff 			; <UNDEFINED> instruction: 0xffffffff
 2f0:	7c020001 	stcvc	0, cr0, [r2], {1}
 2f4:	000d0c0e 	andeq	r0, sp, lr, lsl #24
 2f8:	00000034 	andeq	r0, r0, r4, lsr r0
 2fc:	000002e8 	andeq	r0, r0, r8, ror #5
 300:	00008c08 	andeq	r8, r0, r8, lsl #24
 304:	00000058 	andeq	r0, r0, r8, asr r0
 308:	80100e42 	andshi	r0, r0, r2, asr #28
 30c:	82038104 	andhi	r8, r3, #1
 310:	42018302 	andmi	r8, r1, #134217728	; 0x8000000
 314:	07841c0e 	streq	r1, [r4, lr, lsl #24]
 318:	058e0685 	streq	r0, [lr, #1669]	; 0x685
 31c:	5c280e42 	stcpl	14, cr0, [r8], #-264	; 0xfffffef8
 320:	ce421c0e 	cdpgt	12, 4, cr1, cr2, cr14, {0}
 324:	100ec4c5 	andne	ip, lr, r5, asr #9
 328:	c1c2c342 	bicgt	ip, r2, r2, asr #6
 32c:	00000ec0 	andeq	r0, r0, r0, asr #29
 330:	0000000c 	andeq	r0, r0, ip
 334:	ffffffff 			; <UNDEFINED> instruction: 0xffffffff
 338:	7c020001 	stcvc	0, cr0, [r2], {1}
 33c:	000d0c0e 	andeq	r0, sp, lr, lsl #24
 340:	00000014 	andeq	r0, r0, r4, lsl r0
 344:	00000330 	andeq	r0, r0, r0, lsr r3
 348:	00008c60 	andeq	r8, r0, r0, ror #24
 34c:	00000014 	andeq	r0, r0, r4, lsl r0
 350:	84080e42 	strhi	r0, [r8], #-3650	; 0xfffff1be
 354:	00018e02 	andeq	r8, r1, r2, lsl #28
 358:	0000000c 	andeq	r0, r0, ip
 35c:	00000330 	andeq	r0, r0, r0, lsr r3
 360:	00008c74 	andeq	r8, r0, r4, ror ip
 364:	00000018 	andeq	r0, r0, r8, lsl r0
 368:	0000000c 	andeq	r0, r0, ip
 36c:	00000330 	andeq	r0, r0, r0, lsr r3
 370:	00008c8c 	andeq	r8, r0, ip, lsl #25
 374:	00000010 	andeq	r0, r0, r0, lsl r0
 378:	0000000c 	andeq	r0, r0, ip
 37c:	ffffffff 			; <UNDEFINED> instruction: 0xffffffff
 380:	7c020001 	stcvc	0, cr0, [r2], {1}
 384:	000d0c0e 	andeq	r0, sp, lr, lsl #24
 388:	00000014 	andeq	r0, r0, r4, lsl r0
 38c:	00000378 	andeq	r0, r0, r8, ror r3
 390:	00008c9c 	muleq	r0, ip, ip
 394:	00000034 	andeq	r0, r0, r4, lsr r0
 398:	84080e42 	strhi	r0, [r8], #-3650	; 0xfffff1be
 39c:	00018e02 	andeq	r8, r1, r2, lsl #28
 3a0:	0000000c 	andeq	r0, r0, ip
 3a4:	ffffffff 			; <UNDEFINED> instruction: 0xffffffff
 3a8:	7c020001 	stcvc	0, cr0, [r2], {1}
 3ac:	000d0c0e 	andeq	r0, sp, lr, lsl #24
 3b0:	0000000c 	andeq	r0, r0, ip
 3b4:	000003a0 	andeq	r0, r0, r0, lsr #7
 3b8:	00008cd0 	ldrdeq	r8, [r0], -r0
 3bc:	00000014 	andeq	r0, r0, r4, lsl r0
 3c0:	0000000c 	andeq	r0, r0, ip
 3c4:	000003a0 	andeq	r0, r0, r0, lsr #7
 3c8:	00008ce4 	andeq	r8, r0, r4, ror #25
 3cc:	00000024 	andeq	r0, r0, r4, lsr #32
 3d0:	0000000c 	andeq	r0, r0, ip
 3d4:	000003a0 	andeq	r0, r0, r0, lsr #7
 3d8:	00008d08 	andeq	r8, r0, r8, lsl #26
 3dc:	00000038 	andeq	r0, r0, r8, lsr r0
 3e0:	00000024 	andeq	r0, r0, r4, lsr #32
 3e4:	000003a0 	andeq	r0, r0, r0, lsr #7
 3e8:	00008d40 	andeq	r8, r0, r0, asr #26
 3ec:	000001b4 			; <UNDEFINED> instruction: 0x000001b4
 3f0:	84140e42 	ldrhi	r0, [r4], #-3650	; 0xfffff1be
 3f4:	86048505 	strhi	r8, [r4], -r5, lsl #10
 3f8:	8e028703 	cdphi	7, 0, cr8, cr2, cr3, {0}
 3fc:	600e4201 	andvs	r4, lr, r1, lsl #4
 400:	0e0a9a02 	vmlaeq.f32	s18, s20, s4
 404:	000b4214 	andeq	r4, fp, r4, lsl r2
 408:	00000014 	andeq	r0, r0, r4, lsl r0
 40c:	000003a0 	andeq	r0, r0, r0, lsr #7
 410:	00008ef4 	strdeq	r8, [r0], -r4
 414:	00000064 	andeq	r0, r0, r4, rrx
 418:	8e040e54 	mcrhi	14, 0, r0, cr4, cr4, {2}
 41c:	100e4201 	andne	r4, lr, r1, lsl #4
 420:	0000002c 	andeq	r0, r0, ip, lsr #32
 424:	000003a0 	andeq	r0, r0, r0, lsr #7
 428:	00008f58 	andeq	r8, r0, r8, asr pc
 42c:	000004b8 			; <UNDEFINED> instruction: 0x000004b8
 430:	84240e42 	strthi	r0, [r4], #-3650	; 0xfffff1be
 434:	86088509 	strhi	r8, [r8], -r9, lsl #10
 438:	88068707 	stmdahi	r6, {r0, r1, r2, r8, r9, sl, pc}
 43c:	8a048905 	bhi	122858 <__bss_end__+0x118868>
 440:	8e028b03 	vmlahi.f64	d8, d2, d3
 444:	b80e4201 	stmdalt	lr, {r0, r9, lr}
 448:	02380302 	eorseq	r0, r8, #134217728	; 0x8000000
 44c:	0000240e 	andeq	r2, r0, lr, lsl #8
 450:	0000000c 	andeq	r0, r0, ip
 454:	ffffffff 			; <UNDEFINED> instruction: 0xffffffff
 458:	7c020001 	stcvc	0, cr0, [r2], {1}
 45c:	000d0c0e 	andeq	r0, sp, lr, lsl #24
 460:	0000000c 	andeq	r0, r0, ip
 464:	00000450 	andeq	r0, r0, r0, asr r4
 468:	00009410 	andeq	r9, r0, r0, lsl r4
 46c:	00000010 	andeq	r0, r0, r0, lsl r0
 470:	0000000c 	andeq	r0, r0, ip
 474:	00000450 	andeq	r0, r0, r0, asr r4
 478:	00009420 	andeq	r9, r0, r0, lsr #8
 47c:	00000010 	andeq	r0, r0, r0, lsl r0
 480:	0000000c 	andeq	r0, r0, ip
 484:	ffffffff 			; <UNDEFINED> instruction: 0xffffffff
 488:	7c020001 	stcvc	0, cr0, [r2], {1}
 48c:	000d0c0e 	andeq	r0, sp, lr, lsl #24
 490:	00000014 	andeq	r0, r0, r4, lsl r0
 494:	00000480 	andeq	r0, r0, r0, lsl #9
 498:	00009430 	andeq	r9, r0, r0, lsr r4
 49c:	0000002c 	andeq	r0, r0, ip, lsr #32
 4a0:	84080e42 	strhi	r0, [r8], #-3650	; 0xfffff1be
 4a4:	00018e02 	andeq	r8, r1, r2, lsl #28
 4a8:	0000000c 	andeq	r0, r0, ip
 4ac:	ffffffff 			; <UNDEFINED> instruction: 0xffffffff
 4b0:	7c020001 	stcvc	0, cr0, [r2], {1}
 4b4:	000d0c0e 	andeq	r0, sp, lr, lsl #24
 4b8:	00000014 	andeq	r0, r0, r4, lsl r0
 4bc:	000004a8 	andeq	r0, r0, r8, lsr #9
 4c0:	0000945c 	andeq	r9, r0, ip, asr r4
 4c4:	0000003c 	andeq	r0, r0, ip, lsr r0
 4c8:	84080e42 	strhi	r0, [r8], #-3650	; 0xfffff1be
 4cc:	00018e02 	andeq	r8, r1, r2, lsl #28
 4d0:	0000000c 	andeq	r0, r0, ip
 4d4:	ffffffff 			; <UNDEFINED> instruction: 0xffffffff
 4d8:	7c020001 	stcvc	0, cr0, [r2], {1}
 4dc:	000d0c0e 	andeq	r0, sp, lr, lsl #24
 4e0:	0000000c 	andeq	r0, r0, ip
 4e4:	000004d0 	ldrdeq	r0, [r0], -r0	; <UNPREDICTABLE>
 4e8:	00009498 	muleq	r0, r8, r4
 4ec:	00000004 	andeq	r0, r0, r4
 4f0:	0000000c 	andeq	r0, r0, ip
 4f4:	ffffffff 			; <UNDEFINED> instruction: 0xffffffff
 4f8:	7c020001 	stcvc	0, cr0, [r2], {1}
 4fc:	000d0c0e 	andeq	r0, sp, lr, lsl #24
 500:	0000000c 	andeq	r0, r0, ip
 504:	000004f0 	strdeq	r0, [r0], -r0	; <UNPREDICTABLE>
 508:	0000949c 	muleq	r0, ip, r4
 50c:	00000018 	andeq	r0, r0, r8, lsl r0
 510:	0000000c 	andeq	r0, r0, ip
 514:	000004f0 	strdeq	r0, [r0], -r0	; <UNPREDICTABLE>
 518:	000094b4 			; <UNDEFINED> instruction: 0x000094b4
 51c:	00000014 	andeq	r0, r0, r4, lsl r0
 520:	00000014 	andeq	r0, r0, r4, lsl r0
 524:	000004f0 	strdeq	r0, [r0], -r0	; <UNPREDICTABLE>
 528:	000094c8 	andeq	r9, r0, r8, asr #9
 52c:	00000054 	andeq	r0, r0, r4, asr r0
 530:	84080e42 	strhi	r0, [r8], #-3650	; 0xfffff1be
 534:	00018e02 	andeq	r8, r1, r2, lsl #28
 538:	0000000c 	andeq	r0, r0, ip
 53c:	ffffffff 			; <UNDEFINED> instruction: 0xffffffff
 540:	7c020001 	stcvc	0, cr0, [r2], {1}
 544:	000d0c0e 	andeq	r0, sp, lr, lsl #24
 548:	00000014 	andeq	r0, r0, r4, lsl r0
 54c:	00000538 	andeq	r0, r0, r8, lsr r5
 550:	0000951c 	andeq	r9, r0, ip, lsl r5
 554:	00000014 	andeq	r0, r0, r4, lsl r0
 558:	84080e42 	strhi	r0, [r8], #-3650	; 0xfffff1be
 55c:	00018e02 	andeq	r8, r1, r2, lsl #28
 560:	00000014 	andeq	r0, r0, r4, lsl r0
 564:	00000538 	andeq	r0, r0, r8, lsr r5
 568:	00009530 	andeq	r9, r0, r0, lsr r5
 56c:	0000001c 	andeq	r0, r0, ip, lsl r0
 570:	84080e42 	strhi	r0, [r8], #-3650	; 0xfffff1be
 574:	00018e02 	andeq	r8, r1, r2, lsl #28
 578:	00000018 	andeq	r0, r0, r8, lsl r0
 57c:	00000538 	andeq	r0, r0, r8, lsr r5
 580:	0000954c 	andeq	r9, r0, ip, asr #10
 584:	00000024 	andeq	r0, r0, r4, lsr #32
 588:	84100e42 	ldrhi	r0, [r0], #-3650	; 0xfffff1be
 58c:	86038504 	strhi	r8, [r3], -r4, lsl #10
 590:	00018e02 	andeq	r8, r1, r2, lsl #28
 594:	00000014 	andeq	r0, r0, r4, lsl r0
 598:	00000538 	andeq	r0, r0, r8, lsr r5
 59c:	00009570 	andeq	r9, r0, r0, ror r5
 5a0:	00000018 	andeq	r0, r0, r8, lsl r0
 5a4:	84080e42 	strhi	r0, [r8], #-3650	; 0xfffff1be
 5a8:	00018e02 	andeq	r8, r1, r2, lsl #28
 5ac:	00000014 	andeq	r0, r0, r4, lsl r0
 5b0:	00000538 	andeq	r0, r0, r8, lsr r5
 5b4:	00009588 	andeq	r9, r0, r8, lsl #11
 5b8:	00000018 	andeq	r0, r0, r8, lsl r0
 5bc:	84080e42 	strhi	r0, [r8], #-3650	; 0xfffff1be
 5c0:	00018e02 	andeq	r8, r1, r2, lsl #28
 5c4:	0000000c 	andeq	r0, r0, ip
 5c8:	ffffffff 			; <UNDEFINED> instruction: 0xffffffff
 5cc:	7c020001 	stcvc	0, cr0, [r2], {1}
 5d0:	000d0c0e 	andeq	r0, sp, lr, lsl #24
 5d4:	00000018 	andeq	r0, r0, r8, lsl r0
 5d8:	000005c4 	andeq	r0, r0, r4, asr #11
 5dc:	000095a0 	andeq	r9, r0, r0, lsr #11
 5e0:	00000020 	andeq	r0, r0, r0, lsr #32
 5e4:	84100e42 	ldrhi	r0, [r0], #-3650	; 0xfffff1be
 5e8:	86038504 	strhi	r8, [r3], -r4, lsl #10
 5ec:	00018e02 	andeq	r8, r1, r2, lsl #28
 5f0:	00000018 	andeq	r0, r0, r8, lsl r0
 5f4:	000005c4 	andeq	r0, r0, r4, asr #11
 5f8:	000095c0 	andeq	r9, r0, r0, asr #11
 5fc:	00000020 	andeq	r0, r0, r0, lsr #32
 600:	84100e42 	ldrhi	r0, [r0], #-3650	; 0xfffff1be
 604:	86038504 	strhi	r8, [r3], -r4, lsl #10
 608:	00018e02 	andeq	r8, r1, r2, lsl #28
 60c:	00000014 	andeq	r0, r0, r4, lsl r0
 610:	000005c4 	andeq	r0, r0, r4, asr #11
 614:	000095e0 	andeq	r9, r0, r0, ror #11
 618:	000000b0 	strheq	r0, [r0], -r0	; <UNPREDICTABLE>
 61c:	84080e42 	strhi	r0, [r8], #-3650	; 0xfffff1be
 620:	00018e02 	andeq	r8, r1, r2, lsl #28
 624:	00000014 	andeq	r0, r0, r4, lsl r0
 628:	000005c4 	andeq	r0, r0, r4, asr #11
 62c:	00009690 	muleq	r0, r0, r6
 630:	00000018 	andeq	r0, r0, r8, lsl r0
 634:	84080e42 	strhi	r0, [r8], #-3650	; 0xfffff1be
 638:	00018e02 	andeq	r8, r1, r2, lsl #28
 63c:	00000014 	andeq	r0, r0, r4, lsl r0
 640:	000005c4 	andeq	r0, r0, r4, asr #11
 644:	000096a8 	andeq	r9, r0, r8, lsr #13
 648:	00000020 	andeq	r0, r0, r0, lsr #32
 64c:	84080e42 	strhi	r0, [r8], #-3650	; 0xfffff1be
 650:	00018e02 	andeq	r8, r1, r2, lsl #28
 654:	00000014 	andeq	r0, r0, r4, lsl r0
 658:	000005c4 	andeq	r0, r0, r4, asr #11
 65c:	000096c8 	andeq	r9, r0, r8, asr #13
 660:	00000030 	andeq	r0, r0, r0, lsr r0
 664:	84080e42 	strhi	r0, [r8], #-3650	; 0xfffff1be
 668:	00018e02 	andeq	r8, r1, r2, lsl #28
 66c:	00000014 	andeq	r0, r0, r4, lsl r0
 670:	000005c4 	andeq	r0, r0, r4, asr #11
 674:	000096f8 	strdeq	r9, [r0], -r8
 678:	00000030 	andeq	r0, r0, r0, lsr r0
 67c:	84080e42 	strhi	r0, [r8], #-3650	; 0xfffff1be
 680:	00018e02 	andeq	r8, r1, r2, lsl #28
 684:	00000014 	andeq	r0, r0, r4, lsl r0
 688:	000005c4 	andeq	r0, r0, r4, asr #11
 68c:	00009728 	andeq	r9, r0, r8, lsr #14
 690:	00000010 	andeq	r0, r0, r0, lsl r0
 694:	84080e42 	strhi	r0, [r8], #-3650	; 0xfffff1be
 698:	00018e02 	andeq	r8, r1, r2, lsl #28
 69c:	00000014 	andeq	r0, r0, r4, lsl r0
 6a0:	000005c4 	andeq	r0, r0, r4, asr #11
 6a4:	00009738 	andeq	r9, r0, r8, lsr r7
 6a8:	00000020 	andeq	r0, r0, r0, lsr #32
 6ac:	84080e42 	strhi	r0, [r8], #-3650	; 0xfffff1be
 6b0:	00018e02 	andeq	r8, r1, r2, lsl #28
 6b4:	00000014 	andeq	r0, r0, r4, lsl r0
 6b8:	000005c4 	andeq	r0, r0, r4, asr #11
 6bc:	00009758 	andeq	r9, r0, r8, asr r7
 6c0:	00000014 	andeq	r0, r0, r4, lsl r0
 6c4:	84080e42 	strhi	r0, [r8], #-3650	; 0xfffff1be
 6c8:	00018e02 	andeq	r8, r1, r2, lsl #28
 6cc:	00000014 	andeq	r0, r0, r4, lsl r0
 6d0:	000005c4 	andeq	r0, r0, r4, asr #11
 6d4:	0000976c 	andeq	r9, r0, ip, ror #14
 6d8:	00000024 	andeq	r0, r0, r4, lsr #32
 6dc:	84080e42 	strhi	r0, [r8], #-3650	; 0xfffff1be
 6e0:	00018e02 	andeq	r8, r1, r2, lsl #28
 6e4:	0000000c 	andeq	r0, r0, ip
 6e8:	ffffffff 			; <UNDEFINED> instruction: 0xffffffff
 6ec:	7c020001 	stcvc	0, cr0, [r2], {1}
 6f0:	000d0c0e 	andeq	r0, sp, lr, lsl #24
 6f4:	0000000c 	andeq	r0, r0, ip
 6f8:	000006e4 	andeq	r0, r0, r4, ror #13
 6fc:	00009790 	muleq	r0, r0, r7
 700:	00000034 	andeq	r0, r0, r4, lsr r0
 704:	0000000c 	andeq	r0, r0, ip
 708:	ffffffff 			; <UNDEFINED> instruction: 0xffffffff
 70c:	7c020001 	stcvc	0, cr0, [r2], {1}
 710:	000d0c0e 	andeq	r0, sp, lr, lsl #24
 714:	0000000c 	andeq	r0, r0, ip
 718:	00000704 	andeq	r0, r0, r4, lsl #14
 71c:	000097c4 	andeq	r9, r0, r4, asr #15
 720:	0000002c 	andeq	r0, r0, ip, lsr #32
 724:	0000000c 	andeq	r0, r0, ip
 728:	ffffffff 			; <UNDEFINED> instruction: 0xffffffff
 72c:	7c020001 	stcvc	0, cr0, [r2], {1}
 730:	000d0c0e 	andeq	r0, sp, lr, lsl #24
 734:	0000000c 	andeq	r0, r0, ip
 738:	00000724 	andeq	r0, r0, r4, lsr #14
 73c:	000097f0 	strdeq	r9, [r0], -r0
 740:	00000020 	andeq	r0, r0, r0, lsr #32
 744:	0000000c 	andeq	r0, r0, ip
 748:	ffffffff 			; <UNDEFINED> instruction: 0xffffffff
 74c:	7c020001 	stcvc	0, cr0, [r2], {1}
 750:	000d0c0e 	andeq	r0, sp, lr, lsl #24
 754:	0000000c 	andeq	r0, r0, ip
 758:	00000744 	andeq	r0, r0, r4, asr #14
 75c:	00009810 	andeq	r9, r0, r0, lsl r8
 760:	0000002c 	andeq	r0, r0, ip, lsr #32
 764:	0000000c 	andeq	r0, r0, ip
 768:	ffffffff 			; <UNDEFINED> instruction: 0xffffffff
 76c:	7c020001 	stcvc	0, cr0, [r2], {1}
 770:	000d0c0e 	andeq	r0, sp, lr, lsl #24
 774:	0000000c 	andeq	r0, r0, ip
 778:	00000764 	andeq	r0, r0, r4, ror #14
 77c:	0000983c 	andeq	r9, r0, ip, lsr r8
 780:	00000004 	andeq	r0, r0, r4
